
elfloader.o:     file format elf32-littleriscv


Disassembly of section .text:

00010000 <_ftext>:
   10000:	00000317          	auipc	t1,0x0
   10004:	00030313          	mv	t1,t1
   10008:	ef010113          	addi	sp,sp,-272
   1000c:	00112423          	sw	ra,8(sp)
   10010:	00212823          	sw	sp,16(sp)
   10014:	00312c23          	sw	gp,24(sp)
   10018:	02412023          	sw	tp,32(sp)
   1001c:	02512423          	sw	t0,40(sp)
   10020:	02612823          	sw	t1,48(sp)
   10024:	02712c23          	sw	t2,56(sp)
   10028:	04812023          	sw	s0,64(sp)
   1002c:	04912423          	sw	s1,72(sp)
   10030:	04a12823          	sw	a0,80(sp)
   10034:	04b12c23          	sw	a1,88(sp)
   10038:	06c12023          	sw	a2,96(sp)
   1003c:	06d12423          	sw	a3,104(sp)
   10040:	06e12823          	sw	a4,112(sp)
   10044:	06f12c23          	sw	a5,120(sp)
   10048:	09012023          	sw	a6,128(sp)
   1004c:	09112423          	sw	a7,136(sp)
   10050:	09212823          	sw	s2,144(sp)
   10054:	09312c23          	sw	s3,152(sp)
   10058:	0b412023          	sw	s4,160(sp)
   1005c:	0b512423          	sw	s5,168(sp)
   10060:	0b612823          	sw	s6,176(sp)
   10064:	0b712c23          	sw	s7,184(sp)
   10068:	0d812023          	sw	s8,192(sp)
   1006c:	0d912423          	sw	s9,200(sp)
   10070:	0da12823          	sw	s10,208(sp)
   10074:	0db12c23          	sw	s11,216(sp)
   10078:	0fc12023          	sw	t3,224(sp)
   1007c:	0fd12423          	sw	t4,232(sp)
   10080:	0fe12823          	sw	t5,240(sp)
   10084:	0ff12c23          	sw	t6,248(sp)
   10088:	34202573          	csrr	a0,mcause
   1008c:	341025f3          	csrr	a1,mepc
   10090:	00010613          	mv	a2,sp
   10094:	f6dff0ef          	jal	10000 <_ftext>
   10098:	34151073          	csrw	mepc,a0
   1009c:	00812083          	lw	ra,8(sp)
   100a0:	01012103          	lw	sp,16(sp)
   100a4:	01812183          	lw	gp,24(sp)
   100a8:	02012203          	lw	tp,32(sp)
   100ac:	02812283          	lw	t0,40(sp)
   100b0:	03012303          	lw	t1,48(sp)
   100b4:	03812383          	lw	t2,56(sp)
   100b8:	04012403          	lw	s0,64(sp)
   100bc:	04812483          	lw	s1,72(sp)
   100c0:	05012503          	lw	a0,80(sp)
   100c4:	05812583          	lw	a1,88(sp)
   100c8:	06012603          	lw	a2,96(sp)
   100cc:	06812683          	lw	a3,104(sp)
   100d0:	07012703          	lw	a4,112(sp)
   100d4:	07812783          	lw	a5,120(sp)
   100d8:	08012803          	lw	a6,128(sp)
   100dc:	08812883          	lw	a7,136(sp)
   100e0:	09012903          	lw	s2,144(sp)
   100e4:	09812983          	lw	s3,152(sp)
   100e8:	0a012a03          	lw	s4,160(sp)
   100ec:	0a812a83          	lw	s5,168(sp)
   100f0:	0b012b03          	lw	s6,176(sp)
   100f4:	0b812b83          	lw	s7,184(sp)
   100f8:	0c012c03          	lw	s8,192(sp)
   100fc:	0c812c83          	lw	s9,200(sp)
   10100:	0d012d03          	lw	s10,208(sp)
   10104:	0d812d83          	lw	s11,216(sp)
   10108:	0e012e03          	lw	t3,224(sp)
   1010c:	0e812e83          	lw	t4,232(sp)
   10110:	0f012f03          	lw	t5,240(sp)
   10114:	0f812f83          	lw	t6,248(sp)
   10118:	11010113          	addi	sp,sp,272
   1011c:	10000073          	eret

00010120 <_start>:
   10120:	00000093          	li	ra,0
   10124:	00000113          	li	sp,0
   10128:	00000193          	li	gp,0
   1012c:	00000213          	li	tp,0
   10130:	00000293          	li	t0,0
   10134:	00000313          	li	t1,0
   10138:	00000393          	li	t2,0
   1013c:	00000413          	li	s0,0
   10140:	00000493          	li	s1,0
   10144:	00000513          	li	a0,0
   10148:	00000593          	li	a1,0
   1014c:	00000613          	li	a2,0
   10150:	00000693          	li	a3,0
   10154:	00000713          	li	a4,0
   10158:	00000793          	li	a5,0
   1015c:	00000813          	li	a6,0
   10160:	00000893          	li	a7,0
   10164:	00000913          	li	s2,0
   10168:	00000993          	li	s3,0
   1016c:	00000a13          	li	s4,0
   10170:	00000a93          	li	s5,0
   10174:	00000b13          	li	s6,0
   10178:	00000b93          	li	s7,0
   1017c:	00000c13          	li	s8,0
   10180:	00000c93          	li	s9,0
   10184:	00000d13          	li	s10,0
   10188:	00000d93          	li	s11,0
   1018c:	00000e13          	li	t3,0
   10190:	00000e93          	li	t4,0
   10194:	00000f13          	li	t5,0
   10198:	00000f93          	li	t6,0
   1019c:	f10022f3          	csrr	t0,mhartid
   101a0:	02028863          	beqz	t0,101d0 <boot_seL4>

000101a4 <.L0 >:
   101a4:	00000417          	auipc	s0,0x0
   101a8:	00040413          	mv	s0,s0
   101ac:	00028513          	mv	a0,t0
   101b0:	0012c313          	xori	t1,t0,1
   101b4:	00031863          	bnez	t1,101c4 <boot_node2>

000101b8 <.L0 >:
   101b8:	00000117          	auipc	sp,0x0
   101bc:	00010113          	mv	sp,sp
   101c0:	00040067          	jr	s0

000101c4 <boot_node2>:
   101c4:	00000117          	auipc	sp,0x0
   101c8:	00010113          	mv	sp,sp
   101cc:	00040067          	jr	s0

000101d0 <boot_seL4>:
   101d0:	00000117          	auipc	sp,0x0
   101d4:	00010113          	mv	sp,sp

000101d8 <.L0 >:
   101d8:	00000417          	auipc	s0,0x0
   101dc:	00040413          	mv	s0,s0
   101e0:	00040067          	jr	s0

000101e4 <elf32_getProgramHeaderTable>:
   101e4:	fe010113          	addi	sp,sp,-32 # 101b0 <.L0 +0xc>
   101e8:	00812e23          	sw	s0,28(sp)
   101ec:	02010413          	addi	s0,sp,32
   101f0:	fea42623          	sw	a0,-20(s0) # 101c4 <boot_node2>

000101f4 <.LM2>:
   101f4:	fec42783          	lw	a5,-20(s0)
   101f8:	01c7a703          	lw	a4,28(a5)
   101fc:	fec42783          	lw	a5,-20(s0)
   10200:	00f707b3          	add	a5,a4,a5

00010204 <.LM3>:
   10204:	00078513          	mv	a0,a5
   10208:	01c12403          	lw	s0,28(sp)
   1020c:	02010113          	addi	sp,sp,32
   10210:	00008067          	ret

00010214 <elf32_getProgramHeaderType>:
   10214:	fe010113          	addi	sp,sp,-32
   10218:	00112e23          	sw	ra,28(sp)
   1021c:	00812c23          	sw	s0,24(sp)
   10220:	02010413          	addi	s0,sp,32
   10224:	fea42623          	sw	a0,-20(s0)
   10228:	00058793          	mv	a5,a1
   1022c:	fef41523          	sh	a5,-22(s0)

00010230 <.LM5>:
   10230:	fec42503          	lw	a0,-20(s0)
   10234:	00000297          	auipc	t0,0x0
   10238:	000280e7          	jalr	t0
   1023c:	00050713          	mv	a4,a0
   10240:	fea45783          	lhu	a5,-22(s0)
   10244:	00579793          	slli	a5,a5,0x5
   10248:	00f707b3          	add	a5,a4,a5
   1024c:	0007a783          	lw	a5,0(a5)

00010250 <.LM6>:
   10250:	00078513          	mv	a0,a5
   10254:	01c12083          	lw	ra,28(sp)
   10258:	01812403          	lw	s0,24(sp)
   1025c:	02010113          	addi	sp,sp,32
   10260:	00008067          	ret

00010264 <map_kernel_window>:
   10264:	fc010113          	addi	sp,sp,-64
   10268:	02112e23          	sw	ra,60(sp)
   1026c:	02812c23          	sw	s0,56(sp)
   10270:	04010413          	addi	s0,sp,64
   10274:	fca42623          	sw	a0,-52(s0)

00010278 <.LM8>:
   10278:	fcc42783          	lw	a5,-52(s0)
   1027c:	0007a783          	lw	a5,0(a5)
   10280:	0167d793          	srli	a5,a5,0x16
   10284:	fef42423          	sw	a5,-24(s0)

00010288 <.LM9>:
   10288:	10000793          	li	a5,256
   1028c:	fef42223          	sw	a5,-28(s0)

00010290 <.LM10>:
   10290:	fe842583          	lw	a1,-24(s0)
   10294:	000007b7          	lui	a5,0x0
   10298:	00078513          	mv	a0,a5
   1029c:	00000297          	auipc	t0,0x0
   102a0:	000280e7          	jalr	t0

000102a4 <.LM11>:
   102a4:	fe042623          	sw	zero,-20(s0)
   102a8:	0340006f          	j	102dc <.L6>

000102ac <.L7>:
   102ac:	fec42783          	lw	a5,-20(s0)
   102b0:	01479793          	slli	a5,a5,0x14
   102b4:	0177e713          	ori	a4,a5,23
   102b8:	000007b7          	lui	a5,0x0
   102bc:	fec42683          	lw	a3,-20(s0)
   102c0:	00269693          	slli	a3,a3,0x2
   102c4:	00078793          	mv	a5,a5
   102c8:	00f687b3          	add	a5,a3,a5
   102cc:	00e7a023          	sw	a4,0(a5) # 0 <buf.1018>

000102d0 <.LM13>:
   102d0:	fec42783          	lw	a5,-20(s0)
   102d4:	00178793          	addi	a5,a5,1
   102d8:	fef42623          	sw	a5,-20(s0)

000102dc <.L6>:
   102dc:	fec42703          	lw	a4,-20(s0)
   102e0:	fe442783          	lw	a5,-28(s0)
   102e4:	fcf764e3          	bltu	a4,a5,102ac <.L7>

000102e8 <.LM15>:
   102e8:	fe042623          	sw	zero,-20(s0)
   102ec:	0400006f          	j	1032c <.L8>

000102f0 <.L9>:
   102f0:	fe842783          	lw	a5,-24(s0)
   102f4:	01479793          	slli	a5,a5,0x14
   102f8:	0177e713          	ori	a4,a5,23
   102fc:	000007b7          	lui	a5,0x0
   10300:	fe442683          	lw	a3,-28(s0)
   10304:	00269693          	slli	a3,a3,0x2
   10308:	00078793          	mv	a5,a5
   1030c:	00f687b3          	add	a5,a3,a5
   10310:	00e7a023          	sw	a4,0(a5) # 0 <buf.1018>

00010314 <.LM17>:
   10314:	fe442783          	lw	a5,-28(s0)
   10318:	00178793          	addi	a5,a5,1
   1031c:	fef42223          	sw	a5,-28(s0)
   10320:	fe842783          	lw	a5,-24(s0)
   10324:	00178793          	addi	a5,a5,1
   10328:	fef42423          	sw	a5,-24(s0)

0001032c <.L8>:
   1032c:	fe442703          	lw	a4,-28(s0)
   10330:	3ff00793          	li	a5,1023
   10334:	fae7fee3          	bleu	a4,a5,102f0 <.L9>

00010338 <.LM19>:
   10338:	000007b7          	lui	a5,0x0
   1033c:	00078793          	mv	a5,a5
   10340:	18079073          	csrw	sptbr,a5

00010344 <.LBB2>:
   10344:	300467f3          	csrrs	a5,mstatus,8
   10348:	fef42023          	sw	a5,-32(s0)

0001034c <.LBB3>:
   1034c:	03000793          	li	a5,48
   10350:	3007a7f3          	csrrs	a5,mstatus,a5
   10354:	fcf42e23          	sw	a5,-36(s0)

00010358 <.LBB4>:
   10358:	003e07b7          	lui	a5,0x3e0
   1035c:	3007b7f3          	csrrc	a5,mstatus,a5
   10360:	fcf42c23          	sw	a5,-40(s0)

00010364 <.LBB5>:
   10364:	001007b7          	lui	a5,0x100
   10368:	3007a7f3          	csrrs	a5,mstatus,a5
   1036c:	fcf42a23          	sw	a5,-44(s0)

00010370 <.LBB6>:
   10370:	300277f3          	csrrc	a5,mstatus,4
   10374:	fcf42823          	sw	a5,-48(s0)

00010378 <.LBE6>:
   10378:	00000013          	nop
   1037c:	03c12083          	lw	ra,60(sp)
   10380:	03812403          	lw	s0,56(sp)
   10384:	04010113          	addi	sp,sp,64
   10388:	00008067          	ret

0001038c <regions_overlap>:
   1038c:	fe010113          	addi	sp,sp,-32
   10390:	00812e23          	sw	s0,28(sp)
   10394:	02010413          	addi	s0,sp,32
   10398:	fea42623          	sw	a0,-20(s0)
   1039c:	feb42423          	sw	a1,-24(s0)
   103a0:	fec42223          	sw	a2,-28(s0)
   103a4:	fed42023          	sw	a3,-32(s0)

000103a8 <.LM27>:
   103a8:	fe842703          	lw	a4,-24(s0)
   103ac:	fe442783          	lw	a5,-28(s0)
   103b0:	00f77663          	bleu	a5,a4,103bc <.L11>

000103b4 <.LM28>:
   103b4:	00000793          	li	a5,0
   103b8:	01c0006f          	j	103d4 <.L12>

000103bc <.L11>:
   103bc:	fe042703          	lw	a4,-32(s0)
   103c0:	fec42783          	lw	a5,-20(s0)
   103c4:	00f77663          	bleu	a5,a4,103d0 <.L13>

000103c8 <.LM30>:
   103c8:	00000793          	li	a5,0
   103cc:	0080006f          	j	103d4 <.L12>

000103d0 <.L13>:
   103d0:	00100793          	li	a5,1

000103d4 <.L12>:
   103d4:	00078513          	mv	a0,a5
   103d8:	01c12403          	lw	s0,28(sp)
   103dc:	02010113          	addi	sp,sp,32
   103e0:	00008067          	ret

000103e4 <ensure_phys_range_valid>:
   103e4:	fe010113          	addi	sp,sp,-32
   103e8:	00112e23          	sw	ra,28(sp)
   103ec:	00812c23          	sw	s0,24(sp)
   103f0:	02010413          	addi	s0,sp,32
   103f4:	fea42623          	sw	a0,-20(s0)
   103f8:	feb42423          	sw	a1,-24(s0)

000103fc <.LM34>:
   103fc:	fe842783          	lw	a5,-24(s0)
   10400:	fff78713          	addi	a4,a5,-1 # fffff <.L0 +0xebd4f>
   10404:	000007b7          	lui	a5,0x0
   10408:	00078613          	mv	a2,a5

0001040c <.LM35>:
   1040c:	000007b7          	lui	a5,0x0
   10410:	00078793          	mv	a5,a5

00010414 <.LM36>:
   10414:	fff78793          	addi	a5,a5,-1
   10418:	00078693          	mv	a3,a5
   1041c:	00070593          	mv	a1,a4
   10420:	fec42503          	lw	a0,-20(s0)
   10424:	00000297          	auipc	t0,0x0
   10428:	000280e7          	jalr	t0
   1042c:	00050793          	mv	a5,a0
   10430:	00078e63          	beqz	a5,1044c <.L16>

00010434 <.LM37>:
   10434:	000007b7          	lui	a5,0x0
   10438:	00078513          	mv	a0,a5
   1043c:	00000297          	auipc	t0,0x0
   10440:	000280e7          	jalr	t0

00010444 <.LM38>:
   10444:	00000297          	auipc	t0,0x0
   10448:	000280e7          	jalr	t0

0001044c <.L16>:
   1044c:	00000013          	nop
   10450:	01c12083          	lw	ra,28(sp)
   10454:	01812403          	lw	s0,24(sp)
   10458:	02010113          	addi	sp,sp,32
   1045c:	00008067          	ret

00010460 <unpack_elf_to_paddr>:
   10460:	fb010113          	addi	sp,sp,-80
   10464:	04112623          	sw	ra,76(sp)
   10468:	04812423          	sw	s0,72(sp)
   1046c:	05010413          	addi	s0,sp,80
   10470:	faa42e23          	sw	a0,-68(s0)
   10474:	fab42c23          	sw	a1,-72(s0)

00010478 <.LM41>:
   10478:	fc840713          	addi	a4,s0,-56
   1047c:	fd040793          	addi	a5,s0,-48
   10480:	00070693          	mv	a3,a4
   10484:	00078613          	mv	a2,a5
   10488:	00000593          	li	a1,0
   1048c:	fbc42503          	lw	a0,-68(s0)
   10490:	00000297          	auipc	t0,0x0
   10494:	000280e7          	jalr	t0

00010498 <.LM42>:
   10498:	fc842703          	lw	a4,-56(s0)
   1049c:	fcc42783          	lw	a5,-52(s0)
   104a0:	00070693          	mv	a3,a4
   104a4:	fd042703          	lw	a4,-48(s0)
   104a8:	fd442783          	lw	a5,-44(s0)
   104ac:	00070793          	mv	a5,a4
   104b0:	40f687b3          	sub	a5,a3,a5
   104b4:	fef42423          	sw	a5,-24(s0)

000104b8 <.LM43>:
   104b8:	fd042703          	lw	a4,-48(s0)
   104bc:	fd442783          	lw	a5,-44(s0)
   104c0:	fb842783          	lw	a5,-72(s0)
   104c4:	40e787b3          	sub	a5,a5,a4
   104c8:	fef42223          	sw	a5,-28(s0)

000104cc <.LM44>:
   104cc:	fe842583          	lw	a1,-24(s0)
   104d0:	000007b7          	lui	a5,0x0
   104d4:	00078513          	mv	a0,a5
   104d8:	00000297          	auipc	t0,0x0
   104dc:	000280e7          	jalr	t0

000104e0 <.LM45>:
   104e0:	fb842783          	lw	a5,-72(s0)
   104e4:	fe842603          	lw	a2,-24(s0)
   104e8:	00000593          	li	a1,0
   104ec:	00078513          	mv	a0,a5
   104f0:	00000297          	auipc	t0,0x0
   104f4:	000280e7          	jalr	t0

000104f8 <.LM46>:
   104f8:	fe042623          	sw	zero,-20(s0)
   104fc:	0e80006f          	j	105e4 <.L18>

00010500 <.L21>:
   10500:	fec42783          	lw	a5,-20(s0)
   10504:	01079793          	slli	a5,a5,0x10
   10508:	0107d793          	srli	a5,a5,0x10
   1050c:	00078593          	mv	a1,a5
   10510:	fbc42503          	lw	a0,-68(s0)
   10514:	00000297          	auipc	t0,0x0
   10518:	000280e7          	jalr	t0
   1051c:	00050713          	mv	a4,a0
   10520:	00100793          	li	a5,1
   10524:	0af71863          	bne	a4,a5,105d4 <.L22>

00010528 <.LM48>:
   10528:	fec42783          	lw	a5,-20(s0)
   1052c:	01079793          	slli	a5,a5,0x10
   10530:	0107d793          	srli	a5,a5,0x10
   10534:	00078593          	mv	a1,a5
   10538:	fbc42503          	lw	a0,-68(s0)
   1053c:	00000297          	auipc	t0,0x0
   10540:	000280e7          	jalr	t0
   10544:	00050713          	mv	a4,a0
   10548:	00058793          	mv	a5,a1
   1054c:	fee42023          	sw	a4,-32(s0)

00010550 <.LM49>:
   10550:	fec42783          	lw	a5,-20(s0)
   10554:	01079793          	slli	a5,a5,0x10
   10558:	0107d793          	srli	a5,a5,0x10
   1055c:	00078593          	mv	a1,a5
   10560:	fbc42503          	lw	a0,-68(s0)
   10564:	00000297          	auipc	t0,0x0
   10568:	000280e7          	jalr	t0
   1056c:	00050713          	mv	a4,a0
   10570:	00058793          	mv	a5,a1
   10574:	fce42e23          	sw	a4,-36(s0)

00010578 <.LM50>:
   10578:	fec42783          	lw	a5,-20(s0)
   1057c:	01079793          	slli	a5,a5,0x10
   10580:	0107d793          	srli	a5,a5,0x10
   10584:	00078593          	mv	a1,a5
   10588:	fbc42503          	lw	a0,-68(s0)
   1058c:	00000297          	auipc	t0,0x0
   10590:	000280e7          	jalr	t0
   10594:	00050713          	mv	a4,a0
   10598:	00058793          	mv	a5,a1
   1059c:	fce42c23          	sw	a4,-40(s0)

000105a0 <.LM51>:
   105a0:	fe442703          	lw	a4,-28(s0)
   105a4:	fe042783          	lw	a5,-32(s0)
   105a8:	00f707b3          	add	a5,a4,a5
   105ac:	00078693          	mv	a3,a5
   105b0:	fbc42703          	lw	a4,-68(s0)
   105b4:	fd842783          	lw	a5,-40(s0)
   105b8:	00f707b3          	add	a5,a4,a5
   105bc:	fdc42603          	lw	a2,-36(s0)
   105c0:	00078593          	mv	a1,a5
   105c4:	00068513          	mv	a0,a3
   105c8:	00000297          	auipc	t0,0x0
   105cc:	000280e7          	jalr	t0
   105d0:	0080006f          	j	105d8 <.L20>

000105d4 <.L22>:
   105d4:	00000013          	nop

000105d8 <.L20>:
   105d8:	fec42783          	lw	a5,-20(s0)
   105dc:	00178793          	addi	a5,a5,1 # 1 <buf.1018+0x1>
   105e0:	fef42623          	sw	a5,-20(s0)

000105e4 <.L18>:
   105e4:	fbc42503          	lw	a0,-68(s0)
   105e8:	00000297          	auipc	t0,0x0
   105ec:	000280e7          	jalr	t0
   105f0:	00050793          	mv	a5,a0
   105f4:	00078713          	mv	a4,a5
   105f8:	fec42783          	lw	a5,-20(s0)
   105fc:	f0e7c2e3          	blt	a5,a4,10500 <.L21>

00010600 <.LM55>:
   10600:	00000013          	nop
   10604:	04c12083          	lw	ra,76(sp)
   10608:	04812403          	lw	s0,72(sp)
   1060c:	05010113          	addi	sp,sp,80
   10610:	00008067          	ret

00010614 <load_elf>:
   10614:	fb010113          	addi	sp,sp,-80
   10618:	04112623          	sw	ra,76(sp)
   1061c:	04812423          	sw	s0,72(sp)
   10620:	05212223          	sw	s2,68(sp)
   10624:	05312023          	sw	s3,64(sp)
   10628:	03412e23          	sw	s4,60(sp)
   1062c:	03512c23          	sw	s5,56(sp)
   10630:	03612a23          	sw	s6,52(sp)
   10634:	03712823          	sw	s7,48(sp)
   10638:	05010413          	addi	s0,sp,80
   1063c:	faa42e23          	sw	a0,-68(s0)
   10640:	fab42c23          	sw	a1,-72(s0)
   10644:	fac42a23          	sw	a2,-76(s0)
   10648:	fad42823          	sw	a3,-80(s0)

0001064c <.LM57>:
   1064c:	fc840713          	addi	a4,s0,-56
   10650:	fd040793          	addi	a5,s0,-48
   10654:	00070693          	mv	a3,a4
   10658:	00078613          	mv	a2,a5
   1065c:	00000593          	li	a1,0
   10660:	fb842503          	lw	a0,-72(s0)
   10664:	00000297          	auipc	t0,0x0
   10668:	000280e7          	jalr	t0

0001066c <.LM58>:
   1066c:	fd042603          	lw	a2,-48(s0)
   10670:	fd442683          	lw	a3,-44(s0)
   10674:	fc842703          	lw	a4,-56(s0)
   10678:	fcc42783          	lw	a5,-52(s0)
   1067c:	000005b7          	lui	a1,0x0
   10680:	00058513          	mv	a0,a1
   10684:	00000297          	auipc	t0,0x0
   10688:	000280e7          	jalr	t0

0001068c <.LM59>:
   1068c:	fc842603          	lw	a2,-56(s0)
   10690:	fcc42683          	lw	a3,-52(s0)
   10694:	fff00513          	li	a0,-1
   10698:	fff00593          	li	a1,-1
   1069c:	00a60733          	add	a4,a2,a0
   106a0:	00c73833          	sltu	a6,a4,a2
   106a4:	00b687b3          	add	a5,a3,a1
   106a8:	00f806b3          	add	a3,a6,a5
   106ac:	00068793          	mv	a5,a3
   106b0:	01479693          	slli	a3,a5,0x14
   106b4:	00c75913          	srli	s2,a4,0xc
   106b8:	0126e933          	or	s2,a3,s2
   106bc:	00c7d993          	srli	s3,a5,0xc
   106c0:	00100613          	li	a2,1
   106c4:	00000693          	li	a3,0
   106c8:	00c90733          	add	a4,s2,a2
   106cc:	012735b3          	sltu	a1,a4,s2
   106d0:	00d987b3          	add	a5,s3,a3
   106d4:	00f586b3          	add	a3,a1,a5
   106d8:	00068793          	mv	a5,a3
   106dc:	01475693          	srli	a3,a4,0x14
   106e0:	00c79a93          	slli	s5,a5,0xc
   106e4:	0156eab3          	or	s5,a3,s5
   106e8:	00c71a13          	slli	s4,a4,0xc
   106ec:	fd442423          	sw	s4,-56(s0)
   106f0:	fd542623          	sw	s5,-52(s0)

000106f4 <.LM60>:
   106f4:	fc842703          	lw	a4,-56(s0)
   106f8:	fcc42783          	lw	a5,-52(s0)
   106fc:	00070693          	mv	a3,a4
   10700:	fd042703          	lw	a4,-48(s0)
   10704:	fd442783          	lw	a5,-44(s0)
   10708:	00070793          	mv	a5,a4
   1070c:	40f687b3          	sub	a5,a3,a5
   10710:	fcf42e23          	sw	a5,-36(s0)

00010714 <.LM61>:
   10714:	fb442703          	lw	a4,-76(s0)
   10718:	000017b7          	lui	a5,0x1
   1071c:	fff78793          	addi	a5,a5,-1 # fff <.LASF2>
   10720:	00f777b3          	and	a5,a4,a5
   10724:	02078863          	beqz	a5,10754 <.L24>

00010728 <.LM62>:
   10728:	fb442583          	lw	a1,-76(s0)
   1072c:	000007b7          	lui	a5,0x0
   10730:	00078513          	mv	a0,a5
   10734:	00000297          	auipc	t0,0x0
   10738:	000280e7          	jalr	t0

0001073c <.LM63>:
   1073c:	000007b7          	lui	a5,0x0
   10740:	00078513          	mv	a0,a5
   10744:	00000297          	auipc	t0,0x0
   10748:	000280e7          	jalr	t0

0001074c <.LM64>:
   1074c:	00000297          	auipc	t0,0x0
   10750:	000280e7          	jalr	t0

00010754 <.L24>:
   10754:	fb442783          	lw	a5,-76(s0)
   10758:	0037f793          	andi	a5,a5,3
   1075c:	00078e63          	beqz	a5,10778 <.L25>

00010760 <.LM66>:
   10760:	000007b7          	lui	a5,0x0
   10764:	00078513          	mv	a0,a5
   10768:	00000297          	auipc	t0,0x0
   1076c:	000280e7          	jalr	t0

00010770 <.LM67>:
   10770:	00000297          	auipc	t0,0x0
   10774:	000280e7          	jalr	t0

00010778 <.L25>:
   10778:	fbc42583          	lw	a1,-68(s0)
   1077c:	000007b7          	lui	a5,0x0
   10780:	00078513          	mv	a0,a5
   10784:	00000297          	auipc	t0,0x0
   10788:	000280e7          	jalr	t0

0001078c <.LM69>:
   1078c:	fb442703          	lw	a4,-76(s0)
   10790:	fdc42783          	lw	a5,-36(s0)
   10794:	00f707b3          	add	a5,a4,a5
   10798:	fff78793          	addi	a5,a5,-1
   1079c:	00078613          	mv	a2,a5
   107a0:	fb442583          	lw	a1,-76(s0)
   107a4:	000007b7          	lui	a5,0x0
   107a8:	00078513          	mv	a0,a5
   107ac:	00000297          	auipc	t0,0x0
   107b0:	000280e7          	jalr	t0

000107b4 <.LM70>:
   107b4:	fd042703          	lw	a4,-48(s0)
   107b8:	fd442783          	lw	a5,-44(s0)
   107bc:	00070793          	mv	a5,a4
   107c0:	00078593          	mv	a1,a5
   107c4:	000007b7          	lui	a5,0x0
   107c8:	00078513          	mv	a0,a5
   107cc:	00000297          	auipc	t0,0x0
   107d0:	000280e7          	jalr	t0

000107d4 <.LM71>:
   107d4:	fd042703          	lw	a4,-48(s0)
   107d8:	fd442783          	lw	a5,-44(s0)
   107dc:	00070693          	mv	a3,a4
   107e0:	fc842703          	lw	a4,-56(s0)
   107e4:	fcc42783          	lw	a5,-52(s0)
   107e8:	00070793          	mv	a5,a4
   107ec:	fff78793          	addi	a5,a5,-1
   107f0:	00078613          	mv	a2,a5
   107f4:	00068593          	mv	a1,a3
   107f8:	000007b7          	lui	a5,0x0
   107fc:	00078513          	mv	a0,a5
   10800:	00000297          	auipc	t0,0x0
   10804:	000280e7          	jalr	t0

00010808 <.LM72>:
   10808:	fb842503          	lw	a0,-72(s0)
   1080c:	00000297          	auipc	t0,0x0
   10810:	000280e7          	jalr	t0
   10814:	00050713          	mv	a4,a0
   10818:	00058793          	mv	a5,a1
   1081c:	00070793          	mv	a5,a4
   10820:	00078593          	mv	a1,a5
   10824:	000007b7          	lui	a5,0x0
   10828:	00078513          	mv	a0,a5
   1082c:	00000297          	auipc	t0,0x0
   10830:	000280e7          	jalr	t0

00010834 <.LM73>:
   10834:	fb842503          	lw	a0,-72(s0)
   10838:	00000297          	auipc	t0,0x0
   1083c:	000280e7          	jalr	t0
   10840:	00050793          	mv	a5,a0
   10844:	02078063          	beqz	a5,10864 <.L26>

00010848 <.LM74>:
   10848:	fbc42583          	lw	a1,-68(s0)
   1084c:	000007b7          	lui	a5,0x0
   10850:	00078513          	mv	a0,a5
   10854:	00000297          	auipc	t0,0x0
   10858:	000280e7          	jalr	t0

0001085c <.LM75>:
   1085c:	00000297          	auipc	t0,0x0
   10860:	000280e7          	jalr	t0

00010864 <.L26>:
   10864:	fd042703          	lw	a4,-48(s0)
   10868:	fd442783          	lw	a5,-44(s0)
   1086c:	000016b7          	lui	a3,0x1
   10870:	fff68693          	addi	a3,a3,-1 # fff <.LASF2>
   10874:	00d77b33          	and	s6,a4,a3
   10878:	0007fb93          	andi	s7,a5,0
   1087c:	000b0793          	mv	a5,s6
   10880:	0177e7b3          	or	a5,a5,s7
   10884:	02078063          	beqz	a5,108a4 <.L27>

00010888 <.LM77>:
   10888:	fbc42583          	lw	a1,-68(s0)
   1088c:	000007b7          	lui	a5,0x0
   10890:	00078513          	mv	a0,a5
   10894:	00000297          	auipc	t0,0x0
   10898:	000280e7          	jalr	t0

0001089c <.LM78>:
   1089c:	00000297          	auipc	t0,0x0
   108a0:	000280e7          	jalr	t0

000108a4 <.L27>:
   108a4:	fb442703          	lw	a4,-76(s0)
   108a8:	fdc42783          	lw	a5,-36(s0)
   108ac:	00f707b3          	add	a5,a4,a5
   108b0:	00078593          	mv	a1,a5
   108b4:	fb442503          	lw	a0,-76(s0)
   108b8:	00000297          	auipc	t0,0x0
   108bc:	000280e7          	jalr	t0

000108c0 <.LM80>:
   108c0:	fb442583          	lw	a1,-76(s0)
   108c4:	fb842503          	lw	a0,-72(s0)
   108c8:	00000297          	auipc	t0,0x0
   108cc:	000280e7          	jalr	t0

000108d0 <.LM81>:
   108d0:	fb042783          	lw	a5,-80(s0)
   108d4:	fb442703          	lw	a4,-76(s0)
   108d8:	00e7a023          	sw	a4,0(a5) # 0 <buf.1018>

000108dc <.LM82>:
   108dc:	fb442703          	lw	a4,-76(s0)
   108e0:	fdc42783          	lw	a5,-36(s0)
   108e4:	00f70733          	add	a4,a4,a5
   108e8:	fb042783          	lw	a5,-80(s0)
   108ec:	00e7a223          	sw	a4,4(a5)

000108f0 <.LM83>:
   108f0:	fd042703          	lw	a4,-48(s0)
   108f4:	fd442783          	lw	a5,-44(s0)
   108f8:	fb042783          	lw	a5,-80(s0)
   108fc:	00e7a423          	sw	a4,8(a5)

00010900 <.LM84>:
   10900:	fc842703          	lw	a4,-56(s0)
   10904:	fcc42783          	lw	a5,-52(s0)
   10908:	fb042783          	lw	a5,-80(s0)
   1090c:	00e7a623          	sw	a4,12(a5)

00010910 <.LM85>:
   10910:	fb842503          	lw	a0,-72(s0)
   10914:	00000297          	auipc	t0,0x0
   10918:	000280e7          	jalr	t0
   1091c:	00050713          	mv	a4,a0
   10920:	00058793          	mv	a5,a1
   10924:	fb042783          	lw	a5,-80(s0)
   10928:	00e7a823          	sw	a4,16(a5)

0001092c <.LM86>:
   1092c:	fb042783          	lw	a5,-80(s0)
   10930:	0107a783          	lw	a5,16(a5)
   10934:	00078593          	mv	a1,a5
   10938:	000007b7          	lui	a5,0x0
   1093c:	00078513          	mv	a0,a5
   10940:	00000297          	auipc	t0,0x0
   10944:	000280e7          	jalr	t0

00010948 <.LM87>:
   10948:	fd042703          	lw	a4,-48(s0)
   1094c:	fd442783          	lw	a5,-44(s0)
   10950:	fb442783          	lw	a5,-76(s0)
   10954:	40e78733          	sub	a4,a5,a4
   10958:	fb042783          	lw	a5,-80(s0)
   1095c:	00e7aa23          	sw	a4,20(a5) # 14 <.LASF25+0x4>

00010960 <.LM88>:
   10960:	fb442703          	lw	a4,-76(s0)
   10964:	fdc42783          	lw	a5,-36(s0)
   10968:	00f707b3          	add	a5,a4,a5
   1096c:	fff78793          	addi	a5,a5,-1
   10970:	00c7d793          	srli	a5,a5,0xc
   10974:	00178793          	addi	a5,a5,1
   10978:	00c79793          	slli	a5,a5,0xc

0001097c <.LM89>:
   1097c:	00078513          	mv	a0,a5
   10980:	04c12083          	lw	ra,76(sp)
   10984:	04812403          	lw	s0,72(sp)
   10988:	04412903          	lw	s2,68(sp)
   1098c:	04012983          	lw	s3,64(sp)
   10990:	03c12a03          	lw	s4,60(sp)
   10994:	03812a83          	lw	s5,56(sp)
   10998:	03412b03          	lw	s6,52(sp)
   1099c:	03012b83          	lw	s7,48(sp)
   109a0:	05010113          	addi	sp,sp,80
   109a4:	00008067          	ret

000109a8 <load_images>:
   109a8:	fb010113          	addi	sp,sp,-80
   109ac:	04112623          	sw	ra,76(sp)
   109b0:	04812423          	sw	s0,72(sp)
   109b4:	05010413          	addi	s0,sp,80
   109b8:	faa42e23          	sw	a0,-68(s0)
   109bc:	fab42c23          	sw	a1,-72(s0)
   109c0:	fac42a23          	sw	a2,-76(s0)
   109c4:	fad42823          	sw	a3,-80(s0)

000109c8 <.LM91>:
   109c8:	fc840793          	addi	a5,s0,-56
   109cc:	00078613          	mv	a2,a5
   109d0:	000007b7          	lui	a5,0x0
   109d4:	00078593          	mv	a1,a5
   109d8:	000007b7          	lui	a5,0x0
   109dc:	00078513          	mv	a0,a5
   109e0:	00000297          	auipc	t0,0x0
   109e4:	000280e7          	jalr	t0
   109e8:	fea42223          	sw	a0,-28(s0)

000109ec <.LM92>:
   109ec:	fe442783          	lw	a5,-28(s0)
   109f0:	00079e63          	bnez	a5,10a0c <.L31>

000109f4 <.LM93>:
   109f4:	000007b7          	lui	a5,0x0
   109f8:	00078513          	mv	a0,a5
   109fc:	00000297          	auipc	t0,0x0
   10a00:	000280e7          	jalr	t0

00010a04 <.LM94>:
   10a04:	00000297          	auipc	t0,0x0
   10a08:	000280e7          	jalr	t0

00010a0c <.L31>:
   10a0c:	fe442503          	lw	a0,-28(s0)
   10a10:	00000297          	auipc	t0,0x0
   10a14:	000280e7          	jalr	t0
   10a18:	00050793          	mv	a5,a0
   10a1c:	00078e63          	beqz	a5,10a38 <.L32>

00010a20 <.LM96>:
   10a20:	000007b7          	lui	a5,0x0
   10a24:	00078513          	mv	a0,a5
   10a28:	00000297          	auipc	t0,0x0
   10a2c:	000280e7          	jalr	t0

00010a30 <.LM97>:
   10a30:	00000297          	auipc	t0,0x0
   10a34:	000280e7          	jalr	t0

00010a38 <.L32>:
   10a38:	000007b7          	lui	a5,0x0
   10a3c:	fe442703          	lw	a4,-28(s0)
   10a40:	00e7a023          	sw	a4,0(a5) # 0 <buf.1018>

00010a44 <.LM99>:
   10a44:	fd040713          	addi	a4,s0,-48
   10a48:	fd840793          	addi	a5,s0,-40
   10a4c:	00070693          	mv	a3,a4
   10a50:	00078613          	mv	a2,a5
   10a54:	00100593          	li	a1,1
   10a58:	fe442503          	lw	a0,-28(s0)
   10a5c:	00000297          	auipc	t0,0x0
   10a60:	000280e7          	jalr	t0

00010a64 <.LM100>:
   10a64:	fd042603          	lw	a2,-48(s0)
   10a68:	fd442683          	lw	a3,-44(s0)
   10a6c:	fd842503          	lw	a0,-40(s0)
   10a70:	fdc42583          	lw	a1,-36(s0)
   10a74:	40a60733          	sub	a4,a2,a0
   10a78:	00e63833          	sltu	a6,a2,a4
   10a7c:	40b687b3          	sub	a5,a3,a1
   10a80:	410786b3          	sub	a3,a5,a6
   10a84:	00068793          	mv	a5,a3
   10a88:	00070613          	mv	a2,a4
   10a8c:	00078693          	mv	a3,a5
   10a90:	01000537          	lui	a0,0x1000
   10a94:	00000593          	li	a1,0
   10a98:	00a60733          	add	a4,a2,a0
   10a9c:	00c73833          	sltu	a6,a4,a2
   10aa0:	00b687b3          	add	a5,a3,a1
   10aa4:	00f806b3          	add	a3,a6,a5
   10aa8:	00068793          	mv	a5,a3
   10aac:	fce42823          	sw	a4,-48(s0)
   10ab0:	fcf42a23          	sw	a5,-44(s0)

00010ab4 <.LM101>:
   10ab4:	01000737          	lui	a4,0x1000
   10ab8:	00000793          	li	a5,0
   10abc:	fce42c23          	sw	a4,-40(s0)
   10ac0:	fcf42e23          	sw	a5,-36(s0)

00010ac4 <.LM102>:
   10ac4:	fd842703          	lw	a4,-40(s0)
   10ac8:	fdc42783          	lw	a5,-36(s0)
   10acc:	00070793          	mv	a5,a4
   10ad0:	fbc42683          	lw	a3,-68(s0)
   10ad4:	00078613          	mv	a2,a5
   10ad8:	fe442583          	lw	a1,-28(s0)
   10adc:	000007b7          	lui	a5,0x0
   10ae0:	00078513          	mv	a0,a5
   10ae4:	00000297          	auipc	t0,0x0
   10ae8:	000280e7          	jalr	t0
   10aec:	fea42423          	sw	a0,-24(s0)

00010af0 <.LM103>:
   10af0:	fc840713          	addi	a4,s0,-56
   10af4:	fcc40793          	addi	a5,s0,-52
   10af8:	00070693          	mv	a3,a4
   10afc:	00078613          	mv	a2,a5
   10b00:	00000593          	li	a1,0
   10b04:	000007b7          	lui	a5,0x0
   10b08:	00078513          	mv	a0,a5
   10b0c:	00000297          	auipc	t0,0x0
   10b10:	000280e7          	jalr	t0

00010b14 <.LM104>:
   10b14:	fcc42703          	lw	a4,-52(s0)
   10b18:	000007b7          	lui	a5,0x0
   10b1c:	00078593          	mv	a1,a5
   10b20:	00070513          	mv	a0,a4
   10b24:	00000297          	auipc	t0,0x0
   10b28:	000280e7          	jalr	t0
   10b2c:	00050793          	mv	a5,a0
   10b30:	00078e63          	beqz	a5,10b4c <.L33>

00010b34 <.LM105>:
   10b34:	000007b7          	lui	a5,0x0
   10b38:	00078513          	mv	a0,a5
   10b3c:	00000297          	auipc	t0,0x0
   10b40:	000280e7          	jalr	t0

00010b44 <.LM106>:
   10b44:	00000297          	auipc	t0,0x0
   10b48:	000280e7          	jalr	t0

00010b4c <.L33>:
   10b4c:	fb042783          	lw	a5,-80(s0)
   10b50:	0007a023          	sw	zero,0(a5) # 0 <buf.1018>

00010b54 <.LM108>:
   10b54:	fe042623          	sw	zero,-20(s0)
   10b58:	08c0006f          	j	10be4 <.L34>

00010b5c <.L37>:
   10b5c:	fec42783          	lw	a5,-20(s0)
   10b60:	00178793          	addi	a5,a5,1
   10b64:	fc840693          	addi	a3,s0,-56
   10b68:	fcc40713          	addi	a4,s0,-52
   10b6c:	00070613          	mv	a2,a4
   10b70:	00078593          	mv	a1,a5
   10b74:	000007b7          	lui	a5,0x0
   10b78:	00078513          	mv	a0,a5
   10b7c:	00000297          	auipc	t0,0x0
   10b80:	000280e7          	jalr	t0
   10b84:	fea42023          	sw	a0,-32(s0)

00010b88 <.LM110>:
   10b88:	fe042783          	lw	a5,-32(s0)
   10b8c:	06078463          	beqz	a5,10bf4 <.L38>

00010b90 <.LM111>:
   10b90:	fcc42503          	lw	a0,-52(s0)

00010b94 <.LM112>:
   10b94:	fb042783          	lw	a5,-80(s0)
   10b98:	0007a783          	lw	a5,0(a5) # 0 <buf.1018>
   10b9c:	00379793          	slli	a5,a5,0x3
   10ba0:	00279713          	slli	a4,a5,0x2
   10ba4:	40f707b3          	sub	a5,a4,a5

00010ba8 <.LM113>:
   10ba8:	fb842703          	lw	a4,-72(s0)
   10bac:	00f707b3          	add	a5,a4,a5
   10bb0:	00078693          	mv	a3,a5
   10bb4:	fe842603          	lw	a2,-24(s0)
   10bb8:	fe042583          	lw	a1,-32(s0)
   10bbc:	00000297          	auipc	t0,0x0
   10bc0:	000280e7          	jalr	t0
   10bc4:	fea42423          	sw	a0,-24(s0)

00010bc8 <.LM114>:
   10bc8:	fec42783          	lw	a5,-20(s0)
   10bcc:	00178713          	addi	a4,a5,1
   10bd0:	fb042783          	lw	a5,-80(s0)
   10bd4:	00e7a023          	sw	a4,0(a5)

00010bd8 <.LBE8>:
   10bd8:	fec42783          	lw	a5,-20(s0)
   10bdc:	00178793          	addi	a5,a5,1
   10be0:	fef42623          	sw	a5,-20(s0)

00010be4 <.L34>:
   10be4:	fec42703          	lw	a4,-20(s0)
   10be8:	fb442783          	lw	a5,-76(s0)
   10bec:	f6f748e3          	blt	a4,a5,10b5c <.L37>

00010bf0 <.LM117>:
   10bf0:	0080006f          	j	10bf8 <.L36>

00010bf4 <.L38>:
   10bf4:	00000013          	nop

00010bf8 <.L36>:
   10bf8:	00000013          	nop
   10bfc:	04c12083          	lw	ra,76(sp)
   10c00:	04812403          	lw	s0,72(sp)
   10c04:	05010113          	addi	sp,sp,80
   10c08:	00008067          	ret

00010c0c <boot_secondary_processor>:
   10c0c:	f7010113          	addi	sp,sp,-144
   10c10:	08112623          	sw	ra,140(sp)
   10c14:	08812423          	sw	s0,136(sp)
   10c18:	09212223          	sw	s2,132(sp)
   10c1c:	09312023          	sw	s3,128(sp)
   10c20:	07412e23          	sw	s4,124(sp)
   10c24:	07512c23          	sw	s5,120(sp)
   10c28:	09010413          	addi	s0,sp,144
   10c2c:	f6a42e23          	sw	a0,-132(s0)

00010c30 <.LM121>:
   10c30:	fc042c23          	sw	zero,-40(s0)

00010c34 <.LM122>:
   10c34:	fc042a23          	sw	zero,-44(s0)

00010c38 <.LM123>:
   10c38:	f00007b7          	lui	a5,0xf0000
   10c3c:	0007a023          	sw	zero,0(a5) # f0000000 <.L0 +0xeffebd50>

00010c40 <.LM124>:
   10c40:	00000013          	nop

00010c44 <.L40>:
   10c44:	f00007b7          	lui	a5,0xf0000
   10c48:	0007a783          	lw	a5,0(a5) # f0000000 <.L0 +0xeffebd50>
   10c4c:	fe078ce3          	beqz	a5,10c44 <.L40>

00010c50 <.L41>:
   10c50:	f7c42703          	lw	a4,-132(s0)
   10c54:	00200793          	li	a5,2
   10c58:	fef70ce3          	beq	a4,a5,10c50 <.L41>

00010c5c <.LM127>:
   10c5c:	f7c42583          	lw	a1,-132(s0)
   10c60:	000007b7          	lui	a5,0x0
   10c64:	00078513          	mv	a0,a5
   10c68:	00000297          	auipc	t0,0x0
   10c6c:	000280e7          	jalr	t0

00010c70 <.LM128>:
   10c70:	f7c42703          	lw	a4,-132(s0)
   10c74:	00100793          	li	a5,1
   10c78:	00f71863          	bne	a4,a5,10c88 <.L42>

00010c7c <.LM129>:
   10c7c:	000007b7          	lui	a5,0x0
   10c80:	00078793          	mv	a5,a5
   10c84:	00c0006f          	j	10c90 <.L43>

00010c88 <.L42>:
   10c88:	000007b7          	lui	a5,0x0
   10c8c:	00078793          	mv	a5,a5

00010c90 <.L43>:
   10c90:	f8040713          	addi	a4,s0,-128
   10c94:	00070613          	mv	a2,a4
   10c98:	00078593          	mv	a1,a5
   10c9c:	000007b7          	lui	a5,0x0
   10ca0:	00078513          	mv	a0,a5
   10ca4:	00000297          	auipc	t0,0x0
   10ca8:	000280e7          	jalr	t0
   10cac:	fca42823          	sw	a0,-48(s0)

00010cb0 <.LM132>:
   10cb0:	fd042783          	lw	a5,-48(s0)
   10cb4:	00079e63          	bnez	a5,10cd0 <.L44>

00010cb8 <.LM133>:
   10cb8:	000007b7          	lui	a5,0x0
   10cbc:	00078513          	mv	a0,a5
   10cc0:	00000297          	auipc	t0,0x0
   10cc4:	000280e7          	jalr	t0

00010cc8 <.LM134>:
   10cc8:	00000297          	auipc	t0,0x0
   10ccc:	000280e7          	jalr	t0

00010cd0 <.L44>:
   10cd0:	fd042503          	lw	a0,-48(s0)
   10cd4:	00000297          	auipc	t0,0x0
   10cd8:	000280e7          	jalr	t0
   10cdc:	00050793          	mv	a5,a0
   10ce0:	00078e63          	beqz	a5,10cfc <.L45>

00010ce4 <.LM136>:
   10ce4:	000007b7          	lui	a5,0x0
   10ce8:	00078513          	mv	a0,a5
   10cec:	00000297          	auipc	t0,0x0
   10cf0:	000280e7          	jalr	t0

00010cf4 <.LM137>:
   10cf4:	00000297          	auipc	t0,0x0
   10cf8:	000280e7          	jalr	t0

00010cfc <.L45>:
   10cfc:	f7c42703          	lw	a4,-132(s0)
   10d00:	00100793          	li	a5,1
   10d04:	00f71a63          	bne	a4,a5,10d18 <.L46>

00010d08 <.LM139>:
   10d08:	f00007b7          	lui	a5,0xf0000
   10d0c:	00478793          	addi	a5,a5,4 # f0000004 <.L0 +0xeffebd54>
   10d10:	0007a783          	lw	a5,0(a5)
   10d14:	0100006f          	j	10d24 <.L47>

00010d18 <.L46>:
   10d18:	f00007b7          	lui	a5,0xf0000
   10d1c:	01078793          	addi	a5,a5,16 # f0000010 <.L0 +0xeffebd60>
   10d20:	0007a783          	lw	a5,0(a5)

00010d24 <.L47>:
   10d24:	fcf42c23          	sw	a5,-40(s0)

00010d28 <.LM142>:
   10d28:	f7c42703          	lw	a4,-132(s0)
   10d2c:	00100793          	li	a5,1
   10d30:	00f71a63          	bne	a4,a5,10d44 <.L48>

00010d34 <.LM143>:
   10d34:	f00007b7          	lui	a5,0xf0000
   10d38:	00878793          	addi	a5,a5,8 # f0000008 <.L0 +0xeffebd58>
   10d3c:	0007a783          	lw	a5,0(a5)
   10d40:	0100006f          	j	10d50 <.L49>

00010d44 <.L48>:
   10d44:	f00007b7          	lui	a5,0xf0000
   10d48:	01478793          	addi	a5,a5,20 # f0000014 <.L0 +0xeffebd64>
   10d4c:	0007a783          	lw	a5,0(a5)

00010d50 <.L49>:
   10d50:	fcf42a23          	sw	a5,-44(s0)

00010d54 <.LM146>:
   10d54:	fd842583          	lw	a1,-40(s0)
   10d58:	000007b7          	lui	a5,0x0
   10d5c:	00078513          	mv	a0,a5
   10d60:	00000297          	auipc	t0,0x0
   10d64:	000280e7          	jalr	t0

00010d68 <.LM147>:
   10d68:	fd442583          	lw	a1,-44(s0)
   10d6c:	000007b7          	lui	a5,0x0
   10d70:	00078513          	mv	a0,a5
   10d74:	00000297          	auipc	t0,0x0
   10d78:	000280e7          	jalr	t0

00010d7c <.LM148>:
   10d7c:	f8840713          	addi	a4,s0,-120
   10d80:	f9040793          	addi	a5,s0,-112
   10d84:	00070693          	mv	a3,a4
   10d88:	00078613          	mv	a2,a5
   10d8c:	00100593          	li	a1,1
   10d90:	fd042503          	lw	a0,-48(s0)
   10d94:	00000297          	auipc	t0,0x0
   10d98:	000280e7          	jalr	t0

00010d9c <.LM149>:
   10d9c:	fd442783          	lw	a5,-44(s0)
   10da0:	00078913          	mv	s2,a5
   10da4:	00000993          	li	s3,0
   10da8:	f8842603          	lw	a2,-120(s0)
   10dac:	f8c42683          	lw	a3,-116(s0)
   10db0:	00c90733          	add	a4,s2,a2
   10db4:	012735b3          	sltu	a1,a4,s2
   10db8:	00d987b3          	add	a5,s3,a3
   10dbc:	00f586b3          	add	a3,a1,a5
   10dc0:	00068793          	mv	a5,a3
   10dc4:	00070613          	mv	a2,a4
   10dc8:	00078693          	mv	a3,a5
   10dcc:	f9042503          	lw	a0,-112(s0)
   10dd0:	f9442583          	lw	a1,-108(s0)
   10dd4:	40a60733          	sub	a4,a2,a0
   10dd8:	00e63833          	sltu	a6,a2,a4
   10ddc:	40b687b3          	sub	a5,a3,a1
   10de0:	410786b3          	sub	a3,a5,a6
   10de4:	00068793          	mv	a5,a3
   10de8:	f8e42423          	sw	a4,-120(s0)
   10dec:	f8f42623          	sw	a5,-116(s0)

00010df0 <.LM150>:
   10df0:	fd442783          	lw	a5,-44(s0)
   10df4:	00078a13          	mv	s4,a5
   10df8:	00000a93          	li	s5,0
   10dfc:	f9442823          	sw	s4,-112(s0)
   10e00:	f9542a23          	sw	s5,-108(s0)

00010e04 <.LM151>:
   10e04:	f9042703          	lw	a4,-112(s0)
   10e08:	f9442783          	lw	a5,-108(s0)
   10e0c:	f9840793          	addi	a5,s0,-104
   10e10:	00078693          	mv	a3,a5
   10e14:	00070613          	mv	a2,a4
   10e18:	fd042583          	lw	a1,-48(s0)
   10e1c:	000007b7          	lui	a5,0x0
   10e20:	00078513          	mv	a0,a5
   10e24:	00000297          	auipc	t0,0x0
   10e28:	000280e7          	jalr	t0
   10e2c:	fca42623          	sw	a0,-52(s0)

00010e30 <.LM152>:
   10e30:	f7c42703          	lw	a4,-132(s0)
   10e34:	00100793          	li	a5,1
   10e38:	00f71663          	bne	a4,a5,10e44 <.L50>

00010e3c <.LM153>:
   10e3c:	00200793          	li	a5,2
   10e40:	0080006f          	j	10e48 <.L51>

00010e44 <.L50>:
   10e44:	00300793          	li	a5,3

00010e48 <.L51>:
   10e48:	f8040693          	addi	a3,s0,-128
   10e4c:	f8440713          	addi	a4,s0,-124
   10e50:	00070613          	mv	a2,a4
   10e54:	00078593          	mv	a1,a5
   10e58:	000007b7          	lui	a5,0x0
   10e5c:	00078513          	mv	a0,a5
   10e60:	00000297          	auipc	t0,0x0
   10e64:	000280e7          	jalr	t0

00010e68 <.LM156>:
   10e68:	f8442683          	lw	a3,-124(s0)
   10e6c:	f7c42703          	lw	a4,-132(s0)
   10e70:	00100793          	li	a5,1
   10e74:	00f71863          	bne	a4,a5,10e84 <.L52>

00010e78 <.LM157>:
   10e78:	000007b7          	lui	a5,0x0
   10e7c:	00078793          	mv	a5,a5
   10e80:	00c0006f          	j	10e8c <.L53>

00010e84 <.L52>:
   10e84:	000007b7          	lui	a5,0x0
   10e88:	00078793          	mv	a5,a5

00010e8c <.L53>:
   10e8c:	00078593          	mv	a1,a5
   10e90:	00068513          	mv	a0,a3
   10e94:	00000297          	auipc	t0,0x0
   10e98:	000280e7          	jalr	t0
   10e9c:	00050793          	mv	a5,a0
   10ea0:	00078e63          	beqz	a5,10ebc <.L54>

00010ea4 <.LM160>:
   10ea4:	000007b7          	lui	a5,0x0
   10ea8:	00078513          	mv	a0,a5
   10eac:	00000297          	auipc	t0,0x0
   10eb0:	000280e7          	jalr	t0

00010eb4 <.LM161>:
   10eb4:	00000297          	auipc	t0,0x0
   10eb8:	000280e7          	jalr	t0

00010ebc <.L54>:
   10ebc:	fcc42583          	lw	a1,-52(s0)
   10ec0:	000007b7          	lui	a5,0x0
   10ec4:	00078513          	mv	a0,a5
   10ec8:	00000297          	auipc	t0,0x0
   10ecc:	000280e7          	jalr	t0

00010ed0 <.LM163>:
   10ed0:	f9842783          	lw	a5,-104(s0)
   10ed4:	0167d793          	srli	a5,a5,0x16
   10ed8:	fcf42423          	sw	a5,-56(s0)

00010edc <.LM164>:
   10edc:	00400793          	li	a5,4
   10ee0:	fcf42223          	sw	a5,-60(s0)

00010ee4 <.LM165>:
   10ee4:	fc842583          	lw	a1,-56(s0)
   10ee8:	000007b7          	lui	a5,0x0
   10eec:	00078513          	mv	a0,a5
   10ef0:	00000297          	auipc	t0,0x0
   10ef4:	000280e7          	jalr	t0

00010ef8 <.LM166>:
   10ef8:	fc042e23          	sw	zero,-36(s0)
   10efc:	0340006f          	j	10f30 <.L55>

00010f00 <.L56>:
   10f00:	fdc42783          	lw	a5,-36(s0)
   10f04:	00279713          	slli	a4,a5,0x2
   10f08:	fd842783          	lw	a5,-40(s0)
   10f0c:	00f707b3          	add	a5,a4,a5
   10f10:	00078713          	mv	a4,a5
   10f14:	fdc42783          	lw	a5,-36(s0)
   10f18:	01479793          	slli	a5,a5,0x14
   10f1c:	0177e793          	ori	a5,a5,23
   10f20:	00f72023          	sw	a5,0(a4) # 1000000 <.L0 +0xfebd50>

00010f24 <.LM168>:
   10f24:	fdc42783          	lw	a5,-36(s0)
   10f28:	00178793          	addi	a5,a5,1 # 1 <buf.1018+0x1>
   10f2c:	fcf42e23          	sw	a5,-36(s0)

00010f30 <.L55>:
   10f30:	fdc42703          	lw	a4,-36(s0)
   10f34:	fc442783          	lw	a5,-60(s0)
   10f38:	fcf764e3          	bltu	a4,a5,10f00 <.L56>

00010f3c <.LM170>:
   10f3c:	fd842783          	lw	a5,-40(s0)
   10f40:	18079073          	csrw	sptbr,a5

00010f44 <.LBB10>:
   10f44:	300467f3          	csrrs	a5,mstatus,8
   10f48:	fcf42023          	sw	a5,-64(s0)

00010f4c <.LBB11>:
   10f4c:	03000793          	li	a5,48
   10f50:	3007a7f3          	csrrs	a5,mstatus,a5
   10f54:	faf42e23          	sw	a5,-68(s0)

00010f58 <.LBB12>:
   10f58:	003e07b7          	lui	a5,0x3e0
   10f5c:	3007b7f3          	csrrc	a5,mstatus,a5
   10f60:	faf42c23          	sw	a5,-72(s0)

00010f64 <.LBB13>:
   10f64:	001007b7          	lui	a5,0x100
   10f68:	3007a7f3          	csrrs	a5,mstatus,a5
   10f6c:	faf42a23          	sw	a5,-76(s0)

00010f70 <.LBB14>:
   10f70:	300277f3          	csrrc	a5,mstatus,4
   10f74:	faf42823          	sw	a5,-80(s0)

00010f78 <.LBE14>:
   10f78:	000007b7          	lui	a5,0x0
   10f7c:	00078513          	mv	a0,a5
   10f80:	00000297          	auipc	t0,0x0
   10f84:	000280e7          	jalr	t0

00010f88 <.LM177>:
   10f88:	000007b7          	lui	a5,0x0
   10f8c:	00078513          	mv	a0,a5
   10f90:	00000297          	auipc	t0,0x0
   10f94:	000280e7          	jalr	t0

00010f98 <.LM178>:
   10f98:	fa842783          	lw	a5,-88(s0)
   10f9c:	00000713          	li	a4,0
   10fa0:	00000693          	li	a3,0
   10fa4:	00000613          	li	a2,0
   10fa8:	00000593          	li	a1,0
   10fac:	00000513          	li	a0,0
   10fb0:	000780e7          	jalr	a5

00010fb4 <.L57>:
   10fb4:	0000006f          	j	10fb4 <.L57>

00010fb8 <main>:
   10fb8:	fe010113          	addi	sp,sp,-32
   10fbc:	00112e23          	sw	ra,28(sp)
   10fc0:	00812c23          	sw	s0,24(sp)
   10fc4:	02010413          	addi	s0,sp,32

00010fc8 <.LM181>:
   10fc8:	fe042623          	sw	zero,-20(s0)

00010fcc <.LM182>:
   10fcc:	000007b7          	lui	a5,0x0
   10fd0:	00078513          	mv	a0,a5
   10fd4:	00000297          	auipc	t0,0x0
   10fd8:	000280e7          	jalr	t0

00010fdc <.LM183>:
   10fdc:	00000297          	auipc	t0,0x0
   10fe0:	000280e7          	jalr	t0

00010fe4 <.LM184>:
   10fe4:	000007b7          	lui	a5,0x0
   10fe8:	00078793          	mv	a5,a5
   10fec:	00078613          	mv	a2,a5
   10ff0:	000007b7          	lui	a5,0x0
   10ff4:	00078593          	mv	a1,a5
   10ff8:	000007b7          	lui	a5,0x0
   10ffc:	00078513          	mv	a0,a5
   11000:	00000297          	auipc	t0,0x0
   11004:	000280e7          	jalr	t0

00011008 <.LM185>:
   11008:	fec40793          	addi	a5,s0,-20
   1100c:	00078693          	mv	a3,a5
   11010:	00100613          	li	a2,1
   11014:	000007b7          	lui	a5,0x0
   11018:	00078593          	mv	a1,a5
   1101c:	000007b7          	lui	a5,0x0
   11020:	00078513          	mv	a0,a5
   11024:	00000297          	auipc	t0,0x0
   11028:	000280e7          	jalr	t0

0001102c <.LM186>:
   1102c:	fec42703          	lw	a4,-20(s0)
   11030:	00100793          	li	a5,1
   11034:	00f70e63          	beq	a4,a5,11050 <.L59>

00011038 <.LM187>:
   11038:	000007b7          	lui	a5,0x0
   1103c:	00078513          	mv	a0,a5
   11040:	00000297          	auipc	t0,0x0
   11044:	000280e7          	jalr	t0

00011048 <.LM188>:
   11048:	00000297          	auipc	t0,0x0
   1104c:	000280e7          	jalr	t0

00011050 <.L59>:
   11050:	000007b7          	lui	a5,0x0
   11054:	0007a783          	lw	a5,0(a5) # 0 <buf.1018>
   11058:	00078593          	mv	a1,a5
   1105c:	000007b7          	lui	a5,0x0
   11060:	00078513          	mv	a0,a5
   11064:	00000297          	auipc	t0,0x0
   11068:	000280e7          	jalr	t0

0001106c <.LM190>:
   1106c:	000007b7          	lui	a5,0x0
   11070:	00078793          	mv	a5,a5
   11074:	0107a783          	lw	a5,16(a5) # 10 <.LASF25>
   11078:	00078593          	mv	a1,a5
   1107c:	000007b7          	lui	a5,0x0
   11080:	00078513          	mv	a0,a5
   11084:	00000297          	auipc	t0,0x0
   11088:	000280e7          	jalr	t0

0001108c <.LM191>:
   1108c:	000007b7          	lui	a5,0x0
   11090:	00078793          	mv	a5,a5
   11094:	0147a783          	lw	a5,20(a5) # 14 <.LASF25+0x4>
   11098:	00078593          	mv	a1,a5
   1109c:	000007b7          	lui	a5,0x0
   110a0:	00078513          	mv	a0,a5
   110a4:	00000297          	auipc	t0,0x0
   110a8:	000280e7          	jalr	t0

000110ac <.LM192>:
   110ac:	000007b7          	lui	a5,0x0
   110b0:	00078513          	mv	a0,a5
   110b4:	00000297          	auipc	t0,0x0
   110b8:	000280e7          	jalr	t0

000110bc <.LM193>:
   110bc:	000007b7          	lui	a5,0x0
   110c0:	00078513          	mv	a0,a5
   110c4:	00000297          	auipc	t0,0x0
   110c8:	000280e7          	jalr	t0

000110cc <.LM194>:
   110cc:	000007b7          	lui	a5,0x0
   110d0:	00078793          	mv	a5,a5
   110d4:	0107a783          	lw	a5,16(a5) # 10 <.LASF25>
   110d8:	00078813          	mv	a6,a5
   110dc:	000007b7          	lui	a5,0x0
   110e0:	0007a503          	lw	a0,0(a5) # 0 <buf.1018>
   110e4:	000007b7          	lui	a5,0x0
   110e8:	00078793          	mv	a5,a5
   110ec:	0047a583          	lw	a1,4(a5) # 4 <buf.1018+0x4>

000110f0 <.LM195>:
   110f0:	000007b7          	lui	a5,0x0
   110f4:	00078793          	mv	a5,a5
   110f8:	0147a783          	lw	a5,20(a5) # 14 <.LASF25+0x4>

000110fc <.LM196>:
   110fc:	00078613          	mv	a2,a5
   11100:	000007b7          	lui	a5,0x0
   11104:	00078793          	mv	a5,a5
   11108:	0107a683          	lw	a3,16(a5) # 10 <.LASF25>
   1110c:	000007b7          	lui	a5,0x0
   11110:	0007a783          	lw	a5,0(a5) # 0 <buf.1018>
   11114:	00078713          	mv	a4,a5
   11118:	000800e7          	jalr	a6

0001111c <.LM197>:
   1111c:	000007b7          	lui	a5,0x0
   11120:	00078513          	mv	a0,a5
   11124:	00000297          	auipc	t0,0x0
   11128:	000280e7          	jalr	t0

0001112c <.LM198>:
   1112c:	00000013          	nop
   11130:	01c12083          	lw	ra,28(sp)
   11134:	01812403          	lw	s0,24(sp)
   11138:	02010113          	addi	sp,sp,32
   1113c:	00008067          	ret

00011140 <abort>:
   11140:	ff010113          	addi	sp,sp,-16
   11144:	00112623          	sw	ra,12(sp)
   11148:	00812423          	sw	s0,8(sp)
   1114c:	01010413          	addi	s0,sp,16

00011150 <.LM2>:
   11150:	000007b7          	lui	a5,0x0
   11154:	00078513          	mv	a0,a5
   11158:	00000297          	auipc	t0,0x0
   1115c:	000280e7          	jalr	t0

00011160 <.L2>:
   11160:	0000006f          	j	11160 <.L2>

00011164 <write_string>:
   11164:	fd010113          	addi	sp,sp,-48
   11168:	02112623          	sw	ra,44(sp)
   1116c:	02812423          	sw	s0,40(sp)
   11170:	03010413          	addi	s0,sp,48
   11174:	fca42e23          	sw	a0,-36(s0)
   11178:	fcb42c23          	sw	a1,-40(s0)
   1117c:	fcc42a23          	sw	a2,-44(s0)

00011180 <.LM2>:
   11180:	fe042623          	sw	zero,-20(s0)
   11184:	0340006f          	j	111b8 <.L2>

00011188 <.L3>:
   11188:	fec42783          	lw	a5,-20(s0)
   1118c:	fd442703          	lw	a4,-44(s0)
   11190:	00f707b3          	add	a5,a4,a5
   11194:	0007c783          	lbu	a5,0(a5) # 0 <buf.1018>
   11198:	00078713          	mv	a4,a5
   1119c:	fdc42783          	lw	a5,-36(s0)
   111a0:	00070593          	mv	a1,a4
   111a4:	fd842503          	lw	a0,-40(s0)
   111a8:	000780e7          	jalr	a5

000111ac <.LM4>:
   111ac:	fec42783          	lw	a5,-20(s0)
   111b0:	00178793          	addi	a5,a5,1
   111b4:	fef42623          	sw	a5,-20(s0)

000111b8 <.L2>:
   111b8:	fec42783          	lw	a5,-20(s0)
   111bc:	fd442703          	lw	a4,-44(s0)
   111c0:	00f707b3          	add	a5,a4,a5
   111c4:	0007c783          	lbu	a5,0(a5)
   111c8:	fc0790e3          	bnez	a5,11188 <.L3>

000111cc <.LM6>:
   111cc:	00000013          	nop
   111d0:	02c12083          	lw	ra,44(sp)
   111d4:	02812403          	lw	s0,40(sp)
   111d8:	03010113          	addi	sp,sp,48
   111dc:	00008067          	ret

000111e0 <write_num>:
   111e0:	f8010113          	addi	sp,sp,-128
   111e4:	06112e23          	sw	ra,124(sp)
   111e8:	06812c23          	sw	s0,120(sp)
   111ec:	08010413          	addi	s0,sp,128
   111f0:	f8a42623          	sw	a0,-116(s0)
   111f4:	f8b42423          	sw	a1,-120(s0)
   111f8:	f8c42223          	sw	a2,-124(s0)
   111fc:	f8d42023          	sw	a3,-128(s0)

00011200 <.LM8>:
   11200:	04f00793          	li	a5,79
   11204:	fef42623          	sw	a5,-20(s0)

00011208 <.LM9>:
   11208:	f8042783          	lw	a5,-128(s0)
   1120c:	02079063          	bnez	a5,1122c <.L5>

00011210 <.LM10>:
   11210:	000007b7          	lui	a5,0x0
   11214:	00078613          	mv	a2,a5
   11218:	f8842583          	lw	a1,-120(s0)
   1121c:	f8c42503          	lw	a0,-116(s0)
   11220:	00000297          	auipc	t0,0x0
   11224:	000280e7          	jalr	t0
   11228:	0940006f          	j	112bc <.L4>

0001122c <.L5>:
   1122c:	fec42783          	lw	a5,-20(s0)
   11230:	fff78713          	addi	a4,a5,-1
   11234:	fee42623          	sw	a4,-20(s0)
   11238:	ff040693          	addi	a3,s0,-16
   1123c:	00f687b3          	add	a5,a3,a5
   11240:	fa078623          	sb	zero,-84(a5)

00011244 <.LM12>:
   11244:	04c0006f          	j	11290 <.L7>

00011248 <.L8>:
   11248:	f8442783          	lw	a5,-124(s0)
   1124c:	f8042703          	lw	a4,-128(s0)
   11250:	02f77733          	remu	a4,a4,a5
   11254:	000007b7          	lui	a5,0x0
   11258:	00078793          	mv	a5,a5
   1125c:	00f707b3          	add	a5,a4,a5
   11260:	0007c703          	lbu	a4,0(a5) # 0 <buf.1018>
   11264:	fec42783          	lw	a5,-20(s0)
   11268:	ff040693          	addi	a3,s0,-16
   1126c:	00f687b3          	add	a5,a3,a5
   11270:	fae78623          	sb	a4,-84(a5)

00011274 <.LM14>:
   11274:	f8442783          	lw	a5,-124(s0)
   11278:	f8042703          	lw	a4,-128(s0)
   1127c:	02f757b3          	divu	a5,a4,a5
   11280:	f8f42023          	sw	a5,-128(s0)

00011284 <.LM15>:
   11284:	fec42783          	lw	a5,-20(s0)
   11288:	fff78793          	addi	a5,a5,-1
   1128c:	fef42623          	sw	a5,-20(s0)

00011290 <.L7>:
   11290:	f8042783          	lw	a5,-128(s0)
   11294:	fa079ae3          	bnez	a5,11248 <.L8>

00011298 <.LM17>:
   11298:	fec42783          	lw	a5,-20(s0)
   1129c:	00178793          	addi	a5,a5,1
   112a0:	f9c40713          	addi	a4,s0,-100
   112a4:	00f707b3          	add	a5,a4,a5
   112a8:	00078613          	mv	a2,a5
   112ac:	f8842583          	lw	a1,-120(s0)
   112b0:	f8c42503          	lw	a0,-116(s0)
   112b4:	00000297          	auipc	t0,0x0
   112b8:	000280e7          	jalr	t0

000112bc <.L4>:
   112bc:	07c12083          	lw	ra,124(sp)
   112c0:	07812403          	lw	s0,120(sp)
   112c4:	08010113          	addi	sp,sp,128
   112c8:	00008067          	ret

000112cc <vxprintf>:
   112cc:	fc010113          	addi	sp,sp,-64
   112d0:	02112e23          	sw	ra,60(sp)
   112d4:	02812c23          	sw	s0,56(sp)
   112d8:	04010413          	addi	s0,sp,64
   112dc:	fca42623          	sw	a0,-52(s0)
   112e0:	fcb42423          	sw	a1,-56(s0)
   112e4:	fcc42223          	sw	a2,-60(s0)
   112e8:	fcd42023          	sw	a3,-64(s0)

000112ec <.LM20>:
   112ec:	fe042423          	sw	zero,-24(s0)

000112f0 <.LM21>:
   112f0:	fe042623          	sw	zero,-20(s0)
   112f4:	1d00006f          	j	114c4 <.L10>

000112f8 <.L23>:
   112f8:	fe842783          	lw	a5,-24(s0)
   112fc:	04079263          	bnez	a5,11340 <.L11>

00011300 <.LM23>:
   11300:	fec42783          	lw	a5,-20(s0)
   11304:	fc442703          	lw	a4,-60(s0)
   11308:	00f707b3          	add	a5,a4,a5
   1130c:	0007c703          	lbu	a4,0(a5)
   11310:	02500793          	li	a5,37
   11314:	02f70663          	beq	a4,a5,11340 <.L11>

00011318 <.LM24>:
   11318:	fec42783          	lw	a5,-20(s0)
   1131c:	fc442703          	lw	a4,-60(s0)
   11320:	00f707b3          	add	a5,a4,a5
   11324:	0007c783          	lbu	a5,0(a5)
   11328:	00078713          	mv	a4,a5
   1132c:	fcc42783          	lw	a5,-52(s0)
   11330:	00070593          	mv	a1,a4
   11334:	fc842503          	lw	a0,-56(s0)
   11338:	000780e7          	jalr	a5

0001133c <.LM25>:
   1133c:	17c0006f          	j	114b8 <.L12>

00011340 <.L11>:
   11340:	fec42783          	lw	a5,-20(s0)
   11344:	fc442703          	lw	a4,-60(s0)
   11348:	00f707b3          	add	a5,a4,a5
   1134c:	0007c703          	lbu	a4,0(a5)
   11350:	02500793          	li	a5,37
   11354:	04f71263          	bne	a4,a5,11398 <.L13>

00011358 <.LM27>:
   11358:	fe842783          	lw	a5,-24(s0)
   1135c:	00079863          	bnez	a5,1136c <.L14>

00011360 <.LM28>:
   11360:	00100793          	li	a5,1
   11364:	fef42423          	sw	a5,-24(s0)

00011368 <.LM29>:
   11368:	1500006f          	j	114b8 <.L12>

0001136c <.L14>:
   1136c:	fec42783          	lw	a5,-20(s0)
   11370:	fc442703          	lw	a4,-60(s0)
   11374:	00f707b3          	add	a5,a4,a5
   11378:	0007c783          	lbu	a5,0(a5)
   1137c:	00078713          	mv	a4,a5
   11380:	fcc42783          	lw	a5,-52(s0)
   11384:	00070593          	mv	a1,a4
   11388:	fc842503          	lw	a0,-56(s0)
   1138c:	000780e7          	jalr	a5

00011390 <.LM31>:
   11390:	fe042423          	sw	zero,-24(s0)

00011394 <.LM32>:
   11394:	1240006f          	j	114b8 <.L12>

00011398 <.L13>:
   11398:	fec42783          	lw	a5,-20(s0)
   1139c:	fc442703          	lw	a4,-60(s0)
   113a0:	00f707b3          	add	a5,a4,a5
   113a4:	0007c783          	lbu	a5,0(a5)
   113a8:	fd378793          	addi	a5,a5,-45
   113ac:	04b00713          	li	a4,75
   113b0:	0ef76663          	bltu	a4,a5,1149c <.L16>
   113b4:	00279713          	slli	a4,a5,0x2
   113b8:	000007b7          	lui	a5,0x0
   113bc:	00078793          	mv	a5,a5
   113c0:	00f707b3          	add	a5,a4,a5
   113c4:	0007a783          	lw	a5,0(a5) # 0 <buf.1018>
   113c8:	00078067          	jr	a5

000113cc <.L22>:
   113cc:	fc042783          	lw	a5,-64(s0)
   113d0:	00478713          	addi	a4,a5,4
   113d4:	fce42023          	sw	a4,-64(s0)
   113d8:	0007a783          	lw	a5,0(a5)
   113dc:	fef42223          	sw	a5,-28(s0)

000113e0 <.LM35>:
   113e0:	fe442603          	lw	a2,-28(s0)
   113e4:	fc842583          	lw	a1,-56(s0)
   113e8:	fcc42503          	lw	a0,-52(s0)
   113ec:	00000297          	auipc	t0,0x0
   113f0:	000280e7          	jalr	t0

000113f4 <.LM36>:
   113f4:	fe042423          	sw	zero,-24(s0)

000113f8 <.LM37>:
   113f8:	0c00006f          	j	114b8 <.L12>

000113fc <.L21>:
   113fc:	fc042783          	lw	a5,-64(s0)
   11400:	00478713          	addi	a4,a5,4
   11404:	fce42023          	sw	a4,-64(s0)
   11408:	0007a783          	lw	a5,0(a5)
   1140c:	fef42023          	sw	a5,-32(s0)

00011410 <.LM39>:
   11410:	fe042783          	lw	a5,-32(s0)
   11414:	00078693          	mv	a3,a5
   11418:	01000613          	li	a2,16
   1141c:	fc842583          	lw	a1,-56(s0)
   11420:	fcc42503          	lw	a0,-52(s0)
   11424:	00000297          	auipc	t0,0x0
   11428:	000280e7          	jalr	t0

0001142c <.LM40>:
   1142c:	fe042423          	sw	zero,-24(s0)

00011430 <.LM41>:
   11430:	0880006f          	j	114b8 <.L12>

00011434 <.L20>:
   11434:	fc042783          	lw	a5,-64(s0)
   11438:	00478713          	addi	a4,a5,4
   1143c:	fce42023          	sw	a4,-64(s0)
   11440:	0007a783          	lw	a5,0(a5)
   11444:	fef42023          	sw	a5,-32(s0)

00011448 <.LM43>:
   11448:	fe042783          	lw	a5,-32(s0)
   1144c:	00078693          	mv	a3,a5
   11450:	00a00613          	li	a2,10
   11454:	fc842583          	lw	a1,-56(s0)
   11458:	fcc42503          	lw	a0,-52(s0)
   1145c:	00000297          	auipc	t0,0x0
   11460:	000280e7          	jalr	t0

00011464 <.LM44>:
   11464:	fe042423          	sw	zero,-24(s0)

00011468 <.LM45>:
   11468:	0500006f          	j	114b8 <.L12>

0001146c <.L19>:
   1146c:	fc042783          	lw	a5,-64(s0)
   11470:	00478713          	addi	a4,a5,4
   11474:	fce42023          	sw	a4,-64(s0)
   11478:	0007a783          	lw	a5,0(a5)
   1147c:	fcf40fa3          	sb	a5,-33(s0)

00011480 <.LM47>:
   11480:	fdf44703          	lbu	a4,-33(s0)
   11484:	fcc42783          	lw	a5,-52(s0)
   11488:	00070593          	mv	a1,a4
   1148c:	fc842503          	lw	a0,-56(s0)
   11490:	000780e7          	jalr	a5

00011494 <.LM48>:
   11494:	fe042423          	sw	zero,-24(s0)

00011498 <.LM49>:
   11498:	0200006f          	j	114b8 <.L12>

0001149c <.L16>:
   1149c:	fcc42783          	lw	a5,-52(s0)
   114a0:	03f00593          	li	a1,63
   114a4:	fc842503          	lw	a0,-56(s0)
   114a8:	000780e7          	jalr	a5

000114ac <.LM51>:
   114ac:	fe042423          	sw	zero,-24(s0)

000114b0 <.LM52>:
   114b0:	0080006f          	j	114b8 <.L12>

000114b4 <.L24>:
   114b4:	00000013          	nop

000114b8 <.L12>:
   114b8:	fec42783          	lw	a5,-20(s0)
   114bc:	00178793          	addi	a5,a5,1
   114c0:	fef42623          	sw	a5,-20(s0)

000114c4 <.L10>:
   114c4:	fec42783          	lw	a5,-20(s0)
   114c8:	fc442703          	lw	a4,-60(s0)
   114cc:	00f707b3          	add	a5,a4,a5
   114d0:	0007c783          	lbu	a5,0(a5)
   114d4:	e20792e3          	bnez	a5,112f8 <.L23>

000114d8 <.LM56>:
   114d8:	00000013          	nop
   114dc:	03c12083          	lw	ra,60(sp)
   114e0:	03812403          	lw	s0,56(sp)
   114e4:	04010113          	addi	sp,sp,64
   114e8:	00008067          	ret

000114ec <arch_write_char>:
   114ec:	fd010113          	addi	sp,sp,-48
   114f0:	02112623          	sw	ra,44(sp)
   114f4:	02812423          	sw	s0,40(sp)
   114f8:	03010413          	addi	s0,sp,48
   114fc:	fca42e23          	sw	a0,-36(s0)
   11500:	fcb42c23          	sw	a1,-40(s0)

00011504 <.LM58>:
   11504:	fdc42783          	lw	a5,-36(s0)
   11508:	fef42623          	sw	a5,-20(s0)

0001150c <.LM59>:
   1150c:	fec42783          	lw	a5,-20(s0)
   11510:	0007a783          	lw	a5,0(a5)
   11514:	00178713          	addi	a4,a5,1
   11518:	fec42783          	lw	a5,-20(s0)
   1151c:	00e7a023          	sw	a4,0(a5)

00011520 <.LM60>:
   11520:	00000593          	li	a1,0
   11524:	fd842503          	lw	a0,-40(s0)
   11528:	00000297          	auipc	t0,0x0
   1152c:	000280e7          	jalr	t0

00011530 <.LM61>:
   11530:	00000013          	nop
   11534:	02c12083          	lw	ra,44(sp)
   11538:	02812403          	lw	s0,40(sp)
   1153c:	03010113          	addi	sp,sp,48
   11540:	00008067          	ret

00011544 <printf>:
   11544:	fb010113          	addi	sp,sp,-80
   11548:	02112623          	sw	ra,44(sp)
   1154c:	02812423          	sw	s0,40(sp)
   11550:	03010413          	addi	s0,sp,48
   11554:	fca42e23          	sw	a0,-36(s0)
   11558:	00b42223          	sw	a1,4(s0)
   1155c:	00c42423          	sw	a2,8(s0)
   11560:	00d42623          	sw	a3,12(s0)
   11564:	00e42823          	sw	a4,16(s0)
   11568:	00f42a23          	sw	a5,20(s0)
   1156c:	01042c23          	sw	a6,24(s0)
   11570:	01142e23          	sw	a7,28(s0)

00011574 <.LM63>:
   11574:	fe042623          	sw	zero,-20(s0)

00011578 <.LM64>:
   11578:	02040793          	addi	a5,s0,32
   1157c:	fe478793          	addi	a5,a5,-28
   11580:	fef42423          	sw	a5,-24(s0)

00011584 <.LM65>:
   11584:	fe842703          	lw	a4,-24(s0)
   11588:	fec40793          	addi	a5,s0,-20
   1158c:	00070693          	mv	a3,a4
   11590:	fdc42603          	lw	a2,-36(s0)
   11594:	00078593          	mv	a1,a5
   11598:	000007b7          	lui	a5,0x0
   1159c:	00078513          	mv	a0,a5
   115a0:	00000297          	auipc	t0,0x0
   115a4:	000280e7          	jalr	t0

000115a8 <.LM66>:
   115a8:	fec42783          	lw	a5,-20(s0)

000115ac <.LM67>:
   115ac:	00078513          	mv	a0,a5
   115b0:	02c12083          	lw	ra,44(sp)
   115b4:	02812403          	lw	s0,40(sp)
   115b8:	05010113          	addi	sp,sp,80
   115bc:	00008067          	ret

000115c0 <puts>:
   115c0:	fd010113          	addi	sp,sp,-48
   115c4:	02112623          	sw	ra,44(sp)
   115c8:	02812423          	sw	s0,40(sp)
   115cc:	03010413          	addi	s0,sp,48
   115d0:	fca42e23          	sw	a0,-36(s0)

000115d4 <.LM69>:
   115d4:	fe042623          	sw	zero,-20(s0)

000115d8 <.LM70>:
   115d8:	fec40793          	addi	a5,s0,-20
   115dc:	fdc42603          	lw	a2,-36(s0)
   115e0:	00078593          	mv	a1,a5
   115e4:	000007b7          	lui	a5,0x0
   115e8:	00078513          	mv	a0,a5
   115ec:	00000297          	auipc	t0,0x0
   115f0:	000280e7          	jalr	t0

000115f4 <.LM71>:
   115f4:	fec40793          	addi	a5,s0,-20
   115f8:	00a00593          	li	a1,10
   115fc:	00078513          	mv	a0,a5
   11600:	00000297          	auipc	t0,0x0
   11604:	000280e7          	jalr	t0

00011608 <.LM72>:
   11608:	fec42783          	lw	a5,-20(s0)

0001160c <.LM73>:
   1160c:	00078513          	mv	a0,a5
   11610:	02c12083          	lw	ra,44(sp)
   11614:	02812403          	lw	s0,40(sp)
   11618:	03010113          	addi	sp,sp,48
   1161c:	00008067          	ret

00011620 <sprintf_write_char>:
   11620:	fd010113          	addi	sp,sp,-48
   11624:	02812623          	sw	s0,44(sp)
   11628:	03010413          	addi	s0,sp,48
   1162c:	fca42e23          	sw	a0,-36(s0)
   11630:	fcb42c23          	sw	a1,-40(s0)

00011634 <.LM75>:
   11634:	fdc42783          	lw	a5,-36(s0)
   11638:	fef42623          	sw	a5,-20(s0)

0001163c <.LM76>:
   1163c:	fec42783          	lw	a5,-20(s0)
   11640:	0007a783          	lw	a5,0(a5) # 0 <buf.1018>
   11644:	fec42703          	lw	a4,-20(s0)
   11648:	00472703          	lw	a4,4(a4)
   1164c:	00e787b3          	add	a5,a5,a4
   11650:	fd842703          	lw	a4,-40(s0)
   11654:	0ff77713          	andi	a4,a4,255
   11658:	00e78023          	sb	a4,0(a5)

0001165c <.LM77>:
   1165c:	fec42783          	lw	a5,-20(s0)
   11660:	0047a783          	lw	a5,4(a5)
   11664:	00178713          	addi	a4,a5,1
   11668:	fec42783          	lw	a5,-20(s0)
   1166c:	00e7a223          	sw	a4,4(a5)

00011670 <.LM78>:
   11670:	00000013          	nop
   11674:	02c12403          	lw	s0,44(sp)
   11678:	03010113          	addi	sp,sp,48
   1167c:	00008067          	ret

00011680 <sprintf>:
   11680:	fb010113          	addi	sp,sp,-80
   11684:	02112623          	sw	ra,44(sp)
   11688:	02812423          	sw	s0,40(sp)
   1168c:	03010413          	addi	s0,sp,48
   11690:	fca42e23          	sw	a0,-36(s0)
   11694:	fcb42c23          	sw	a1,-40(s0)
   11698:	00c42423          	sw	a2,8(s0)
   1169c:	00d42623          	sw	a3,12(s0)
   116a0:	00e42823          	sw	a4,16(s0)
   116a4:	00f42a23          	sw	a5,20(s0)
   116a8:	01042c23          	sw	a6,24(s0)
   116ac:	01142e23          	sw	a7,28(s0)

000116b0 <.LM80>:
   116b0:	fdc42783          	lw	a5,-36(s0)
   116b4:	fef42423          	sw	a5,-24(s0)
   116b8:	fe042623          	sw	zero,-20(s0)

000116bc <.LM81>:
   116bc:	02040793          	addi	a5,s0,32
   116c0:	fe878793          	addi	a5,a5,-24
   116c4:	fef42223          	sw	a5,-28(s0)

000116c8 <.LM82>:
   116c8:	fe442703          	lw	a4,-28(s0)
   116cc:	fe840793          	addi	a5,s0,-24
   116d0:	00070693          	mv	a3,a4
   116d4:	fd842603          	lw	a2,-40(s0)
   116d8:	00078593          	mv	a1,a5
   116dc:	000007b7          	lui	a5,0x0
   116e0:	00078513          	mv	a0,a5
   116e4:	00000297          	auipc	t0,0x0
   116e8:	000280e7          	jalr	t0

000116ec <.LM83>:
   116ec:	fec42783          	lw	a5,-20(s0)

000116f0 <.LM84>:
   116f0:	00078513          	mv	a0,a5
   116f4:	02c12083          	lw	ra,44(sp)
   116f8:	02812403          	lw	s0,40(sp)
   116fc:	05010113          	addi	sp,sp,80
   11700:	00008067          	ret

00011704 <strcmp>:
   11704:	fe010113          	addi	sp,sp,-32
   11708:	00812e23          	sw	s0,28(sp)
   1170c:	02010413          	addi	s0,sp,32
   11710:	fea42623          	sw	a0,-20(s0)
   11714:	feb42423          	sw	a1,-24(s0)

00011718 <.L5>:
   11718:	fec42783          	lw	a5,-20(s0)
   1171c:	0007c703          	lbu	a4,0(a5) # 0 <buf.1018>
   11720:	fe842783          	lw	a5,-24(s0)
   11724:	0007c783          	lbu	a5,0(a5)
   11728:	02f70063          	beq	a4,a5,11748 <.L2>

0001172c <.LM3>:
   1172c:	fec42783          	lw	a5,-20(s0)
   11730:	0007c783          	lbu	a5,0(a5)
   11734:	00078713          	mv	a4,a5
   11738:	fe842783          	lw	a5,-24(s0)
   1173c:	0007c783          	lbu	a5,0(a5)
   11740:	40f707b3          	sub	a5,a4,a5
   11744:	0340006f          	j	11778 <.L3>

00011748 <.L2>:
   11748:	fec42783          	lw	a5,-20(s0)
   1174c:	0007c783          	lbu	a5,0(a5)
   11750:	00079663          	bnez	a5,1175c <.L4>

00011754 <.LM5>:
   11754:	00000793          	li	a5,0
   11758:	0200006f          	j	11778 <.L3>

0001175c <.L4>:
   1175c:	fec42783          	lw	a5,-20(s0)
   11760:	00178793          	addi	a5,a5,1
   11764:	fef42623          	sw	a5,-20(s0)

00011768 <.LM7>:
   11768:	fe842783          	lw	a5,-24(s0)
   1176c:	00178793          	addi	a5,a5,1
   11770:	fef42423          	sw	a5,-24(s0)

00011774 <.LM8>:
   11774:	fa5ff06f          	j	11718 <.L5>

00011778 <.L3>:
   11778:	00078513          	mv	a0,a5
   1177c:	01c12403          	lw	s0,28(sp)
   11780:	02010113          	addi	sp,sp,32
   11784:	00008067          	ret

00011788 <memset>:
   11788:	fd010113          	addi	sp,sp,-48
   1178c:	02812623          	sw	s0,44(sp)
   11790:	03010413          	addi	s0,sp,48
   11794:	fca42e23          	sw	a0,-36(s0)
   11798:	fcb42c23          	sw	a1,-40(s0)
   1179c:	fcc42a23          	sw	a2,-44(s0)

000117a0 <.LM11>:
   117a0:	fdc42783          	lw	a5,-36(s0)
   117a4:	fef42423          	sw	a5,-24(s0)

000117a8 <.LM12>:
   117a8:	fe042623          	sw	zero,-20(s0)
   117ac:	0280006f          	j	117d4 <.L7>

000117b0 <.L8>:
   117b0:	fe842703          	lw	a4,-24(s0)
   117b4:	fec42783          	lw	a5,-20(s0)
   117b8:	00f707b3          	add	a5,a4,a5
   117bc:	fd842703          	lw	a4,-40(s0)
   117c0:	0ff77713          	andi	a4,a4,255
   117c4:	00e78023          	sb	a4,0(a5)

000117c8 <.LM14>:
   117c8:	fec42783          	lw	a5,-20(s0)
   117cc:	00178793          	addi	a5,a5,1
   117d0:	fef42623          	sw	a5,-20(s0)

000117d4 <.L7>:
   117d4:	fec42703          	lw	a4,-20(s0)
   117d8:	fd442783          	lw	a5,-44(s0)
   117dc:	fcf76ae3          	bltu	a4,a5,117b0 <.L8>

000117e0 <.LM16>:
   117e0:	fdc42783          	lw	a5,-36(s0)

000117e4 <.LM17>:
   117e4:	00078513          	mv	a0,a5
   117e8:	02c12403          	lw	s0,44(sp)
   117ec:	03010113          	addi	sp,sp,48
   117f0:	00008067          	ret

000117f4 <memcpy>:
   117f4:	fd010113          	addi	sp,sp,-48
   117f8:	02812623          	sw	s0,44(sp)
   117fc:	03010413          	addi	s0,sp,48
   11800:	fca42e23          	sw	a0,-36(s0)
   11804:	fcb42c23          	sw	a1,-40(s0)
   11808:	fcc42a23          	sw	a2,-44(s0)

0001180c <.LM19>:
   1180c:	fdc42783          	lw	a5,-36(s0)
   11810:	fef42423          	sw	a5,-24(s0)

00011814 <.LM20>:
   11814:	fd842783          	lw	a5,-40(s0)
   11818:	fef42223          	sw	a5,-28(s0)

0001181c <.LM21>:
   1181c:	fe042623          	sw	zero,-20(s0)
   11820:	0300006f          	j	11850 <.L11>

00011824 <.L12>:
   11824:	fe842703          	lw	a4,-24(s0)
   11828:	fec42783          	lw	a5,-20(s0)
   1182c:	00f707b3          	add	a5,a4,a5
   11830:	fe442683          	lw	a3,-28(s0)
   11834:	fec42703          	lw	a4,-20(s0)
   11838:	00e68733          	add	a4,a3,a4
   1183c:	00074703          	lbu	a4,0(a4)
   11840:	00e78023          	sb	a4,0(a5)

00011844 <.LM23>:
   11844:	fec42783          	lw	a5,-20(s0)
   11848:	00178793          	addi	a5,a5,1
   1184c:	fef42623          	sw	a5,-20(s0)

00011850 <.L11>:
   11850:	fec42703          	lw	a4,-20(s0)
   11854:	fd442783          	lw	a5,-44(s0)
   11858:	fcf766e3          	bltu	a4,a5,11824 <.L12>

0001185c <.LM25>:
   1185c:	fdc42783          	lw	a5,-36(s0)

00011860 <.LM26>:
   11860:	00078513          	mv	a0,a5
   11864:	02c12403          	lw	s0,44(sp)
   11868:	03010113          	addi	sp,sp,48
   1186c:	00008067          	ret

00011870 <platform_init>:
   11870:	ff010113          	addi	sp,sp,-16
   11874:	00812623          	sw	s0,12(sp)
   11878:	01010413          	addi	s0,sp,16

0001187c <.LM2>:
   1187c:	00000013          	nop
   11880:	00c12403          	lw	s0,12(sp)
   11884:	01010113          	addi	sp,sp,16
   11888:	00008067          	ret

0001188c <syscall>:
   1188c:	fe010113          	addi	sp,sp,-32
   11890:	00812e23          	sw	s0,28(sp)
   11894:	02010413          	addi	s0,sp,32
   11898:	fea42623          	sw	a0,-20(s0)
   1189c:	feb42423          	sw	a1,-24(s0)
   118a0:	fec42223          	sw	a2,-28(s0)
   118a4:	fed42023          	sw	a3,-32(s0)

000118a8 <.LM2>:
   118a8:	fec42883          	lw	a7,-20(s0)

000118ac <.LM3>:
   118ac:	fe842503          	lw	a0,-24(s0)

000118b0 <.LM4>:
   118b0:	fe442583          	lw	a1,-28(s0)

000118b4 <.LM5>:
   118b4:	fe042603          	lw	a2,-32(s0)

000118b8 <.LM6>:
   118b8:	00000073          	ecall

000118bc <.LM7>:
   118bc:	00050793          	mv	a5,a0

000118c0 <.LM8>:
   118c0:	00078513          	mv	a0,a5
   118c4:	01c12403          	lw	s0,28(sp)
   118c8:	02010113          	addi	sp,sp,32
   118cc:	00008067          	ret

000118d0 <handle_frontend_syscall>:
   118d0:	fd010113          	addi	sp,sp,-48
   118d4:	02812623          	sw	s0,44(sp)
   118d8:	03212423          	sw	s2,40(sp)
   118dc:	03312223          	sw	s3,36(sp)
   118e0:	03010413          	addi	s0,sp,48
   118e4:	fca42e23          	sw	a0,-36(s0)
   118e8:	fcb42c23          	sw	a1,-40(s0)
   118ec:	fcc42a23          	sw	a2,-44(s0)
   118f0:	fcd42823          	sw	a3,-48(s0)
   118f4:	f8010113          	addi	sp,sp,-128
   118f8:	00010793          	mv	a5,sp
   118fc:	03f78793          	addi	a5,a5,63
   11900:	0067d793          	srli	a5,a5,0x6
   11904:	00679793          	slli	a5,a5,0x6

00011908 <.LM10>:
   11908:	fdc42703          	lw	a4,-36(s0)
   1190c:	00070913          	mv	s2,a4
   11910:	41f75713          	srai	a4,a4,0x1f
   11914:	00070993          	mv	s3,a4
   11918:	0127a023          	sw	s2,0(a5)
   1191c:	0137a223          	sw	s3,4(a5)

00011920 <.LM11>:
   11920:	fd842703          	lw	a4,-40(s0)
   11924:	00070f13          	mv	t5,a4
   11928:	41f75713          	srai	a4,a4,0x1f
   1192c:	00070f93          	mv	t6,a4
   11930:	01e7a423          	sw	t5,8(a5)
   11934:	01f7a623          	sw	t6,12(a5)

00011938 <.LM12>:
   11938:	fd442703          	lw	a4,-44(s0)
   1193c:	00070e13          	mv	t3,a4
   11940:	41f75713          	srai	a4,a4,0x1f
   11944:	00070e93          	mv	t4,a4
   11948:	01c7a823          	sw	t3,16(a5)
   1194c:	01d7aa23          	sw	t4,20(a5)

00011950 <.LM13>:
   11950:	fd042703          	lw	a4,-48(s0)
   11954:	00070813          	mv	a6,a4
   11958:	41f75713          	srai	a4,a4,0x1f
   1195c:	00070893          	mv	a7,a4
   11960:	0107ac23          	sw	a6,24(a5)
   11964:	0117ae23          	sw	a7,28(a5)

00011968 <.LM14>:
   11968:	0330000f          	fence	rw,rw

0001196c <.LM15>:
   1196c:	00078713          	mv	a4,a5
   11970:	78071073          	csrw	mtohost,a4

00011974 <.LM16>:
   11974:	00000013          	nop

00011978 <.L4>:
   11978:	00000713          	li	a4,0
   1197c:	78171773          	csrrw	a4,mfromhost,a4
   11980:	fee42623          	sw	a4,-20(s0)
   11984:	fec42703          	lw	a4,-20(s0)

00011988 <.LBE2>:
   11988:	fe0708e3          	beqz	a4,11978 <.L4>

0001198c <.LM18>:
   1198c:	0007a703          	lw	a4,0(a5)
   11990:	0047a783          	lw	a5,4(a5)
   11994:	00070793          	mv	a5,a4

00011998 <.LM19>:
   11998:	00078513          	mv	a0,a5
   1199c:	fd040113          	addi	sp,s0,-48
   119a0:	02c12403          	lw	s0,44(sp)
   119a4:	02812903          	lw	s2,40(sp)
   119a8:	02412983          	lw	s3,36(sp)
   119ac:	03010113          	addi	sp,sp,48
   119b0:	00008067          	ret

000119b4 <handle_trap>:
   119b4:	fd010113          	addi	sp,sp,-48
   119b8:	02112623          	sw	ra,44(sp)
   119bc:	02812423          	sw	s0,40(sp)
   119c0:	03212223          	sw	s2,36(sp)
   119c4:	03312023          	sw	s3,32(sp)
   119c8:	03010413          	addi	s0,sp,48
   119cc:	fca42e23          	sw	a0,-36(s0)
   119d0:	fcb42c23          	sw	a1,-40(s0)
   119d4:	fcc42a23          	sw	a2,-44(s0)

000119d8 <.LM21>:
   119d8:	fe042623          	sw	zero,-20(s0)

000119dc <.LM22>:
   119dc:	fdc42703          	lw	a4,-36(s0)
   119e0:	00700793          	li	a5,7
   119e4:	00f71663          	bne	a4,a5,119f0 <.L7>

000119e8 <.LM23>:
   119e8:	00000793          	li	a5,0
   119ec:	08c0006f          	j	11a78 <.L8>

000119f0 <.L7>:
   119f0:	fd442783          	lw	a5,-44(s0)
   119f4:	08878793          	addi	a5,a5,136
   119f8:	0007a703          	lw	a4,0(a5)
   119fc:	0047a783          	lw	a5,4(a5)
   11a00:	00070513          	mv	a0,a4
   11a04:	fd442783          	lw	a5,-44(s0)
   11a08:	05078793          	addi	a5,a5,80
   11a0c:	0007a703          	lw	a4,0(a5)
   11a10:	0047a783          	lw	a5,4(a5)
   11a14:	00070593          	mv	a1,a4
   11a18:	fd442783          	lw	a5,-44(s0)
   11a1c:	05878793          	addi	a5,a5,88
   11a20:	0007a703          	lw	a4,0(a5)
   11a24:	0047a783          	lw	a5,4(a5)
   11a28:	00070613          	mv	a2,a4
   11a2c:	fd442783          	lw	a5,-44(s0)
   11a30:	06078793          	addi	a5,a5,96
   11a34:	0007a703          	lw	a4,0(a5)
   11a38:	0047a783          	lw	a5,4(a5)
   11a3c:	00070793          	mv	a5,a4
   11a40:	00078693          	mv	a3,a5
   11a44:	00000297          	auipc	t0,0x0
   11a48:	000280e7          	jalr	t0
   11a4c:	fea42623          	sw	a0,-20(s0)

00011a50 <.LM25>:
   11a50:	fd442783          	lw	a5,-44(s0)
   11a54:	05078713          	addi	a4,a5,80
   11a58:	fec42783          	lw	a5,-20(s0)
   11a5c:	00078913          	mv	s2,a5
   11a60:	41f7d793          	srai	a5,a5,0x1f
   11a64:	00078993          	mv	s3,a5
   11a68:	01272023          	sw	s2,0(a4)
   11a6c:	01372223          	sw	s3,4(a4)

00011a70 <.LM26>:
   11a70:	fd842783          	lw	a5,-40(s0)
   11a74:	00478793          	addi	a5,a5,4

00011a78 <.L8>:
   11a78:	00078513          	mv	a0,a5
   11a7c:	02c12083          	lw	ra,44(sp)
   11a80:	02812403          	lw	s0,40(sp)
   11a84:	02412903          	lw	s2,36(sp)
   11a88:	02012983          	lw	s3,32(sp)
   11a8c:	03010113          	addi	sp,sp,48
   11a90:	00008067          	ret

00011a94 <__fputc>:
   11a94:	fe010113          	addi	sp,sp,-32
   11a98:	00112e23          	sw	ra,28(sp)
   11a9c:	00812c23          	sw	s0,24(sp)
   11aa0:	02010413          	addi	s0,sp,32
   11aa4:	fea42623          	sw	a0,-20(s0)
   11aa8:	feb42423          	sw	a1,-24(s0)

00011aac <.LM29>:
   11aac:	000007b7          	lui	a5,0x0
   11ab0:	004787b3          	add	a5,a5,tp
   11ab4:	0007a783          	lw	a5,0(a5) # 0 <buf.1018>
   11ab8:	00178693          	addi	a3,a5,1
   11abc:	00000737          	lui	a4,0x0
   11ac0:	00470733          	add	a4,a4,tp
   11ac4:	00d72023          	sw	a3,0(a4) # 0 <buf.1018>
   11ac8:	fec42703          	lw	a4,-20(s0)
   11acc:	0ff77713          	andi	a4,a4,255
   11ad0:	000006b7          	lui	a3,0x0
   11ad4:	004686b3          	add	a3,a3,tp
   11ad8:	00068693          	mv	a3,a3
   11adc:	00d787b3          	add	a5,a5,a3
   11ae0:	00e78023          	sb	a4,0(a5)

00011ae4 <.LM30>:
   11ae4:	fec42703          	lw	a4,-20(s0)
   11ae8:	00a00793          	li	a5,10
   11aec:	00f70c63          	beq	a4,a5,11b04 <.L10>

00011af0 <.LM31>:
   11af0:	000007b7          	lui	a5,0x0
   11af4:	004787b3          	add	a5,a5,tp
   11af8:	0007a703          	lw	a4,0(a5) # 0 <buf.1018>
   11afc:	04000793          	li	a5,64
   11b00:	04f71063          	bne	a4,a5,11b40 <.L11>

00011b04 <.L10>:
   11b04:	000007b7          	lui	a5,0x0
   11b08:	004787b3          	add	a5,a5,tp
   11b0c:	00078713          	mv	a4,a5
   11b10:	000007b7          	lui	a5,0x0
   11b14:	004787b3          	add	a5,a5,tp
   11b18:	0007a783          	lw	a5,0(a5) # 0 <buf.1018>
   11b1c:	00078693          	mv	a3,a5
   11b20:	00070613          	mv	a2,a4
   11b24:	00100593          	li	a1,1
   11b28:	04000513          	li	a0,64
   11b2c:	00000297          	auipc	t0,0x0
   11b30:	000280e7          	jalr	t0

00011b34 <.LM33>:
   11b34:	000007b7          	lui	a5,0x0
   11b38:	004787b3          	add	a5,a5,tp
   11b3c:	0007a023          	sw	zero,0(a5) # 0 <buf.1018>

00011b40 <.L11>:
   11b40:	00000793          	li	a5,0

00011b44 <.LM35>:
   11b44:	00078513          	mv	a0,a5
   11b48:	01c12083          	lw	ra,28(sp)
   11b4c:	01812403          	lw	s0,24(sp)
   11b50:	02010113          	addi	sp,sp,32
   11b54:	00008067          	ret

00011b58 <elf32_getSectionTable>:
   11b58:	fe010113          	addi	sp,sp,-32
   11b5c:	00812e23          	sw	s0,28(sp)
   11b60:	02010413          	addi	s0,sp,32
   11b64:	fea42623          	sw	a0,-20(s0)

00011b68 <.LM2>:
   11b68:	fec42783          	lw	a5,-20(s0)
   11b6c:	0207a703          	lw	a4,32(a5)
   11b70:	fec42783          	lw	a5,-20(s0)
   11b74:	00f707b3          	add	a5,a4,a5

00011b78 <.LM3>:
   11b78:	00078513          	mv	a0,a5
   11b7c:	01c12403          	lw	s0,28(sp)
   11b80:	02010113          	addi	sp,sp,32
   11b84:	00008067          	ret

00011b88 <elf32_checkFile>:
   11b88:	fe010113          	addi	sp,sp,-32
   11b8c:	00812e23          	sw	s0,28(sp)
   11b90:	02010413          	addi	s0,sp,32
   11b94:	fea42623          	sw	a0,-20(s0)

00011b98 <.LM5>:
   11b98:	fec42783          	lw	a5,-20(s0)
   11b9c:	0007c703          	lbu	a4,0(a5)
   11ba0:	07f00793          	li	a5,127
   11ba4:	02f71a63          	bne	a4,a5,11bd8 <.L4>

00011ba8 <.LM6>:
   11ba8:	fec42783          	lw	a5,-20(s0)
   11bac:	0017c703          	lbu	a4,1(a5)
   11bb0:	04500793          	li	a5,69
   11bb4:	02f71263          	bne	a4,a5,11bd8 <.L4>

00011bb8 <.LM7>:
   11bb8:	fec42783          	lw	a5,-20(s0)
   11bbc:	0027c703          	lbu	a4,2(a5)
   11bc0:	04c00793          	li	a5,76
   11bc4:	00f71a63          	bne	a4,a5,11bd8 <.L4>

00011bc8 <.LM8>:
   11bc8:	fec42783          	lw	a5,-20(s0)
   11bcc:	0037c703          	lbu	a4,3(a5)
   11bd0:	04600793          	li	a5,70
   11bd4:	00f70663          	beq	a4,a5,11be0 <.L5>

00011bd8 <.L4>:
   11bd8:	fff00793          	li	a5,-1
   11bdc:	0200006f          	j	11bfc <.L6>

00011be0 <.L5>:
   11be0:	fec42783          	lw	a5,-20(s0)
   11be4:	0047c703          	lbu	a4,4(a5)
   11be8:	00100793          	li	a5,1
   11bec:	00f70663          	beq	a4,a5,11bf8 <.L7>

00011bf0 <.LM11>:
   11bf0:	ffe00793          	li	a5,-2
   11bf4:	0080006f          	j	11bfc <.L6>

00011bf8 <.L7>:
   11bf8:	00000793          	li	a5,0

00011bfc <.L6>:
   11bfc:	00078513          	mv	a0,a5
   11c00:	01c12403          	lw	s0,28(sp)
   11c04:	02010113          	addi	sp,sp,32
   11c08:	00008067          	ret

00011c0c <elf32_getNumSections>:
   11c0c:	fe010113          	addi	sp,sp,-32
   11c10:	00812e23          	sw	s0,28(sp)
   11c14:	02010413          	addi	s0,sp,32
   11c18:	fea42623          	sw	a0,-20(s0)

00011c1c <.LM15>:
   11c1c:	fec42783          	lw	a5,-20(s0)
   11c20:	0307d783          	lhu	a5,48(a5)

00011c24 <.LM16>:
   11c24:	00078513          	mv	a0,a5
   11c28:	01c12403          	lw	s0,28(sp)
   11c2c:	02010113          	addi	sp,sp,32
   11c30:	00008067          	ret

00011c34 <elf32_getStringTable>:
   11c34:	fd010113          	addi	sp,sp,-48
   11c38:	02112623          	sw	ra,44(sp)
   11c3c:	02812423          	sw	s0,40(sp)
   11c40:	03010413          	addi	s0,sp,48
   11c44:	fca42e23          	sw	a0,-36(s0)

00011c48 <.LM18>:
   11c48:	fdc42503          	lw	a0,-36(s0)
   11c4c:	00000297          	auipc	t0,0x0
   11c50:	000280e7          	jalr	t0
   11c54:	fea42623          	sw	a0,-20(s0)

00011c58 <.LM19>:
   11c58:	fdc42783          	lw	a5,-36(s0)
   11c5c:	0327d783          	lhu	a5,50(a5)
   11c60:	00379793          	slli	a5,a5,0x3
   11c64:	00279713          	slli	a4,a5,0x2
   11c68:	00e787b3          	add	a5,a5,a4
   11c6c:	fec42703          	lw	a4,-20(s0)
   11c70:	00f707b3          	add	a5,a4,a5
   11c74:	0107a783          	lw	a5,16(a5)
   11c78:	fdc42703          	lw	a4,-36(s0)
   11c7c:	00f707b3          	add	a5,a4,a5

00011c80 <.LM20>:
   11c80:	00078513          	mv	a0,a5
   11c84:	02c12083          	lw	ra,44(sp)
   11c88:	02812403          	lw	s0,40(sp)
   11c8c:	03010113          	addi	sp,sp,48
   11c90:	00008067          	ret

00011c94 <elf32_getProgramSegmentTable>:
   11c94:	fd010113          	addi	sp,sp,-48
   11c98:	02812623          	sw	s0,44(sp)
   11c9c:	03010413          	addi	s0,sp,48
   11ca0:	fca42e23          	sw	a0,-36(s0)

00011ca4 <.LM22>:
   11ca4:	fdc42783          	lw	a5,-36(s0)
   11ca8:	fef42623          	sw	a5,-20(s0)

00011cac <.LM23>:
   11cac:	fec42783          	lw	a5,-20(s0)
   11cb0:	01c7a703          	lw	a4,28(a5)
   11cb4:	fdc42783          	lw	a5,-36(s0)
   11cb8:	00f707b3          	add	a5,a4,a5

00011cbc <.LM24>:
   11cbc:	00078513          	mv	a0,a5
   11cc0:	02c12403          	lw	s0,44(sp)
   11cc4:	03010113          	addi	sp,sp,48
   11cc8:	00008067          	ret

00011ccc <elf32_getNumProgramHeaders>:
   11ccc:	fd010113          	addi	sp,sp,-48
   11cd0:	02812623          	sw	s0,44(sp)
   11cd4:	03010413          	addi	s0,sp,48
   11cd8:	fca42e23          	sw	a0,-36(s0)

00011cdc <.LM26>:
   11cdc:	fdc42783          	lw	a5,-36(s0)
   11ce0:	fef42623          	sw	a5,-20(s0)

00011ce4 <.LM27>:
   11ce4:	fec42783          	lw	a5,-20(s0)
   11ce8:	02c7d783          	lhu	a5,44(a5)

00011cec <.LM28>:
   11cec:	00078513          	mv	a0,a5
   11cf0:	02c12403          	lw	s0,44(sp)
   11cf4:	03010113          	addi	sp,sp,48
   11cf8:	00008067          	ret

00011cfc <elf32_getSectionName>:
   11cfc:	fd010113          	addi	sp,sp,-48
   11d00:	02112623          	sw	ra,44(sp)
   11d04:	02812423          	sw	s0,40(sp)
   11d08:	03010413          	addi	s0,sp,48
   11d0c:	fca42e23          	sw	a0,-36(s0)
   11d10:	fcb42c23          	sw	a1,-40(s0)

00011d14 <.LM30>:
   11d14:	fdc42503          	lw	a0,-36(s0)
   11d18:	00000297          	auipc	t0,0x0
   11d1c:	000280e7          	jalr	t0
   11d20:	fea42623          	sw	a0,-20(s0)

00011d24 <.LM31>:
   11d24:	fdc42503          	lw	a0,-36(s0)
   11d28:	00000297          	auipc	t0,0x0
   11d2c:	000280e7          	jalr	t0
   11d30:	fea42423          	sw	a0,-24(s0)

00011d34 <.LM32>:
   11d34:	fe842783          	lw	a5,-24(s0)
   11d38:	00079863          	bnez	a5,11d48 <.L17>

00011d3c <.LM33>:
   11d3c:	000007b7          	lui	a5,0x0
   11d40:	00078793          	mv	a5,a5
   11d44:	0280006f          	j	11d6c <.L18>

00011d48 <.L17>:
   11d48:	fd842783          	lw	a5,-40(s0)
   11d4c:	00379793          	slli	a5,a5,0x3
   11d50:	00279713          	slli	a4,a5,0x2
   11d54:	00e787b3          	add	a5,a5,a4
   11d58:	fec42703          	lw	a4,-20(s0)
   11d5c:	00f707b3          	add	a5,a4,a5
   11d60:	0007a783          	lw	a5,0(a5) # 0 <buf.1018>
   11d64:	fe842703          	lw	a4,-24(s0)
   11d68:	00f707b3          	add	a5,a4,a5

00011d6c <.L18>:
   11d6c:	00078513          	mv	a0,a5
   11d70:	02c12083          	lw	ra,44(sp)
   11d74:	02812403          	lw	s0,40(sp)
   11d78:	03010113          	addi	sp,sp,48
   11d7c:	00008067          	ret

00011d80 <elf32_getSectionSize>:
   11d80:	fd010113          	addi	sp,sp,-48
   11d84:	02112623          	sw	ra,44(sp)
   11d88:	02812423          	sw	s0,40(sp)
   11d8c:	03010413          	addi	s0,sp,48
   11d90:	fca42e23          	sw	a0,-36(s0)
   11d94:	fcb42c23          	sw	a1,-40(s0)

00011d98 <.LM37>:
   11d98:	fdc42503          	lw	a0,-36(s0)
   11d9c:	00000297          	auipc	t0,0x0
   11da0:	000280e7          	jalr	t0
   11da4:	fea42623          	sw	a0,-20(s0)

00011da8 <.LM38>:
   11da8:	fd842783          	lw	a5,-40(s0)
   11dac:	00379793          	slli	a5,a5,0x3
   11db0:	00279713          	slli	a4,a5,0x2
   11db4:	00e787b3          	add	a5,a5,a4
   11db8:	fec42703          	lw	a4,-20(s0)
   11dbc:	00f707b3          	add	a5,a4,a5
   11dc0:	0147a783          	lw	a5,20(a5)

00011dc4 <.LM39>:
   11dc4:	00078513          	mv	a0,a5
   11dc8:	02c12083          	lw	ra,44(sp)
   11dcc:	02812403          	lw	s0,40(sp)
   11dd0:	03010113          	addi	sp,sp,48
   11dd4:	00008067          	ret

00011dd8 <elf32_getSectionAddr>:
   11dd8:	fd010113          	addi	sp,sp,-48
   11ddc:	02112623          	sw	ra,44(sp)
   11de0:	02812423          	sw	s0,40(sp)
   11de4:	03010413          	addi	s0,sp,48
   11de8:	fca42e23          	sw	a0,-36(s0)
   11dec:	fcb42c23          	sw	a1,-40(s0)

00011df0 <.LM41>:
   11df0:	fdc42503          	lw	a0,-36(s0)
   11df4:	00000297          	auipc	t0,0x0
   11df8:	000280e7          	jalr	t0
   11dfc:	fea42623          	sw	a0,-20(s0)

00011e00 <.LM42>:
   11e00:	fd842783          	lw	a5,-40(s0)
   11e04:	00379793          	slli	a5,a5,0x3
   11e08:	00279713          	slli	a4,a5,0x2
   11e0c:	00e787b3          	add	a5,a5,a4
   11e10:	fec42703          	lw	a4,-20(s0)
   11e14:	00f707b3          	add	a5,a4,a5
   11e18:	00c7a783          	lw	a5,12(a5)

00011e1c <.LM43>:
   11e1c:	00078513          	mv	a0,a5
   11e20:	02c12083          	lw	ra,44(sp)
   11e24:	02812403          	lw	s0,40(sp)
   11e28:	03010113          	addi	sp,sp,48
   11e2c:	00008067          	ret

00011e30 <elf32_getSection>:
   11e30:	fd010113          	addi	sp,sp,-48
   11e34:	02112623          	sw	ra,44(sp)
   11e38:	02812423          	sw	s0,40(sp)
   11e3c:	03010413          	addi	s0,sp,48
   11e40:	fca42e23          	sw	a0,-36(s0)
   11e44:	fcb42c23          	sw	a1,-40(s0)

00011e48 <.LM45>:
   11e48:	fdc42503          	lw	a0,-36(s0)
   11e4c:	00000297          	auipc	t0,0x0
   11e50:	000280e7          	jalr	t0
   11e54:	fea42623          	sw	a0,-20(s0)

00011e58 <.LM46>:
   11e58:	fd842783          	lw	a5,-40(s0)
   11e5c:	00379793          	slli	a5,a5,0x3
   11e60:	00279713          	slli	a4,a5,0x2
   11e64:	00e787b3          	add	a5,a5,a4
   11e68:	fec42703          	lw	a4,-20(s0)
   11e6c:	00f707b3          	add	a5,a4,a5
   11e70:	0107a783          	lw	a5,16(a5)
   11e74:	fdc42703          	lw	a4,-36(s0)
   11e78:	00f707b3          	add	a5,a4,a5

00011e7c <.LM47>:
   11e7c:	00078513          	mv	a0,a5
   11e80:	02c12083          	lw	ra,44(sp)
   11e84:	02812403          	lw	s0,40(sp)
   11e88:	03010113          	addi	sp,sp,48
   11e8c:	00008067          	ret

00011e90 <elf32_getSectionNamed>:
   11e90:	fd010113          	addi	sp,sp,-48
   11e94:	02112623          	sw	ra,44(sp)
   11e98:	02812423          	sw	s0,40(sp)
   11e9c:	03010413          	addi	s0,sp,48
   11ea0:	fca42e23          	sw	a0,-36(s0)
   11ea4:	fcb42c23          	sw	a1,-40(s0)

00011ea8 <.LM49>:
   11ea8:	fdc42503          	lw	a0,-36(s0)
   11eac:	00000297          	auipc	t0,0x0
   11eb0:	000280e7          	jalr	t0
   11eb4:	00050793          	mv	a5,a0
   11eb8:	fef42423          	sw	a5,-24(s0)

00011ebc <.LM50>:
   11ebc:	fe042623          	sw	zero,-20(s0)
   11ec0:	0540006f          	j	11f14 <.L26>

00011ec4 <.L29>:
   11ec4:	fec42583          	lw	a1,-20(s0)
   11ec8:	fdc42503          	lw	a0,-36(s0)
   11ecc:	00000297          	auipc	t0,0x0
   11ed0:	000280e7          	jalr	t0
   11ed4:	00050793          	mv	a5,a0
   11ed8:	00078593          	mv	a1,a5
   11edc:	fd842503          	lw	a0,-40(s0)
   11ee0:	00000297          	auipc	t0,0x0
   11ee4:	000280e7          	jalr	t0
   11ee8:	00050793          	mv	a5,a0
   11eec:	00079e63          	bnez	a5,11f08 <.L27>

00011ef0 <.LM52>:
   11ef0:	fec42583          	lw	a1,-20(s0)
   11ef4:	fdc42503          	lw	a0,-36(s0)
   11ef8:	00000297          	auipc	t0,0x0
   11efc:	000280e7          	jalr	t0
   11f00:	00050793          	mv	a5,a0
   11f04:	0200006f          	j	11f24 <.L28>

00011f08 <.L27>:
   11f08:	fec42783          	lw	a5,-20(s0)
   11f0c:	00178793          	addi	a5,a5,1
   11f10:	fef42623          	sw	a5,-20(s0)

00011f14 <.L26>:
   11f14:	fec42703          	lw	a4,-20(s0)
   11f18:	fe842783          	lw	a5,-24(s0)
   11f1c:	faf744e3          	blt	a4,a5,11ec4 <.L29>

00011f20 <.LM55>:
   11f20:	00000793          	li	a5,0

00011f24 <.L28>:
   11f24:	00078513          	mv	a0,a5
   11f28:	02c12083          	lw	ra,44(sp)
   11f2c:	02812403          	lw	s0,40(sp)
   11f30:	03010113          	addi	sp,sp,48
   11f34:	00008067          	ret

00011f38 <elf32_getSegmentStringTable>:
   11f38:	fd010113          	addi	sp,sp,-48
   11f3c:	02112623          	sw	ra,44(sp)
   11f40:	02812423          	sw	s0,40(sp)
   11f44:	03010413          	addi	s0,sp,48
   11f48:	fca42e23          	sw	a0,-36(s0)

00011f4c <.LM58>:
   11f4c:	fdc42783          	lw	a5,-36(s0)
   11f50:	fef42623          	sw	a5,-20(s0)

00011f54 <.LM59>:
   11f54:	fec42783          	lw	a5,-20(s0)
   11f58:	0327d783          	lhu	a5,50(a5)
   11f5c:	00079663          	bnez	a5,11f68 <.L31>

00011f60 <.LM60>:
   11f60:	00000793          	li	a5,0
   11f64:	0140006f          	j	11f78 <.L32>

00011f68 <.L31>:
   11f68:	fdc42503          	lw	a0,-36(s0)
   11f6c:	00000297          	auipc	t0,0x0
   11f70:	000280e7          	jalr	t0
   11f74:	00050793          	mv	a5,a0

00011f78 <.L32>:
   11f78:	00078513          	mv	a0,a5
   11f7c:	02c12083          	lw	ra,44(sp)
   11f80:	02812403          	lw	s0,40(sp)
   11f84:	03010113          	addi	sp,sp,48
   11f88:	00008067          	ret

00011f8c <elf32_getSegmentType>:
   11f8c:	fe010113          	addi	sp,sp,-32
   11f90:	00112e23          	sw	ra,28(sp)
   11f94:	00812c23          	sw	s0,24(sp)
   11f98:	02010413          	addi	s0,sp,32
   11f9c:	fea42623          	sw	a0,-20(s0)
   11fa0:	feb42423          	sw	a1,-24(s0)

00011fa4 <.LM64>:
   11fa4:	fec42503          	lw	a0,-20(s0)
   11fa8:	00000297          	auipc	t0,0x0
   11fac:	000280e7          	jalr	t0
   11fb0:	00050713          	mv	a4,a0
   11fb4:	fe842783          	lw	a5,-24(s0)
   11fb8:	00579793          	slli	a5,a5,0x5
   11fbc:	00f707b3          	add	a5,a4,a5
   11fc0:	0007a783          	lw	a5,0(a5)

00011fc4 <.LM65>:
   11fc4:	00078513          	mv	a0,a5
   11fc8:	01c12083          	lw	ra,28(sp)
   11fcc:	01812403          	lw	s0,24(sp)
   11fd0:	02010113          	addi	sp,sp,32
   11fd4:	00008067          	ret

00011fd8 <elf32_getSegmentInfo>:
   11fd8:	fa010113          	addi	sp,sp,-96
   11fdc:	04112e23          	sw	ra,92(sp)
   11fe0:	04812c23          	sw	s0,88(sp)
   11fe4:	05212a23          	sw	s2,84(sp)
   11fe8:	05312823          	sw	s3,80(sp)
   11fec:	05412623          	sw	s4,76(sp)
   11ff0:	05512423          	sw	s5,72(sp)
   11ff4:	05612223          	sw	s6,68(sp)
   11ff8:	05712023          	sw	s7,64(sp)
   11ffc:	03812e23          	sw	s8,60(sp)
   12000:	03912c23          	sw	s9,56(sp)
   12004:	03a12a23          	sw	s10,52(sp)
   12008:	03b12823          	sw	s11,48(sp)
   1200c:	06010413          	addi	s0,sp,96
   12010:	faa42e23          	sw	a0,-68(s0)
   12014:	fab42c23          	sw	a1,-72(s0)
   12018:	fac42a23          	sw	a2,-76(s0)
   1201c:	fad42823          	sw	a3,-80(s0)
   12020:	fae42623          	sw	a4,-84(s0)
   12024:	faf42423          	sw	a5,-88(s0)
   12028:	fb042223          	sw	a6,-92(s0)

0001202c <.LM67>:
   1202c:	fbc42503          	lw	a0,-68(s0)
   12030:	00000297          	auipc	t0,0x0
   12034:	000280e7          	jalr	t0
   12038:	fca42623          	sw	a0,-52(s0)

0001203c <.LM68>:
   1203c:	fb842783          	lw	a5,-72(s0)
   12040:	00579793          	slli	a5,a5,0x5
   12044:	fcc42703          	lw	a4,-52(s0)
   12048:	00f707b3          	add	a5,a4,a5
   1204c:	00c7a783          	lw	a5,12(a5)
   12050:	00078d13          	mv	s10,a5
   12054:	00000d93          	li	s11,0
   12058:	fb042783          	lw	a5,-80(s0)
   1205c:	01a7a023          	sw	s10,0(a5)
   12060:	01b7a223          	sw	s11,4(a5)

00012064 <.LM69>:
   12064:	fb842783          	lw	a5,-72(s0)
   12068:	00579793          	slli	a5,a5,0x5
   1206c:	fcc42703          	lw	a4,-52(s0)
   12070:	00f707b3          	add	a5,a4,a5
   12074:	0087a783          	lw	a5,8(a5)
   12078:	00078c13          	mv	s8,a5
   1207c:	00000c93          	li	s9,0
   12080:	fb442783          	lw	a5,-76(s0)
   12084:	0187a023          	sw	s8,0(a5)
   12088:	0197a223          	sw	s9,4(a5)

0001208c <.LM70>:
   1208c:	fb842783          	lw	a5,-72(s0)
   12090:	00579793          	slli	a5,a5,0x5
   12094:	fcc42703          	lw	a4,-52(s0)
   12098:	00f707b3          	add	a5,a4,a5
   1209c:	0107a783          	lw	a5,16(a5)
   120a0:	00078b13          	mv	s6,a5
   120a4:	00000b93          	li	s7,0
   120a8:	fac42783          	lw	a5,-84(s0)
   120ac:	0167a023          	sw	s6,0(a5)
   120b0:	0177a223          	sw	s7,4(a5)

000120b4 <.LM71>:
   120b4:	fb842783          	lw	a5,-72(s0)
   120b8:	00579793          	slli	a5,a5,0x5
   120bc:	fcc42703          	lw	a4,-52(s0)
   120c0:	00f707b3          	add	a5,a4,a5
   120c4:	0047a783          	lw	a5,4(a5)
   120c8:	00078a13          	mv	s4,a5
   120cc:	00000a93          	li	s5,0
   120d0:	fa842783          	lw	a5,-88(s0)
   120d4:	0147a023          	sw	s4,0(a5)
   120d8:	0157a223          	sw	s5,4(a5)

000120dc <.LM72>:
   120dc:	fb842783          	lw	a5,-72(s0)
   120e0:	00579793          	slli	a5,a5,0x5
   120e4:	fcc42703          	lw	a4,-52(s0)
   120e8:	00f707b3          	add	a5,a4,a5
   120ec:	0147a783          	lw	a5,20(a5)
   120f0:	00078913          	mv	s2,a5
   120f4:	00000993          	li	s3,0
   120f8:	fa442783          	lw	a5,-92(s0)
   120fc:	0127a023          	sw	s2,0(a5)
   12100:	0137a223          	sw	s3,4(a5)

00012104 <.LM73>:
   12104:	00000013          	nop
   12108:	05c12083          	lw	ra,92(sp)
   1210c:	05812403          	lw	s0,88(sp)
   12110:	05412903          	lw	s2,84(sp)
   12114:	05012983          	lw	s3,80(sp)
   12118:	04c12a03          	lw	s4,76(sp)
   1211c:	04812a83          	lw	s5,72(sp)
   12120:	04412b03          	lw	s6,68(sp)
   12124:	04012b83          	lw	s7,64(sp)
   12128:	03c12c03          	lw	s8,60(sp)
   1212c:	03812c83          	lw	s9,56(sp)
   12130:	03412d03          	lw	s10,52(sp)
   12134:	03012d83          	lw	s11,48(sp)
   12138:	06010113          	addi	sp,sp,96
   1213c:	00008067          	ret

00012140 <elf32_getEntryPoint>:
   12140:	fe010113          	addi	sp,sp,-32
   12144:	00812e23          	sw	s0,28(sp)
   12148:	02010413          	addi	s0,sp,32
   1214c:	fea42623          	sw	a0,-20(s0)

00012150 <.LM75>:
   12150:	fec42783          	lw	a5,-20(s0)
   12154:	0187a783          	lw	a5,24(a5)

00012158 <.LM76>:
   12158:	00078513          	mv	a0,a5
   1215c:	01c12403          	lw	s0,28(sp)
   12160:	02010113          	addi	sp,sp,32
   12164:	00008067          	ret

00012168 <elf64_getSectionTable>:
   12168:	fe010113          	addi	sp,sp,-32
   1216c:	00812e23          	sw	s0,28(sp)
   12170:	02010413          	addi	s0,sp,32
   12174:	fea42623          	sw	a0,-20(s0)

00012178 <.LM2>:
   12178:	fec42783          	lw	a5,-20(s0)
   1217c:	0287a703          	lw	a4,40(a5)
   12180:	02c7a783          	lw	a5,44(a5)
   12184:	fec42783          	lw	a5,-20(s0)
   12188:	00f707b3          	add	a5,a4,a5

0001218c <.LM3>:
   1218c:	00078513          	mv	a0,a5
   12190:	01c12403          	lw	s0,28(sp)
   12194:	02010113          	addi	sp,sp,32
   12198:	00008067          	ret

0001219c <elf64_checkFile>:
   1219c:	fd010113          	addi	sp,sp,-48
   121a0:	02812623          	sw	s0,44(sp)
   121a4:	03010413          	addi	s0,sp,48
   121a8:	fca42e23          	sw	a0,-36(s0)

000121ac <.LM5>:
   121ac:	fdc42783          	lw	a5,-36(s0)
   121b0:	fef42623          	sw	a5,-20(s0)

000121b4 <.LM6>:
   121b4:	fec42783          	lw	a5,-20(s0)
   121b8:	0007c703          	lbu	a4,0(a5)
   121bc:	07f00793          	li	a5,127
   121c0:	02f71a63          	bne	a4,a5,121f4 <.L4>

000121c4 <.LM7>:
   121c4:	fec42783          	lw	a5,-20(s0)
   121c8:	0017c703          	lbu	a4,1(a5)
   121cc:	04500793          	li	a5,69
   121d0:	02f71263          	bne	a4,a5,121f4 <.L4>

000121d4 <.LM8>:
   121d4:	fec42783          	lw	a5,-20(s0)
   121d8:	0027c703          	lbu	a4,2(a5)
   121dc:	04c00793          	li	a5,76
   121e0:	00f71a63          	bne	a4,a5,121f4 <.L4>

000121e4 <.LM9>:
   121e4:	fec42783          	lw	a5,-20(s0)
   121e8:	0037c703          	lbu	a4,3(a5)
   121ec:	04600793          	li	a5,70
   121f0:	00f70663          	beq	a4,a5,121fc <.L5>

000121f4 <.L4>:
   121f4:	fff00793          	li	a5,-1
   121f8:	0200006f          	j	12218 <.L6>

000121fc <.L5>:
   121fc:	fec42783          	lw	a5,-20(s0)
   12200:	0047c703          	lbu	a4,4(a5)
   12204:	00200793          	li	a5,2
   12208:	00f70663          	beq	a4,a5,12214 <.L7>

0001220c <.LM12>:
   1220c:	ffe00793          	li	a5,-2
   12210:	0080006f          	j	12218 <.L6>

00012214 <.L7>:
   12214:	00000793          	li	a5,0

00012218 <.L6>:
   12218:	00078513          	mv	a0,a5
   1221c:	02c12403          	lw	s0,44(sp)
   12220:	03010113          	addi	sp,sp,48
   12224:	00008067          	ret

00012228 <elf64_getProgramSegmentTable>:
   12228:	fd010113          	addi	sp,sp,-48
   1222c:	02812623          	sw	s0,44(sp)
   12230:	03010413          	addi	s0,sp,48
   12234:	fca42e23          	sw	a0,-36(s0)

00012238 <.LM16>:
   12238:	fdc42783          	lw	a5,-36(s0)
   1223c:	fef42623          	sw	a5,-20(s0)

00012240 <.LM17>:
   12240:	fec42783          	lw	a5,-20(s0)
   12244:	0207a703          	lw	a4,32(a5)
   12248:	0247a783          	lw	a5,36(a5)
   1224c:	fdc42783          	lw	a5,-36(s0)
   12250:	00f707b3          	add	a5,a4,a5

00012254 <.LM18>:
   12254:	00078513          	mv	a0,a5
   12258:	02c12403          	lw	s0,44(sp)
   1225c:	03010113          	addi	sp,sp,48
   12260:	00008067          	ret

00012264 <elf64_getNumSections>:
   12264:	fd010113          	addi	sp,sp,-48
   12268:	02812623          	sw	s0,44(sp)
   1226c:	03010413          	addi	s0,sp,48
   12270:	fca42e23          	sw	a0,-36(s0)

00012274 <.LM20>:
   12274:	fdc42783          	lw	a5,-36(s0)
   12278:	fef42623          	sw	a5,-20(s0)

0001227c <.LM21>:
   1227c:	fec42783          	lw	a5,-20(s0)
   12280:	03c7d783          	lhu	a5,60(a5)

00012284 <.LM22>:
   12284:	00078513          	mv	a0,a5
   12288:	02c12403          	lw	s0,44(sp)
   1228c:	03010113          	addi	sp,sp,48
   12290:	00008067          	ret

00012294 <elf64_getStringTable>:
   12294:	fd010113          	addi	sp,sp,-48
   12298:	02112623          	sw	ra,44(sp)
   1229c:	02812423          	sw	s0,40(sp)
   122a0:	03010413          	addi	s0,sp,48
   122a4:	fca42e23          	sw	a0,-36(s0)
   122a8:	fcb42c23          	sw	a1,-40(s0)

000122ac <.LM24>:
   122ac:	fdc42503          	lw	a0,-36(s0)
   122b0:	00000297          	auipc	t0,0x0
   122b4:	000280e7          	jalr	t0
   122b8:	fea42623          	sw	a0,-20(s0)

000122bc <.LM25>:
   122bc:	fd842783          	lw	a5,-40(s0)
   122c0:	00679793          	slli	a5,a5,0x6
   122c4:	fec42703          	lw	a4,-20(s0)
   122c8:	00f707b3          	add	a5,a4,a5
   122cc:	0187a703          	lw	a4,24(a5)
   122d0:	01c7a783          	lw	a5,28(a5)
   122d4:	fdc42783          	lw	a5,-36(s0)
   122d8:	00e787b3          	add	a5,a5,a4

000122dc <.LM26>:
   122dc:	00078513          	mv	a0,a5
   122e0:	02c12083          	lw	ra,44(sp)
   122e4:	02812403          	lw	s0,40(sp)
   122e8:	03010113          	addi	sp,sp,48
   122ec:	00008067          	ret

000122f0 <elf64_getSegmentStringTable>:
   122f0:	fd010113          	addi	sp,sp,-48
   122f4:	02112623          	sw	ra,44(sp)
   122f8:	02812423          	sw	s0,40(sp)
   122fc:	03010413          	addi	s0,sp,48
   12300:	fca42e23          	sw	a0,-36(s0)

00012304 <.LM28>:
   12304:	fdc42783          	lw	a5,-36(s0)
   12308:	fef42623          	sw	a5,-20(s0)

0001230c <.LM29>:
   1230c:	fec42783          	lw	a5,-20(s0)
   12310:	03e7d783          	lhu	a5,62(a5)
   12314:	00079663          	bnez	a5,12320 <.L15>

00012318 <.LM30>:
   12318:	00000793          	li	a5,0
   1231c:	0200006f          	j	1233c <.L16>

00012320 <.L15>:
   12320:	fec42783          	lw	a5,-20(s0)
   12324:	03e7d783          	lhu	a5,62(a5)
   12328:	00078593          	mv	a1,a5
   1232c:	fdc42503          	lw	a0,-36(s0)
   12330:	00000297          	auipc	t0,0x0
   12334:	000280e7          	jalr	t0
   12338:	00050793          	mv	a5,a0

0001233c <.L16>:
   1233c:	00078513          	mv	a0,a5
   12340:	02c12083          	lw	ra,44(sp)
   12344:	02812403          	lw	s0,40(sp)
   12348:	03010113          	addi	sp,sp,48
   1234c:	00008067          	ret

00012350 <elf64_getSectionName>:
   12350:	fd010113          	addi	sp,sp,-48
   12354:	02112623          	sw	ra,44(sp)
   12358:	02812423          	sw	s0,40(sp)
   1235c:	03010413          	addi	s0,sp,48
   12360:	fca42e23          	sw	a0,-36(s0)
   12364:	fcb42c23          	sw	a1,-40(s0)

00012368 <.LM34>:
   12368:	fdc42503          	lw	a0,-36(s0)
   1236c:	00000297          	auipc	t0,0x0
   12370:	000280e7          	jalr	t0
   12374:	fea42623          	sw	a0,-20(s0)

00012378 <.LM35>:
   12378:	fdc42503          	lw	a0,-36(s0)
   1237c:	00000297          	auipc	t0,0x0
   12380:	000280e7          	jalr	t0
   12384:	fea42423          	sw	a0,-24(s0)

00012388 <.LM36>:
   12388:	fe842783          	lw	a5,-24(s0)
   1238c:	00079863          	bnez	a5,1239c <.L18>

00012390 <.LM37>:
   12390:	000007b7          	lui	a5,0x0
   12394:	00078793          	mv	a5,a5
   12398:	0200006f          	j	123b8 <.L19>

0001239c <.L18>:
   1239c:	fd842783          	lw	a5,-40(s0)
   123a0:	00679793          	slli	a5,a5,0x6
   123a4:	fec42703          	lw	a4,-20(s0)
   123a8:	00f707b3          	add	a5,a4,a5
   123ac:	0007a783          	lw	a5,0(a5) # 0 <buf.1018>
   123b0:	fe842703          	lw	a4,-24(s0)
   123b4:	00f707b3          	add	a5,a4,a5

000123b8 <.L19>:
   123b8:	00078513          	mv	a0,a5
   123bc:	02c12083          	lw	ra,44(sp)
   123c0:	02812403          	lw	s0,40(sp)
   123c4:	03010113          	addi	sp,sp,48
   123c8:	00008067          	ret

000123cc <elf64_getSectionSize>:
   123cc:	fd010113          	addi	sp,sp,-48
   123d0:	02112623          	sw	ra,44(sp)
   123d4:	02812423          	sw	s0,40(sp)
   123d8:	03010413          	addi	s0,sp,48
   123dc:	fca42e23          	sw	a0,-36(s0)
   123e0:	fcb42c23          	sw	a1,-40(s0)

000123e4 <.LM41>:
   123e4:	fdc42503          	lw	a0,-36(s0)
   123e8:	00000297          	auipc	t0,0x0
   123ec:	000280e7          	jalr	t0
   123f0:	fea42623          	sw	a0,-20(s0)

000123f4 <.LM42>:
   123f4:	fd842783          	lw	a5,-40(s0)
   123f8:	00679793          	slli	a5,a5,0x6
   123fc:	fec42703          	lw	a4,-20(s0)
   12400:	00f707b3          	add	a5,a4,a5
   12404:	0207a703          	lw	a4,32(a5)
   12408:	0247a783          	lw	a5,36(a5)

0001240c <.LM43>:
   1240c:	00070513          	mv	a0,a4
   12410:	00078593          	mv	a1,a5
   12414:	02c12083          	lw	ra,44(sp)
   12418:	02812403          	lw	s0,40(sp)
   1241c:	03010113          	addi	sp,sp,48
   12420:	00008067          	ret

00012424 <elf64_getSectionAddr>:
   12424:	fd010113          	addi	sp,sp,-48
   12428:	02112623          	sw	ra,44(sp)
   1242c:	02812423          	sw	s0,40(sp)
   12430:	03010413          	addi	s0,sp,48
   12434:	fca42e23          	sw	a0,-36(s0)
   12438:	fcb42c23          	sw	a1,-40(s0)

0001243c <.LM45>:
   1243c:	fdc42503          	lw	a0,-36(s0)
   12440:	00000297          	auipc	t0,0x0
   12444:	000280e7          	jalr	t0
   12448:	fea42623          	sw	a0,-20(s0)

0001244c <.LM46>:
   1244c:	fd842783          	lw	a5,-40(s0)
   12450:	00679793          	slli	a5,a5,0x6
   12454:	fec42703          	lw	a4,-20(s0)
   12458:	00f707b3          	add	a5,a4,a5
   1245c:	0107a703          	lw	a4,16(a5)
   12460:	0147a783          	lw	a5,20(a5)

00012464 <.LM47>:
   12464:	00070513          	mv	a0,a4
   12468:	00078593          	mv	a1,a5
   1246c:	02c12083          	lw	ra,44(sp)
   12470:	02812403          	lw	s0,40(sp)
   12474:	03010113          	addi	sp,sp,48
   12478:	00008067          	ret

0001247c <elf64_getSection>:
   1247c:	fd010113          	addi	sp,sp,-48
   12480:	02112623          	sw	ra,44(sp)
   12484:	02812423          	sw	s0,40(sp)
   12488:	03010413          	addi	s0,sp,48
   1248c:	fca42e23          	sw	a0,-36(s0)
   12490:	fcb42c23          	sw	a1,-40(s0)

00012494 <.LM49>:
   12494:	fdc42503          	lw	a0,-36(s0)
   12498:	00000297          	auipc	t0,0x0
   1249c:	000280e7          	jalr	t0
   124a0:	fea42623          	sw	a0,-20(s0)

000124a4 <.LM50>:
   124a4:	fd842783          	lw	a5,-40(s0)
   124a8:	00679793          	slli	a5,a5,0x6
   124ac:	fec42703          	lw	a4,-20(s0)
   124b0:	00f707b3          	add	a5,a4,a5
   124b4:	0187a703          	lw	a4,24(a5)
   124b8:	01c7a783          	lw	a5,28(a5)
   124bc:	fdc42783          	lw	a5,-36(s0)
   124c0:	00e787b3          	add	a5,a5,a4

000124c4 <.LM51>:
   124c4:	00078513          	mv	a0,a5
   124c8:	02c12083          	lw	ra,44(sp)
   124cc:	02812403          	lw	s0,40(sp)
   124d0:	03010113          	addi	sp,sp,48
   124d4:	00008067          	ret

000124d8 <elf64_getSectionNamed>:
   124d8:	fd010113          	addi	sp,sp,-48
   124dc:	02112623          	sw	ra,44(sp)
   124e0:	02812423          	sw	s0,40(sp)
   124e4:	03010413          	addi	s0,sp,48
   124e8:	fca42e23          	sw	a0,-36(s0)
   124ec:	fcb42c23          	sw	a1,-40(s0)

000124f0 <.LM53>:
   124f0:	fdc42503          	lw	a0,-36(s0)
   124f4:	00000297          	auipc	t0,0x0
   124f8:	000280e7          	jalr	t0
   124fc:	00050793          	mv	a5,a0
   12500:	fef42423          	sw	a5,-24(s0)

00012504 <.LM54>:
   12504:	fe042623          	sw	zero,-20(s0)
   12508:	0540006f          	j	1255c <.L27>

0001250c <.L30>:
   1250c:	fec42583          	lw	a1,-20(s0)
   12510:	fdc42503          	lw	a0,-36(s0)
   12514:	00000297          	auipc	t0,0x0
   12518:	000280e7          	jalr	t0
   1251c:	00050793          	mv	a5,a0
   12520:	00078593          	mv	a1,a5
   12524:	fd842503          	lw	a0,-40(s0)
   12528:	00000297          	auipc	t0,0x0
   1252c:	000280e7          	jalr	t0
   12530:	00050793          	mv	a5,a0
   12534:	00079e63          	bnez	a5,12550 <.L28>

00012538 <.LM56>:
   12538:	fec42583          	lw	a1,-20(s0)
   1253c:	fdc42503          	lw	a0,-36(s0)
   12540:	00000297          	auipc	t0,0x0
   12544:	000280e7          	jalr	t0
   12548:	00050793          	mv	a5,a0
   1254c:	0200006f          	j	1256c <.L29>

00012550 <.L28>:
   12550:	fec42783          	lw	a5,-20(s0)
   12554:	00178793          	addi	a5,a5,1
   12558:	fef42623          	sw	a5,-20(s0)

0001255c <.L27>:
   1255c:	fec42703          	lw	a4,-20(s0)
   12560:	fe842783          	lw	a5,-24(s0)
   12564:	faf744e3          	blt	a4,a5,1250c <.L30>

00012568 <.LM59>:
   12568:	00000793          	li	a5,0

0001256c <.L29>:
   1256c:	00078513          	mv	a0,a5
   12570:	02c12083          	lw	ra,44(sp)
   12574:	02812403          	lw	s0,40(sp)
   12578:	03010113          	addi	sp,sp,48
   1257c:	00008067          	ret

00012580 <elf64_getNumProgramHeaders>:
   12580:	fe010113          	addi	sp,sp,-32
   12584:	00812e23          	sw	s0,28(sp)
   12588:	02010413          	addi	s0,sp,32
   1258c:	fea42623          	sw	a0,-20(s0)

00012590 <.LM62>:
   12590:	fec42783          	lw	a5,-20(s0)
   12594:	0387d783          	lhu	a5,56(a5)

00012598 <.LM63>:
   12598:	00078513          	mv	a0,a5
   1259c:	01c12403          	lw	s0,28(sp)
   125a0:	02010113          	addi	sp,sp,32
   125a4:	00008067          	ret

000125a8 <elf64_getSegmentType>:
   125a8:	fe010113          	addi	sp,sp,-32
   125ac:	00112e23          	sw	ra,28(sp)
   125b0:	00812c23          	sw	s0,24(sp)
   125b4:	02010413          	addi	s0,sp,32
   125b8:	fea42623          	sw	a0,-20(s0)
   125bc:	feb42423          	sw	a1,-24(s0)

000125c0 <.LM65>:
   125c0:	fec42503          	lw	a0,-20(s0)
   125c4:	00000297          	auipc	t0,0x0
   125c8:	000280e7          	jalr	t0
   125cc:	00050693          	mv	a3,a0
   125d0:	fe842783          	lw	a5,-24(s0)
   125d4:	00379793          	slli	a5,a5,0x3
   125d8:	00379713          	slli	a4,a5,0x3
   125dc:	40f707b3          	sub	a5,a4,a5
   125e0:	00f687b3          	add	a5,a3,a5
   125e4:	0007a783          	lw	a5,0(a5)

000125e8 <.LM66>:
   125e8:	00078513          	mv	a0,a5
   125ec:	01c12083          	lw	ra,28(sp)
   125f0:	01812403          	lw	s0,24(sp)
   125f4:	02010113          	addi	sp,sp,32
   125f8:	00008067          	ret

000125fc <elf64_getSegmentInfo>:
   125fc:	fc010113          	addi	sp,sp,-64
   12600:	02112e23          	sw	ra,60(sp)
   12604:	02812c23          	sw	s0,56(sp)
   12608:	04010413          	addi	s0,sp,64
   1260c:	fca42e23          	sw	a0,-36(s0)
   12610:	fcb42c23          	sw	a1,-40(s0)
   12614:	fcc42a23          	sw	a2,-44(s0)
   12618:	fcd42823          	sw	a3,-48(s0)
   1261c:	fce42623          	sw	a4,-52(s0)
   12620:	fcf42423          	sw	a5,-56(s0)
   12624:	fd042223          	sw	a6,-60(s0)

00012628 <.LM68>:
   12628:	fdc42503          	lw	a0,-36(s0)
   1262c:	00000297          	auipc	t0,0x0
   12630:	000280e7          	jalr	t0
   12634:	fea42623          	sw	a0,-20(s0)

00012638 <.LM69>:
   12638:	fd842783          	lw	a5,-40(s0)
   1263c:	00379793          	slli	a5,a5,0x3
   12640:	00379713          	slli	a4,a5,0x3
   12644:	40f707b3          	sub	a5,a4,a5
   12648:	fec42703          	lw	a4,-20(s0)
   1264c:	00f707b3          	add	a5,a4,a5
   12650:	0107a703          	lw	a4,16(a5)
   12654:	0147a783          	lw	a5,20(a5)
   12658:	fd442683          	lw	a3,-44(s0)
   1265c:	00e6a023          	sw	a4,0(a3) # 0 <buf.1018>
   12660:	00f6a223          	sw	a5,4(a3)

00012664 <.LM70>:
   12664:	fd842783          	lw	a5,-40(s0)
   12668:	00379793          	slli	a5,a5,0x3
   1266c:	00379713          	slli	a4,a5,0x3
   12670:	40f707b3          	sub	a5,a4,a5
   12674:	fec42703          	lw	a4,-20(s0)
   12678:	00f707b3          	add	a5,a4,a5
   1267c:	0187a703          	lw	a4,24(a5)
   12680:	01c7a783          	lw	a5,28(a5)
   12684:	fd042683          	lw	a3,-48(s0)
   12688:	00e6a023          	sw	a4,0(a3)
   1268c:	00f6a223          	sw	a5,4(a3)

00012690 <.LM71>:
   12690:	fd842783          	lw	a5,-40(s0)
   12694:	00379793          	slli	a5,a5,0x3
   12698:	00379713          	slli	a4,a5,0x3
   1269c:	40f707b3          	sub	a5,a4,a5
   126a0:	fec42703          	lw	a4,-20(s0)
   126a4:	00f707b3          	add	a5,a4,a5
   126a8:	0207a703          	lw	a4,32(a5)
   126ac:	0247a783          	lw	a5,36(a5)
   126b0:	fcc42683          	lw	a3,-52(s0)
   126b4:	00e6a023          	sw	a4,0(a3)
   126b8:	00f6a223          	sw	a5,4(a3)

000126bc <.LM72>:
   126bc:	fd842783          	lw	a5,-40(s0)
   126c0:	00379793          	slli	a5,a5,0x3
   126c4:	00379713          	slli	a4,a5,0x3
   126c8:	40f707b3          	sub	a5,a4,a5
   126cc:	fec42703          	lw	a4,-20(s0)
   126d0:	00f707b3          	add	a5,a4,a5
   126d4:	0087a703          	lw	a4,8(a5)
   126d8:	00c7a783          	lw	a5,12(a5)
   126dc:	fc842683          	lw	a3,-56(s0)
   126e0:	00e6a023          	sw	a4,0(a3)
   126e4:	00f6a223          	sw	a5,4(a3)

000126e8 <.LM73>:
   126e8:	fd842783          	lw	a5,-40(s0)
   126ec:	00379793          	slli	a5,a5,0x3
   126f0:	00379713          	slli	a4,a5,0x3
   126f4:	40f707b3          	sub	a5,a4,a5
   126f8:	fec42703          	lw	a4,-20(s0)
   126fc:	00f707b3          	add	a5,a4,a5
   12700:	0287a703          	lw	a4,40(a5)
   12704:	02c7a783          	lw	a5,44(a5)
   12708:	fc442683          	lw	a3,-60(s0)
   1270c:	00e6a023          	sw	a4,0(a3)
   12710:	00f6a223          	sw	a5,4(a3)

00012714 <.LM74>:
   12714:	00000013          	nop
   12718:	03c12083          	lw	ra,60(sp)
   1271c:	03812403          	lw	s0,56(sp)
   12720:	04010113          	addi	sp,sp,64
   12724:	00008067          	ret

00012728 <elf64_getEntryPoint>:
   12728:	fe010113          	addi	sp,sp,-32
   1272c:	00812e23          	sw	s0,28(sp)
   12730:	02010413          	addi	s0,sp,32
   12734:	fea42623          	sw	a0,-20(s0)

00012738 <.LM76>:
   12738:	fec42783          	lw	a5,-20(s0)
   1273c:	0187a703          	lw	a4,24(a5)
   12740:	01c7a783          	lw	a5,28(a5)

00012744 <.LM77>:
   12744:	00070513          	mv	a0,a4
   12748:	00078593          	mv	a1,a5
   1274c:	01c12403          	lw	s0,28(sp)
   12750:	02010113          	addi	sp,sp,32
   12754:	00008067          	ret

00012758 <elf32_getSectionTable>:
   12758:	fe010113          	addi	sp,sp,-32
   1275c:	00812e23          	sw	s0,28(sp)
   12760:	02010413          	addi	s0,sp,32
   12764:	fea42623          	sw	a0,-20(s0)

00012768 <.LM2>:
   12768:	fec42783          	lw	a5,-20(s0)
   1276c:	0207a703          	lw	a4,32(a5)
   12770:	fec42783          	lw	a5,-20(s0)
   12774:	00f707b3          	add	a5,a4,a5

00012778 <.LM3>:
   12778:	00078513          	mv	a0,a5
   1277c:	01c12403          	lw	s0,28(sp)
   12780:	02010113          	addi	sp,sp,32
   12784:	00008067          	ret

00012788 <elf32_getSectionType>:
   12788:	fe010113          	addi	sp,sp,-32
   1278c:	00112e23          	sw	ra,28(sp)
   12790:	00812c23          	sw	s0,24(sp)
   12794:	02010413          	addi	s0,sp,32
   12798:	fea42623          	sw	a0,-20(s0)
   1279c:	00058793          	mv	a5,a1
   127a0:	fef41523          	sh	a5,-22(s0)

000127a4 <.LM5>:
   127a4:	fec42503          	lw	a0,-20(s0)
   127a8:	00000297          	auipc	t0,0x0
   127ac:	000280e7          	jalr	t0
   127b0:	00050693          	mv	a3,a0
   127b4:	fea45783          	lhu	a5,-22(s0)
   127b8:	00379793          	slli	a5,a5,0x3
   127bc:	00279713          	slli	a4,a5,0x2
   127c0:	00e787b3          	add	a5,a5,a4
   127c4:	00f687b3          	add	a5,a3,a5
   127c8:	0047a783          	lw	a5,4(a5)

000127cc <.LM6>:
   127cc:	00078513          	mv	a0,a5
   127d0:	01c12083          	lw	ra,28(sp)
   127d4:	01812403          	lw	s0,24(sp)
   127d8:	02010113          	addi	sp,sp,32
   127dc:	00008067          	ret

000127e0 <elf32_getSectionFlags>:
   127e0:	fe010113          	addi	sp,sp,-32
   127e4:	00112e23          	sw	ra,28(sp)
   127e8:	00812c23          	sw	s0,24(sp)
   127ec:	02010413          	addi	s0,sp,32
   127f0:	fea42623          	sw	a0,-20(s0)
   127f4:	00058793          	mv	a5,a1
   127f8:	fef41523          	sh	a5,-22(s0)

000127fc <.LM8>:
   127fc:	fec42503          	lw	a0,-20(s0)
   12800:	00000297          	auipc	t0,0x0
   12804:	000280e7          	jalr	t0
   12808:	00050693          	mv	a3,a0
   1280c:	fea45783          	lhu	a5,-22(s0)
   12810:	00379793          	slli	a5,a5,0x3
   12814:	00279713          	slli	a4,a5,0x2
   12818:	00e787b3          	add	a5,a5,a4
   1281c:	00f687b3          	add	a5,a3,a5
   12820:	0087a783          	lw	a5,8(a5)

00012824 <.LM9>:
   12824:	00078513          	mv	a0,a5
   12828:	01c12083          	lw	ra,28(sp)
   1282c:	01812403          	lw	s0,24(sp)
   12830:	02010113          	addi	sp,sp,32
   12834:	00008067          	ret

00012838 <elf32_getProgramHeaderTable>:
   12838:	fe010113          	addi	sp,sp,-32
   1283c:	00812e23          	sw	s0,28(sp)
   12840:	02010413          	addi	s0,sp,32
   12844:	fea42623          	sw	a0,-20(s0)

00012848 <.LM11>:
   12848:	fec42783          	lw	a5,-20(s0)
   1284c:	01c7a703          	lw	a4,28(a5)
   12850:	fec42783          	lw	a5,-20(s0)
   12854:	00f707b3          	add	a5,a4,a5

00012858 <.LM12>:
   12858:	00078513          	mv	a0,a5
   1285c:	01c12403          	lw	s0,28(sp)
   12860:	02010113          	addi	sp,sp,32
   12864:	00008067          	ret

00012868 <elf32_getProgramHeaderFlags>:
   12868:	fe010113          	addi	sp,sp,-32
   1286c:	00112e23          	sw	ra,28(sp)
   12870:	00812c23          	sw	s0,24(sp)
   12874:	02010413          	addi	s0,sp,32
   12878:	fea42623          	sw	a0,-20(s0)
   1287c:	00058793          	mv	a5,a1
   12880:	fef41523          	sh	a5,-22(s0)

00012884 <.LM14>:
   12884:	fec42503          	lw	a0,-20(s0)
   12888:	00000297          	auipc	t0,0x0
   1288c:	000280e7          	jalr	t0
   12890:	00050713          	mv	a4,a0
   12894:	fea45783          	lhu	a5,-22(s0)
   12898:	00579793          	slli	a5,a5,0x5
   1289c:	00f707b3          	add	a5,a4,a5
   128a0:	0187a783          	lw	a5,24(a5)

000128a4 <.LM15>:
   128a4:	00078513          	mv	a0,a5
   128a8:	01c12083          	lw	ra,28(sp)
   128ac:	01812403          	lw	s0,24(sp)
   128b0:	02010113          	addi	sp,sp,32
   128b4:	00008067          	ret

000128b8 <elf32_getProgramHeaderType>:
   128b8:	fe010113          	addi	sp,sp,-32
   128bc:	00112e23          	sw	ra,28(sp)
   128c0:	00812c23          	sw	s0,24(sp)
   128c4:	02010413          	addi	s0,sp,32
   128c8:	fea42623          	sw	a0,-20(s0)
   128cc:	00058793          	mv	a5,a1
   128d0:	fef41523          	sh	a5,-22(s0)

000128d4 <.LM17>:
   128d4:	fec42503          	lw	a0,-20(s0)
   128d8:	00000297          	auipc	t0,0x0
   128dc:	000280e7          	jalr	t0
   128e0:	00050713          	mv	a4,a0
   128e4:	fea45783          	lhu	a5,-22(s0)
   128e8:	00579793          	slli	a5,a5,0x5
   128ec:	00f707b3          	add	a5,a4,a5
   128f0:	0007a783          	lw	a5,0(a5)

000128f4 <.LM18>:
   128f4:	00078513          	mv	a0,a5
   128f8:	01c12083          	lw	ra,28(sp)
   128fc:	01812403          	lw	s0,24(sp)
   12900:	02010113          	addi	sp,sp,32
   12904:	00008067          	ret

00012908 <elf32_getProgramHeaderFileSize>:
   12908:	fe010113          	addi	sp,sp,-32
   1290c:	00112e23          	sw	ra,28(sp)
   12910:	00812c23          	sw	s0,24(sp)
   12914:	02010413          	addi	s0,sp,32
   12918:	fea42623          	sw	a0,-20(s0)
   1291c:	00058793          	mv	a5,a1
   12920:	fef41523          	sh	a5,-22(s0)

00012924 <.LM20>:
   12924:	fec42503          	lw	a0,-20(s0)
   12928:	00000297          	auipc	t0,0x0
   1292c:	000280e7          	jalr	t0
   12930:	00050713          	mv	a4,a0
   12934:	fea45783          	lhu	a5,-22(s0)
   12938:	00579793          	slli	a5,a5,0x5
   1293c:	00f707b3          	add	a5,a4,a5
   12940:	0107a783          	lw	a5,16(a5)

00012944 <.LM21>:
   12944:	00078513          	mv	a0,a5
   12948:	01c12083          	lw	ra,28(sp)
   1294c:	01812403          	lw	s0,24(sp)
   12950:	02010113          	addi	sp,sp,32
   12954:	00008067          	ret

00012958 <elf32_getProgramHeaderMemorySize>:
   12958:	fe010113          	addi	sp,sp,-32
   1295c:	00112e23          	sw	ra,28(sp)
   12960:	00812c23          	sw	s0,24(sp)
   12964:	02010413          	addi	s0,sp,32
   12968:	fea42623          	sw	a0,-20(s0)
   1296c:	00058793          	mv	a5,a1
   12970:	fef41523          	sh	a5,-22(s0)

00012974 <.LM23>:
   12974:	fec42503          	lw	a0,-20(s0)
   12978:	00000297          	auipc	t0,0x0
   1297c:	000280e7          	jalr	t0
   12980:	00050713          	mv	a4,a0
   12984:	fea45783          	lhu	a5,-22(s0)
   12988:	00579793          	slli	a5,a5,0x5
   1298c:	00f707b3          	add	a5,a4,a5
   12990:	0147a783          	lw	a5,20(a5)

00012994 <.LM24>:
   12994:	00078513          	mv	a0,a5
   12998:	01c12083          	lw	ra,28(sp)
   1299c:	01812403          	lw	s0,24(sp)
   129a0:	02010113          	addi	sp,sp,32
   129a4:	00008067          	ret

000129a8 <elf32_getProgramHeaderVaddr>:
   129a8:	fe010113          	addi	sp,sp,-32
   129ac:	00112e23          	sw	ra,28(sp)
   129b0:	00812c23          	sw	s0,24(sp)
   129b4:	02010413          	addi	s0,sp,32
   129b8:	fea42623          	sw	a0,-20(s0)
   129bc:	00058793          	mv	a5,a1
   129c0:	fef41523          	sh	a5,-22(s0)

000129c4 <.LM26>:
   129c4:	fec42503          	lw	a0,-20(s0)
   129c8:	00000297          	auipc	t0,0x0
   129cc:	000280e7          	jalr	t0
   129d0:	00050713          	mv	a4,a0
   129d4:	fea45783          	lhu	a5,-22(s0)
   129d8:	00579793          	slli	a5,a5,0x5
   129dc:	00f707b3          	add	a5,a4,a5
   129e0:	0087a783          	lw	a5,8(a5)

000129e4 <.LM27>:
   129e4:	00078513          	mv	a0,a5
   129e8:	01c12083          	lw	ra,28(sp)
   129ec:	01812403          	lw	s0,24(sp)
   129f0:	02010113          	addi	sp,sp,32
   129f4:	00008067          	ret

000129f8 <elf32_getProgramHeaderPaddr>:
   129f8:	fe010113          	addi	sp,sp,-32
   129fc:	00112e23          	sw	ra,28(sp)
   12a00:	00812c23          	sw	s0,24(sp)
   12a04:	02010413          	addi	s0,sp,32
   12a08:	fea42623          	sw	a0,-20(s0)
   12a0c:	00058793          	mv	a5,a1
   12a10:	fef41523          	sh	a5,-22(s0)

00012a14 <.LM29>:
   12a14:	fec42503          	lw	a0,-20(s0)
   12a18:	00000297          	auipc	t0,0x0
   12a1c:	000280e7          	jalr	t0
   12a20:	00050713          	mv	a4,a0
   12a24:	fea45783          	lhu	a5,-22(s0)
   12a28:	00579793          	slli	a5,a5,0x5
   12a2c:	00f707b3          	add	a5,a4,a5
   12a30:	00c7a783          	lw	a5,12(a5)

00012a34 <.LM30>:
   12a34:	00078513          	mv	a0,a5
   12a38:	01c12083          	lw	ra,28(sp)
   12a3c:	01812403          	lw	s0,24(sp)
   12a40:	02010113          	addi	sp,sp,32
   12a44:	00008067          	ret

00012a48 <elf32_getProgramHeaderOffset>:
   12a48:	fe010113          	addi	sp,sp,-32
   12a4c:	00112e23          	sw	ra,28(sp)
   12a50:	00812c23          	sw	s0,24(sp)
   12a54:	02010413          	addi	s0,sp,32
   12a58:	fea42623          	sw	a0,-20(s0)
   12a5c:	00058793          	mv	a5,a1
   12a60:	fef41523          	sh	a5,-22(s0)

00012a64 <.LM32>:
   12a64:	fec42503          	lw	a0,-20(s0)
   12a68:	00000297          	auipc	t0,0x0
   12a6c:	000280e7          	jalr	t0
   12a70:	00050713          	mv	a4,a0
   12a74:	fea45783          	lhu	a5,-22(s0)
   12a78:	00579793          	slli	a5,a5,0x5
   12a7c:	00f707b3          	add	a5,a4,a5
   12a80:	0047a783          	lw	a5,4(a5)

00012a84 <.LM33>:
   12a84:	00078513          	mv	a0,a5
   12a88:	01c12083          	lw	ra,28(sp)
   12a8c:	01812403          	lw	s0,24(sp)
   12a90:	02010113          	addi	sp,sp,32
   12a94:	00008067          	ret

00012a98 <elf64_getSectionTable>:
   12a98:	fe010113          	addi	sp,sp,-32
   12a9c:	00812e23          	sw	s0,28(sp)
   12aa0:	02010413          	addi	s0,sp,32
   12aa4:	fea42623          	sw	a0,-20(s0)

00012aa8 <.LM35>:
   12aa8:	fec42783          	lw	a5,-20(s0)
   12aac:	0287a703          	lw	a4,40(a5)
   12ab0:	02c7a783          	lw	a5,44(a5)
   12ab4:	fec42783          	lw	a5,-20(s0)
   12ab8:	00f707b3          	add	a5,a4,a5

00012abc <.LM36>:
   12abc:	00078513          	mv	a0,a5
   12ac0:	01c12403          	lw	s0,28(sp)
   12ac4:	02010113          	addi	sp,sp,32
   12ac8:	00008067          	ret

00012acc <elf64_getSectionType>:
   12acc:	fe010113          	addi	sp,sp,-32
   12ad0:	00112e23          	sw	ra,28(sp)
   12ad4:	00812c23          	sw	s0,24(sp)
   12ad8:	02010413          	addi	s0,sp,32
   12adc:	fea42623          	sw	a0,-20(s0)
   12ae0:	00058793          	mv	a5,a1
   12ae4:	fef41523          	sh	a5,-22(s0)

00012ae8 <.LM38>:
   12ae8:	fec42503          	lw	a0,-20(s0)
   12aec:	00000297          	auipc	t0,0x0
   12af0:	000280e7          	jalr	t0
   12af4:	00050713          	mv	a4,a0
   12af8:	fea45783          	lhu	a5,-22(s0)
   12afc:	00679793          	slli	a5,a5,0x6
   12b00:	00f707b3          	add	a5,a4,a5
   12b04:	0047a783          	lw	a5,4(a5)

00012b08 <.LM39>:
   12b08:	00078513          	mv	a0,a5
   12b0c:	01c12083          	lw	ra,28(sp)
   12b10:	01812403          	lw	s0,24(sp)
   12b14:	02010113          	addi	sp,sp,32
   12b18:	00008067          	ret

00012b1c <elf64_getSectionFlags>:
   12b1c:	fe010113          	addi	sp,sp,-32
   12b20:	00112e23          	sw	ra,28(sp)
   12b24:	00812c23          	sw	s0,24(sp)
   12b28:	02010413          	addi	s0,sp,32
   12b2c:	fea42623          	sw	a0,-20(s0)
   12b30:	00058793          	mv	a5,a1
   12b34:	fef41523          	sh	a5,-22(s0)

00012b38 <.LM41>:
   12b38:	fec42503          	lw	a0,-20(s0)
   12b3c:	00000297          	auipc	t0,0x0
   12b40:	000280e7          	jalr	t0
   12b44:	00050713          	mv	a4,a0
   12b48:	fea45783          	lhu	a5,-22(s0)
   12b4c:	00679793          	slli	a5,a5,0x6
   12b50:	00f707b3          	add	a5,a4,a5
   12b54:	0087a703          	lw	a4,8(a5)
   12b58:	00c7a783          	lw	a5,12(a5)
   12b5c:	00070793          	mv	a5,a4

00012b60 <.LM42>:
   12b60:	00078513          	mv	a0,a5
   12b64:	01c12083          	lw	ra,28(sp)
   12b68:	01812403          	lw	s0,24(sp)
   12b6c:	02010113          	addi	sp,sp,32
   12b70:	00008067          	ret

00012b74 <elf64_getProgramHeaderTable>:
   12b74:	fe010113          	addi	sp,sp,-32
   12b78:	00812e23          	sw	s0,28(sp)
   12b7c:	02010413          	addi	s0,sp,32
   12b80:	fea42623          	sw	a0,-20(s0)

00012b84 <.LM44>:
   12b84:	fec42783          	lw	a5,-20(s0)
   12b88:	0207a703          	lw	a4,32(a5)
   12b8c:	0247a783          	lw	a5,36(a5)
   12b90:	fec42783          	lw	a5,-20(s0)
   12b94:	00f707b3          	add	a5,a4,a5

00012b98 <.LM45>:
   12b98:	00078513          	mv	a0,a5
   12b9c:	01c12403          	lw	s0,28(sp)
   12ba0:	02010113          	addi	sp,sp,32
   12ba4:	00008067          	ret

00012ba8 <elf64_getProgramHeaderFlags>:
   12ba8:	fe010113          	addi	sp,sp,-32
   12bac:	00112e23          	sw	ra,28(sp)
   12bb0:	00812c23          	sw	s0,24(sp)
   12bb4:	02010413          	addi	s0,sp,32
   12bb8:	fea42623          	sw	a0,-20(s0)
   12bbc:	00058793          	mv	a5,a1
   12bc0:	fef41523          	sh	a5,-22(s0)

00012bc4 <.LM47>:
   12bc4:	fec42503          	lw	a0,-20(s0)
   12bc8:	00000297          	auipc	t0,0x0
   12bcc:	000280e7          	jalr	t0
   12bd0:	00050693          	mv	a3,a0
   12bd4:	fea45783          	lhu	a5,-22(s0)
   12bd8:	00379793          	slli	a5,a5,0x3
   12bdc:	00379713          	slli	a4,a5,0x3
   12be0:	40f707b3          	sub	a5,a4,a5
   12be4:	00f687b3          	add	a5,a3,a5
   12be8:	0047a783          	lw	a5,4(a5)

00012bec <.LM48>:
   12bec:	00078513          	mv	a0,a5
   12bf0:	01c12083          	lw	ra,28(sp)
   12bf4:	01812403          	lw	s0,24(sp)
   12bf8:	02010113          	addi	sp,sp,32
   12bfc:	00008067          	ret

00012c00 <elf64_getProgramHeaderType>:
   12c00:	fe010113          	addi	sp,sp,-32
   12c04:	00112e23          	sw	ra,28(sp)
   12c08:	00812c23          	sw	s0,24(sp)
   12c0c:	02010413          	addi	s0,sp,32
   12c10:	fea42623          	sw	a0,-20(s0)
   12c14:	00058793          	mv	a5,a1
   12c18:	fef41523          	sh	a5,-22(s0)

00012c1c <.LM50>:
   12c1c:	fec42503          	lw	a0,-20(s0)
   12c20:	00000297          	auipc	t0,0x0
   12c24:	000280e7          	jalr	t0
   12c28:	00050693          	mv	a3,a0
   12c2c:	fea45783          	lhu	a5,-22(s0)
   12c30:	00379793          	slli	a5,a5,0x3
   12c34:	00379713          	slli	a4,a5,0x3
   12c38:	40f707b3          	sub	a5,a4,a5
   12c3c:	00f687b3          	add	a5,a3,a5
   12c40:	0007a783          	lw	a5,0(a5)

00012c44 <.LM51>:
   12c44:	00078513          	mv	a0,a5
   12c48:	01c12083          	lw	ra,28(sp)
   12c4c:	01812403          	lw	s0,24(sp)
   12c50:	02010113          	addi	sp,sp,32
   12c54:	00008067          	ret

00012c58 <elf64_getProgramHeaderFileSize>:
   12c58:	fe010113          	addi	sp,sp,-32
   12c5c:	00112e23          	sw	ra,28(sp)
   12c60:	00812c23          	sw	s0,24(sp)
   12c64:	02010413          	addi	s0,sp,32
   12c68:	fea42623          	sw	a0,-20(s0)
   12c6c:	00058793          	mv	a5,a1
   12c70:	fef41523          	sh	a5,-22(s0)

00012c74 <.LM53>:
   12c74:	fec42503          	lw	a0,-20(s0)
   12c78:	00000297          	auipc	t0,0x0
   12c7c:	000280e7          	jalr	t0
   12c80:	00050693          	mv	a3,a0
   12c84:	fea45783          	lhu	a5,-22(s0)
   12c88:	00379793          	slli	a5,a5,0x3
   12c8c:	00379713          	slli	a4,a5,0x3
   12c90:	40f707b3          	sub	a5,a4,a5
   12c94:	00f687b3          	add	a5,a3,a5
   12c98:	0207a703          	lw	a4,32(a5)
   12c9c:	0247a783          	lw	a5,36(a5)

00012ca0 <.LM54>:
   12ca0:	00070513          	mv	a0,a4
   12ca4:	00078593          	mv	a1,a5
   12ca8:	01c12083          	lw	ra,28(sp)
   12cac:	01812403          	lw	s0,24(sp)
   12cb0:	02010113          	addi	sp,sp,32
   12cb4:	00008067          	ret

00012cb8 <elf64_getProgramHeaderMemorySize>:
   12cb8:	fe010113          	addi	sp,sp,-32
   12cbc:	00112e23          	sw	ra,28(sp)
   12cc0:	00812c23          	sw	s0,24(sp)
   12cc4:	02010413          	addi	s0,sp,32
   12cc8:	fea42623          	sw	a0,-20(s0)
   12ccc:	00058793          	mv	a5,a1
   12cd0:	fef41523          	sh	a5,-22(s0)

00012cd4 <.LM56>:
   12cd4:	fec42503          	lw	a0,-20(s0)
   12cd8:	00000297          	auipc	t0,0x0
   12cdc:	000280e7          	jalr	t0
   12ce0:	00050693          	mv	a3,a0
   12ce4:	fea45783          	lhu	a5,-22(s0)
   12ce8:	00379793          	slli	a5,a5,0x3
   12cec:	00379713          	slli	a4,a5,0x3
   12cf0:	40f707b3          	sub	a5,a4,a5
   12cf4:	00f687b3          	add	a5,a3,a5
   12cf8:	0287a703          	lw	a4,40(a5)
   12cfc:	02c7a783          	lw	a5,44(a5)

00012d00 <.LM57>:
   12d00:	00070513          	mv	a0,a4
   12d04:	00078593          	mv	a1,a5
   12d08:	01c12083          	lw	ra,28(sp)
   12d0c:	01812403          	lw	s0,24(sp)
   12d10:	02010113          	addi	sp,sp,32
   12d14:	00008067          	ret

00012d18 <elf64_getProgramHeaderVaddr>:
   12d18:	fe010113          	addi	sp,sp,-32
   12d1c:	00112e23          	sw	ra,28(sp)
   12d20:	00812c23          	sw	s0,24(sp)
   12d24:	02010413          	addi	s0,sp,32
   12d28:	fea42623          	sw	a0,-20(s0)
   12d2c:	00058793          	mv	a5,a1
   12d30:	fef41523          	sh	a5,-22(s0)

00012d34 <.LM59>:
   12d34:	fec42503          	lw	a0,-20(s0)
   12d38:	00000297          	auipc	t0,0x0
   12d3c:	000280e7          	jalr	t0
   12d40:	00050693          	mv	a3,a0
   12d44:	fea45783          	lhu	a5,-22(s0)
   12d48:	00379793          	slli	a5,a5,0x3
   12d4c:	00379713          	slli	a4,a5,0x3
   12d50:	40f707b3          	sub	a5,a4,a5
   12d54:	00f687b3          	add	a5,a3,a5
   12d58:	0107a703          	lw	a4,16(a5)
   12d5c:	0147a783          	lw	a5,20(a5)

00012d60 <.LM60>:
   12d60:	00070513          	mv	a0,a4
   12d64:	00078593          	mv	a1,a5
   12d68:	01c12083          	lw	ra,28(sp)
   12d6c:	01812403          	lw	s0,24(sp)
   12d70:	02010113          	addi	sp,sp,32
   12d74:	00008067          	ret

00012d78 <elf64_getProgramHeaderPaddr>:
   12d78:	fe010113          	addi	sp,sp,-32
   12d7c:	00112e23          	sw	ra,28(sp)
   12d80:	00812c23          	sw	s0,24(sp)
   12d84:	02010413          	addi	s0,sp,32
   12d88:	fea42623          	sw	a0,-20(s0)
   12d8c:	00058793          	mv	a5,a1
   12d90:	fef41523          	sh	a5,-22(s0)

00012d94 <.LM62>:
   12d94:	fec42503          	lw	a0,-20(s0)
   12d98:	00000297          	auipc	t0,0x0
   12d9c:	000280e7          	jalr	t0
   12da0:	00050693          	mv	a3,a0
   12da4:	fea45783          	lhu	a5,-22(s0)
   12da8:	00379793          	slli	a5,a5,0x3
   12dac:	00379713          	slli	a4,a5,0x3
   12db0:	40f707b3          	sub	a5,a4,a5
   12db4:	00f687b3          	add	a5,a3,a5
   12db8:	0187a703          	lw	a4,24(a5)
   12dbc:	01c7a783          	lw	a5,28(a5)

00012dc0 <.LM63>:
   12dc0:	00070513          	mv	a0,a4
   12dc4:	00078593          	mv	a1,a5
   12dc8:	01c12083          	lw	ra,28(sp)
   12dcc:	01812403          	lw	s0,24(sp)
   12dd0:	02010113          	addi	sp,sp,32
   12dd4:	00008067          	ret

00012dd8 <elf64_getProgramHeaderOffset>:
   12dd8:	fe010113          	addi	sp,sp,-32
   12ddc:	00112e23          	sw	ra,28(sp)
   12de0:	00812c23          	sw	s0,24(sp)
   12de4:	02010413          	addi	s0,sp,32
   12de8:	fea42623          	sw	a0,-20(s0)
   12dec:	00058793          	mv	a5,a1
   12df0:	fef41523          	sh	a5,-22(s0)

00012df4 <.LM65>:
   12df4:	fec42503          	lw	a0,-20(s0)
   12df8:	00000297          	auipc	t0,0x0
   12dfc:	000280e7          	jalr	t0
   12e00:	00050693          	mv	a3,a0
   12e04:	fea45783          	lhu	a5,-22(s0)
   12e08:	00379793          	slli	a5,a5,0x3
   12e0c:	00379713          	slli	a4,a5,0x3
   12e10:	40f707b3          	sub	a5,a4,a5
   12e14:	00f687b3          	add	a5,a3,a5
   12e18:	0087a703          	lw	a4,8(a5)
   12e1c:	00c7a783          	lw	a5,12(a5)

00012e20 <.LM66>:
   12e20:	00070513          	mv	a0,a4
   12e24:	00078593          	mv	a1,a5
   12e28:	01c12083          	lw	ra,28(sp)
   12e2c:	01812403          	lw	s0,24(sp)
   12e30:	02010113          	addi	sp,sp,32
   12e34:	00008067          	ret

00012e38 <elf_checkFile>:
   12e38:	fe010113          	addi	sp,sp,-32
   12e3c:	00112e23          	sw	ra,28(sp)
   12e40:	00812c23          	sw	s0,24(sp)
   12e44:	02010413          	addi	s0,sp,32
   12e48:	fea42623          	sw	a0,-20(s0)

00012e4c <.LM68>:
   12e4c:	fec42783          	lw	a5,-20(s0)
   12e50:	0047c703          	lbu	a4,4(a5)

00012e54 <.LM69>:
   12e54:	00100793          	li	a5,1
   12e58:	00f71c63          	bne	a4,a5,12e70 <.L46>

00012e5c <.LM70>:
   12e5c:	fec42503          	lw	a0,-20(s0)
   12e60:	00000297          	auipc	t0,0x0
   12e64:	000280e7          	jalr	t0
   12e68:	00050793          	mv	a5,a0

00012e6c <.LM71>:
   12e6c:	0140006f          	j	12e80 <.L48>

00012e70 <.L46>:
   12e70:	fec42503          	lw	a0,-20(s0)
   12e74:	00000297          	auipc	t0,0x0
   12e78:	000280e7          	jalr	t0
   12e7c:	00050793          	mv	a5,a0

00012e80 <.L48>:
   12e80:	00078513          	mv	a0,a5
   12e84:	01c12083          	lw	ra,28(sp)
   12e88:	01812403          	lw	s0,24(sp)
   12e8c:	02010113          	addi	sp,sp,32
   12e90:	00008067          	ret

00012e94 <elf_getNumProgramHeaders>:
   12e94:	fe010113          	addi	sp,sp,-32
   12e98:	00112e23          	sw	ra,28(sp)
   12e9c:	00812c23          	sw	s0,24(sp)
   12ea0:	02010413          	addi	s0,sp,32
   12ea4:	fea42623          	sw	a0,-20(s0)

00012ea8 <.LM75>:
   12ea8:	fec42783          	lw	a5,-20(s0)
   12eac:	0047c703          	lbu	a4,4(a5)
   12eb0:	00100793          	li	a5,1
   12eb4:	00f71c63          	bne	a4,a5,12ecc <.L50>

00012eb8 <.LM76>:
   12eb8:	fec42503          	lw	a0,-20(s0)
   12ebc:	00000297          	auipc	t0,0x0
   12ec0:	000280e7          	jalr	t0
   12ec4:	00050793          	mv	a5,a0
   12ec8:	0140006f          	j	12edc <.L51>

00012ecc <.L50>:
   12ecc:	fec42503          	lw	a0,-20(s0)
   12ed0:	00000297          	auipc	t0,0x0
   12ed4:	000280e7          	jalr	t0
   12ed8:	00050793          	mv	a5,a0

00012edc <.L51>:
   12edc:	00078513          	mv	a0,a5
   12ee0:	01c12083          	lw	ra,28(sp)
   12ee4:	01812403          	lw	s0,24(sp)
   12ee8:	02010113          	addi	sp,sp,32
   12eec:	00008067          	ret

00012ef0 <elf_getProgramHeaderFlags>:
   12ef0:	fe010113          	addi	sp,sp,-32
   12ef4:	00112e23          	sw	ra,28(sp)
   12ef8:	00812c23          	sw	s0,24(sp)
   12efc:	02010413          	addi	s0,sp,32
   12f00:	fea42623          	sw	a0,-20(s0)
   12f04:	00058793          	mv	a5,a1
   12f08:	fef41523          	sh	a5,-22(s0)

00012f0c <.LM80>:
   12f0c:	fec42783          	lw	a5,-20(s0)
   12f10:	0047c703          	lbu	a4,4(a5)

00012f14 <.LM81>:
   12f14:	00100793          	li	a5,1
   12f18:	02f71063          	bne	a4,a5,12f38 <.L54>

00012f1c <.LM82>:
   12f1c:	fea45783          	lhu	a5,-22(s0)
   12f20:	00078593          	mv	a1,a5
   12f24:	fec42503          	lw	a0,-20(s0)
   12f28:	00000297          	auipc	t0,0x0
   12f2c:	000280e7          	jalr	t0
   12f30:	00050793          	mv	a5,a0

00012f34 <.LM83>:
   12f34:	01c0006f          	j	12f50 <.L56>

00012f38 <.L54>:
   12f38:	fea45783          	lhu	a5,-22(s0)
   12f3c:	00078593          	mv	a1,a5
   12f40:	fec42503          	lw	a0,-20(s0)
   12f44:	00000297          	auipc	t0,0x0
   12f48:	000280e7          	jalr	t0
   12f4c:	00050793          	mv	a5,a0

00012f50 <.L56>:
   12f50:	00078513          	mv	a0,a5
   12f54:	01c12083          	lw	ra,28(sp)
   12f58:	01812403          	lw	s0,24(sp)
   12f5c:	02010113          	addi	sp,sp,32
   12f60:	00008067          	ret

00012f64 <elf_getProgramHeaderType>:
   12f64:	fe010113          	addi	sp,sp,-32
   12f68:	00112e23          	sw	ra,28(sp)
   12f6c:	00812c23          	sw	s0,24(sp)
   12f70:	02010413          	addi	s0,sp,32
   12f74:	fea42623          	sw	a0,-20(s0)
   12f78:	00058793          	mv	a5,a1
   12f7c:	fef41523          	sh	a5,-22(s0)

00012f80 <.LM87>:
   12f80:	fec42783          	lw	a5,-20(s0)
   12f84:	0047c703          	lbu	a4,4(a5)

00012f88 <.LM88>:
   12f88:	00100793          	li	a5,1
   12f8c:	02f71063          	bne	a4,a5,12fac <.L58>

00012f90 <.LM89>:
   12f90:	fea45783          	lhu	a5,-22(s0)
   12f94:	00078593          	mv	a1,a5
   12f98:	fec42503          	lw	a0,-20(s0)
   12f9c:	00000297          	auipc	t0,0x0
   12fa0:	000280e7          	jalr	t0
   12fa4:	00050793          	mv	a5,a0

00012fa8 <.LM90>:
   12fa8:	01c0006f          	j	12fc4 <.L60>

00012fac <.L58>:
   12fac:	fea45783          	lhu	a5,-22(s0)
   12fb0:	00078593          	mv	a1,a5
   12fb4:	fec42503          	lw	a0,-20(s0)
   12fb8:	00000297          	auipc	t0,0x0
   12fbc:	000280e7          	jalr	t0
   12fc0:	00050793          	mv	a5,a0

00012fc4 <.L60>:
   12fc4:	00078513          	mv	a0,a5
   12fc8:	01c12083          	lw	ra,28(sp)
   12fcc:	01812403          	lw	s0,24(sp)
   12fd0:	02010113          	addi	sp,sp,32
   12fd4:	00008067          	ret

00012fd8 <elf_getProgramHeaderPaddr>:
   12fd8:	fe010113          	addi	sp,sp,-32
   12fdc:	00112e23          	sw	ra,28(sp)
   12fe0:	00812c23          	sw	s0,24(sp)
   12fe4:	01212a23          	sw	s2,20(sp)
   12fe8:	01312823          	sw	s3,16(sp)
   12fec:	02010413          	addi	s0,sp,32
   12ff0:	fea42623          	sw	a0,-20(s0)
   12ff4:	00058793          	mv	a5,a1
   12ff8:	fef41523          	sh	a5,-22(s0)

00012ffc <.LM94>:
   12ffc:	fec42783          	lw	a5,-20(s0)
   13000:	0047c703          	lbu	a4,4(a5)

00013004 <.LM95>:
   13004:	00100793          	li	a5,1
   13008:	02f71463          	bne	a4,a5,13030 <.L62>

0001300c <.LM96>:
   1300c:	fea45783          	lhu	a5,-22(s0)
   13010:	00078593          	mv	a1,a5
   13014:	fec42503          	lw	a0,-20(s0)
   13018:	00000297          	auipc	t0,0x0
   1301c:	000280e7          	jalr	t0
   13020:	00050793          	mv	a5,a0

00013024 <.LM97>:
   13024:	00078913          	mv	s2,a5
   13028:	00000993          	li	s3,0

0001302c <.LM98>:
   1302c:	0200006f          	j	1304c <.L64>

00013030 <.L62>:
   13030:	fea45783          	lhu	a5,-22(s0)
   13034:	00078593          	mv	a1,a5
   13038:	fec42503          	lw	a0,-20(s0)
   1303c:	00000297          	auipc	t0,0x0
   13040:	000280e7          	jalr	t0
   13044:	00050913          	mv	s2,a0
   13048:	00058993          	mv	s3,a1

0001304c <.L64>:
   1304c:	00090713          	mv	a4,s2
   13050:	00098793          	mv	a5,s3

00013054 <.LM101>:
   13054:	00070513          	mv	a0,a4
   13058:	00078593          	mv	a1,a5
   1305c:	01c12083          	lw	ra,28(sp)
   13060:	01812403          	lw	s0,24(sp)
   13064:	01412903          	lw	s2,20(sp)
   13068:	01012983          	lw	s3,16(sp)
   1306c:	02010113          	addi	sp,sp,32
   13070:	00008067          	ret

00013074 <elf_getProgramHeaderVaddr>:
   13074:	fe010113          	addi	sp,sp,-32
   13078:	00112e23          	sw	ra,28(sp)
   1307c:	00812c23          	sw	s0,24(sp)
   13080:	01212a23          	sw	s2,20(sp)
   13084:	01312823          	sw	s3,16(sp)
   13088:	02010413          	addi	s0,sp,32
   1308c:	fea42623          	sw	a0,-20(s0)
   13090:	00058793          	mv	a5,a1
   13094:	fef41523          	sh	a5,-22(s0)

00013098 <.LM103>:
   13098:	fec42783          	lw	a5,-20(s0)
   1309c:	0047c703          	lbu	a4,4(a5)

000130a0 <.LM104>:
   130a0:	00100793          	li	a5,1
   130a4:	02f71463          	bne	a4,a5,130cc <.L66>

000130a8 <.LM105>:
   130a8:	fea45783          	lhu	a5,-22(s0)
   130ac:	00078593          	mv	a1,a5
   130b0:	fec42503          	lw	a0,-20(s0)
   130b4:	00000297          	auipc	t0,0x0
   130b8:	000280e7          	jalr	t0
   130bc:	00050793          	mv	a5,a0

000130c0 <.LM106>:
   130c0:	00078913          	mv	s2,a5
   130c4:	00000993          	li	s3,0

000130c8 <.LM107>:
   130c8:	0200006f          	j	130e8 <.L68>

000130cc <.L66>:
   130cc:	fea45783          	lhu	a5,-22(s0)
   130d0:	00078593          	mv	a1,a5
   130d4:	fec42503          	lw	a0,-20(s0)
   130d8:	00000297          	auipc	t0,0x0
   130dc:	000280e7          	jalr	t0
   130e0:	00050913          	mv	s2,a0
   130e4:	00058993          	mv	s3,a1

000130e8 <.L68>:
   130e8:	00090713          	mv	a4,s2
   130ec:	00098793          	mv	a5,s3

000130f0 <.LM110>:
   130f0:	00070513          	mv	a0,a4
   130f4:	00078593          	mv	a1,a5
   130f8:	01c12083          	lw	ra,28(sp)
   130fc:	01812403          	lw	s0,24(sp)
   13100:	01412903          	lw	s2,20(sp)
   13104:	01012983          	lw	s3,16(sp)
   13108:	02010113          	addi	sp,sp,32
   1310c:	00008067          	ret

00013110 <elf_getProgramHeaderMemorySize>:
   13110:	fe010113          	addi	sp,sp,-32
   13114:	00112e23          	sw	ra,28(sp)
   13118:	00812c23          	sw	s0,24(sp)
   1311c:	01212a23          	sw	s2,20(sp)
   13120:	01312823          	sw	s3,16(sp)
   13124:	02010413          	addi	s0,sp,32
   13128:	fea42623          	sw	a0,-20(s0)
   1312c:	00058793          	mv	a5,a1
   13130:	fef41523          	sh	a5,-22(s0)

00013134 <.LM112>:
   13134:	fec42783          	lw	a5,-20(s0)
   13138:	0047c703          	lbu	a4,4(a5)

0001313c <.LM113>:
   1313c:	00100793          	li	a5,1
   13140:	02f71463          	bne	a4,a5,13168 <.L70>

00013144 <.LM114>:
   13144:	fea45783          	lhu	a5,-22(s0)
   13148:	00078593          	mv	a1,a5
   1314c:	fec42503          	lw	a0,-20(s0)
   13150:	00000297          	auipc	t0,0x0
   13154:	000280e7          	jalr	t0
   13158:	00050793          	mv	a5,a0

0001315c <.LM115>:
   1315c:	00078913          	mv	s2,a5
   13160:	00000993          	li	s3,0

00013164 <.LM116>:
   13164:	0200006f          	j	13184 <.L72>

00013168 <.L70>:
   13168:	fea45783          	lhu	a5,-22(s0)
   1316c:	00078593          	mv	a1,a5
   13170:	fec42503          	lw	a0,-20(s0)
   13174:	00000297          	auipc	t0,0x0
   13178:	000280e7          	jalr	t0
   1317c:	00050913          	mv	s2,a0
   13180:	00058993          	mv	s3,a1

00013184 <.L72>:
   13184:	00090713          	mv	a4,s2
   13188:	00098793          	mv	a5,s3

0001318c <.LM119>:
   1318c:	00070513          	mv	a0,a4
   13190:	00078593          	mv	a1,a5
   13194:	01c12083          	lw	ra,28(sp)
   13198:	01812403          	lw	s0,24(sp)
   1319c:	01412903          	lw	s2,20(sp)
   131a0:	01012983          	lw	s3,16(sp)
   131a4:	02010113          	addi	sp,sp,32
   131a8:	00008067          	ret

000131ac <elf_getProgramHeaderFileSize>:
   131ac:	fe010113          	addi	sp,sp,-32
   131b0:	00112e23          	sw	ra,28(sp)
   131b4:	00812c23          	sw	s0,24(sp)
   131b8:	01212a23          	sw	s2,20(sp)
   131bc:	01312823          	sw	s3,16(sp)
   131c0:	02010413          	addi	s0,sp,32
   131c4:	fea42623          	sw	a0,-20(s0)
   131c8:	00058793          	mv	a5,a1
   131cc:	fef41523          	sh	a5,-22(s0)

000131d0 <.LM121>:
   131d0:	fec42783          	lw	a5,-20(s0)
   131d4:	0047c703          	lbu	a4,4(a5)

000131d8 <.LM122>:
   131d8:	00100793          	li	a5,1
   131dc:	02f71463          	bne	a4,a5,13204 <.L74>

000131e0 <.LM123>:
   131e0:	fea45783          	lhu	a5,-22(s0)
   131e4:	00078593          	mv	a1,a5
   131e8:	fec42503          	lw	a0,-20(s0)
   131ec:	00000297          	auipc	t0,0x0
   131f0:	000280e7          	jalr	t0
   131f4:	00050793          	mv	a5,a0

000131f8 <.LM124>:
   131f8:	00078913          	mv	s2,a5
   131fc:	00000993          	li	s3,0

00013200 <.LM125>:
   13200:	0200006f          	j	13220 <.L76>

00013204 <.L74>:
   13204:	fea45783          	lhu	a5,-22(s0)
   13208:	00078593          	mv	a1,a5
   1320c:	fec42503          	lw	a0,-20(s0)
   13210:	00000297          	auipc	t0,0x0
   13214:	000280e7          	jalr	t0
   13218:	00050913          	mv	s2,a0
   1321c:	00058993          	mv	s3,a1

00013220 <.L76>:
   13220:	00090713          	mv	a4,s2
   13224:	00098793          	mv	a5,s3

00013228 <.LM128>:
   13228:	00070513          	mv	a0,a4
   1322c:	00078593          	mv	a1,a5
   13230:	01c12083          	lw	ra,28(sp)
   13234:	01812403          	lw	s0,24(sp)
   13238:	01412903          	lw	s2,20(sp)
   1323c:	01012983          	lw	s3,16(sp)
   13240:	02010113          	addi	sp,sp,32
   13244:	00008067          	ret

00013248 <elf_getProgramHeaderOffset>:
   13248:	fe010113          	addi	sp,sp,-32
   1324c:	00112e23          	sw	ra,28(sp)
   13250:	00812c23          	sw	s0,24(sp)
   13254:	01212a23          	sw	s2,20(sp)
   13258:	01312823          	sw	s3,16(sp)
   1325c:	02010413          	addi	s0,sp,32
   13260:	fea42623          	sw	a0,-20(s0)
   13264:	00058793          	mv	a5,a1
   13268:	fef41523          	sh	a5,-22(s0)

0001326c <.LM130>:
   1326c:	fec42783          	lw	a5,-20(s0)
   13270:	0047c703          	lbu	a4,4(a5)

00013274 <.LM131>:
   13274:	00100793          	li	a5,1
   13278:	02f71463          	bne	a4,a5,132a0 <.L78>

0001327c <.LM132>:
   1327c:	fea45783          	lhu	a5,-22(s0)
   13280:	00078593          	mv	a1,a5
   13284:	fec42503          	lw	a0,-20(s0)
   13288:	00000297          	auipc	t0,0x0
   1328c:	000280e7          	jalr	t0
   13290:	00050793          	mv	a5,a0

00013294 <.LM133>:
   13294:	00078913          	mv	s2,a5
   13298:	00000993          	li	s3,0

0001329c <.LM134>:
   1329c:	0200006f          	j	132bc <.L80>

000132a0 <.L78>:
   132a0:	fea45783          	lhu	a5,-22(s0)
   132a4:	00078593          	mv	a1,a5
   132a8:	fec42503          	lw	a0,-20(s0)
   132ac:	00000297          	auipc	t0,0x0
   132b0:	000280e7          	jalr	t0
   132b4:	00050913          	mv	s2,a0
   132b8:	00058993          	mv	s3,a1

000132bc <.L80>:
   132bc:	00090713          	mv	a4,s2
   132c0:	00098793          	mv	a5,s3

000132c4 <.LM137>:
   132c4:	00070513          	mv	a0,a4
   132c8:	00078593          	mv	a1,a5
   132cc:	01c12083          	lw	ra,28(sp)
   132d0:	01812403          	lw	s0,24(sp)
   132d4:	01412903          	lw	s2,20(sp)
   132d8:	01012983          	lw	s3,16(sp)
   132dc:	02010113          	addi	sp,sp,32
   132e0:	00008067          	ret

000132e4 <elf_getSegmentStringTable>:
   132e4:	fe010113          	addi	sp,sp,-32
   132e8:	00112e23          	sw	ra,28(sp)
   132ec:	00812c23          	sw	s0,24(sp)
   132f0:	02010413          	addi	s0,sp,32
   132f4:	fea42623          	sw	a0,-20(s0)

000132f8 <.LM139>:
   132f8:	fec42783          	lw	a5,-20(s0)
   132fc:	0047c703          	lbu	a4,4(a5)

00013300 <.LM140>:
   13300:	00100793          	li	a5,1
   13304:	00f71c63          	bne	a4,a5,1331c <.L82>

00013308 <.LM141>:
   13308:	fec42503          	lw	a0,-20(s0)
   1330c:	00000297          	auipc	t0,0x0
   13310:	000280e7          	jalr	t0
   13314:	00050793          	mv	a5,a0

00013318 <.LM142>:
   13318:	0140006f          	j	1332c <.L84>

0001331c <.L82>:
   1331c:	fec42503          	lw	a0,-20(s0)
   13320:	00000297          	auipc	t0,0x0
   13324:	000280e7          	jalr	t0
   13328:	00050793          	mv	a5,a0

0001332c <.L84>:
   1332c:	00078513          	mv	a0,a5
   13330:	01c12083          	lw	ra,28(sp)
   13334:	01812403          	lw	s0,24(sp)
   13338:	02010113          	addi	sp,sp,32
   1333c:	00008067          	ret

00013340 <elf_getStringTable>:
   13340:	fe010113          	addi	sp,sp,-32
   13344:	00112e23          	sw	ra,28(sp)
   13348:	00812c23          	sw	s0,24(sp)
   1334c:	02010413          	addi	s0,sp,32
   13350:	fea42623          	sw	a0,-20(s0)
   13354:	feb42423          	sw	a1,-24(s0)

00013358 <.LM146>:
   13358:	fec42783          	lw	a5,-20(s0)
   1335c:	0047c703          	lbu	a4,4(a5)

00013360 <.LM147>:
   13360:	00100793          	li	a5,1
   13364:	00f71c63          	bne	a4,a5,1337c <.L86>

00013368 <.LM148>:
   13368:	fec42503          	lw	a0,-20(s0)
   1336c:	00000297          	auipc	t0,0x0
   13370:	000280e7          	jalr	t0
   13374:	00050793          	mv	a5,a0

00013378 <.LM149>:
   13378:	0180006f          	j	13390 <.L88>

0001337c <.L86>:
   1337c:	fe842583          	lw	a1,-24(s0)
   13380:	fec42503          	lw	a0,-20(s0)
   13384:	00000297          	auipc	t0,0x0
   13388:	000280e7          	jalr	t0
   1338c:	00050793          	mv	a5,a0

00013390 <.L88>:
   13390:	00078513          	mv	a0,a5
   13394:	01c12083          	lw	ra,28(sp)
   13398:	01812403          	lw	s0,24(sp)
   1339c:	02010113          	addi	sp,sp,32
   133a0:	00008067          	ret

000133a4 <elf_getNumSections>:
   133a4:	fe010113          	addi	sp,sp,-32
   133a8:	00112e23          	sw	ra,28(sp)
   133ac:	00812c23          	sw	s0,24(sp)
   133b0:	02010413          	addi	s0,sp,32
   133b4:	fea42623          	sw	a0,-20(s0)

000133b8 <.LM153>:
   133b8:	fec42783          	lw	a5,-20(s0)
   133bc:	0047c703          	lbu	a4,4(a5)

000133c0 <.LM154>:
   133c0:	00100793          	li	a5,1
   133c4:	00f71c63          	bne	a4,a5,133dc <.L90>

000133c8 <.LM155>:
   133c8:	fec42503          	lw	a0,-20(s0)
   133cc:	00000297          	auipc	t0,0x0
   133d0:	000280e7          	jalr	t0
   133d4:	00050793          	mv	a5,a0

000133d8 <.LM156>:
   133d8:	0140006f          	j	133ec <.L92>

000133dc <.L90>:
   133dc:	fec42503          	lw	a0,-20(s0)
   133e0:	00000297          	auipc	t0,0x0
   133e4:	000280e7          	jalr	t0
   133e8:	00050793          	mv	a5,a0

000133ec <.L92>:
   133ec:	00078513          	mv	a0,a5
   133f0:	01c12083          	lw	ra,28(sp)
   133f4:	01812403          	lw	s0,24(sp)
   133f8:	02010113          	addi	sp,sp,32
   133fc:	00008067          	ret

00013400 <elf_getSectionName>:
   13400:	fe010113          	addi	sp,sp,-32
   13404:	00112e23          	sw	ra,28(sp)
   13408:	00812c23          	sw	s0,24(sp)
   1340c:	02010413          	addi	s0,sp,32
   13410:	fea42623          	sw	a0,-20(s0)
   13414:	feb42423          	sw	a1,-24(s0)

00013418 <.LM160>:
   13418:	fec42783          	lw	a5,-20(s0)
   1341c:	0047c703          	lbu	a4,4(a5)

00013420 <.LM161>:
   13420:	00100793          	li	a5,1
   13424:	00f71e63          	bne	a4,a5,13440 <.L94>

00013428 <.LM162>:
   13428:	fe842583          	lw	a1,-24(s0)
   1342c:	fec42503          	lw	a0,-20(s0)
   13430:	00000297          	auipc	t0,0x0
   13434:	000280e7          	jalr	t0
   13438:	00050793          	mv	a5,a0

0001343c <.LM163>:
   1343c:	0180006f          	j	13454 <.L96>

00013440 <.L94>:
   13440:	fe842583          	lw	a1,-24(s0)
   13444:	fec42503          	lw	a0,-20(s0)
   13448:	00000297          	auipc	t0,0x0
   1344c:	000280e7          	jalr	t0
   13450:	00050793          	mv	a5,a0

00013454 <.L96>:
   13454:	00078513          	mv	a0,a5
   13458:	01c12083          	lw	ra,28(sp)
   1345c:	01812403          	lw	s0,24(sp)
   13460:	02010113          	addi	sp,sp,32
   13464:	00008067          	ret

00013468 <elf_getSectionFlags>:
   13468:	fe010113          	addi	sp,sp,-32
   1346c:	00112e23          	sw	ra,28(sp)
   13470:	00812c23          	sw	s0,24(sp)
   13474:	02010413          	addi	s0,sp,32
   13478:	fea42623          	sw	a0,-20(s0)
   1347c:	feb42423          	sw	a1,-24(s0)

00013480 <.LM167>:
   13480:	fec42783          	lw	a5,-20(s0)
   13484:	0047c703          	lbu	a4,4(a5)

00013488 <.LM168>:
   13488:	00100793          	li	a5,1
   1348c:	02f71463          	bne	a4,a5,134b4 <.L98>

00013490 <.LM169>:
   13490:	fe842783          	lw	a5,-24(s0)
   13494:	01079793          	slli	a5,a5,0x10
   13498:	0107d793          	srli	a5,a5,0x10

0001349c <.LM170>:
   1349c:	00078593          	mv	a1,a5
   134a0:	fec42503          	lw	a0,-20(s0)
   134a4:	00000297          	auipc	t0,0x0
   134a8:	000280e7          	jalr	t0
   134ac:	00050793          	mv	a5,a0

000134b0 <.LM171>:
   134b0:	0240006f          	j	134d4 <.L100>

000134b4 <.L98>:
   134b4:	fe842783          	lw	a5,-24(s0)
   134b8:	01079793          	slli	a5,a5,0x10
   134bc:	0107d793          	srli	a5,a5,0x10
   134c0:	00078593          	mv	a1,a5
   134c4:	fec42503          	lw	a0,-20(s0)
   134c8:	00000297          	auipc	t0,0x0
   134cc:	000280e7          	jalr	t0
   134d0:	00050793          	mv	a5,a0

000134d4 <.L100>:
   134d4:	00078513          	mv	a0,a5
   134d8:	01c12083          	lw	ra,28(sp)
   134dc:	01812403          	lw	s0,24(sp)
   134e0:	02010113          	addi	sp,sp,32
   134e4:	00008067          	ret

000134e8 <elf_getSectionType>:
   134e8:	fe010113          	addi	sp,sp,-32
   134ec:	00112e23          	sw	ra,28(sp)
   134f0:	00812c23          	sw	s0,24(sp)
   134f4:	02010413          	addi	s0,sp,32
   134f8:	fea42623          	sw	a0,-20(s0)
   134fc:	feb42423          	sw	a1,-24(s0)

00013500 <.LM175>:
   13500:	fec42783          	lw	a5,-20(s0)
   13504:	0047c703          	lbu	a4,4(a5)

00013508 <.LM176>:
   13508:	00100793          	li	a5,1
   1350c:	02f71463          	bne	a4,a5,13534 <.L102>

00013510 <.LM177>:
   13510:	fe842783          	lw	a5,-24(s0)
   13514:	01079793          	slli	a5,a5,0x10
   13518:	0107d793          	srli	a5,a5,0x10

0001351c <.LM178>:
   1351c:	00078593          	mv	a1,a5
   13520:	fec42503          	lw	a0,-20(s0)
   13524:	00000297          	auipc	t0,0x0
   13528:	000280e7          	jalr	t0
   1352c:	00050793          	mv	a5,a0

00013530 <.LM179>:
   13530:	0240006f          	j	13554 <.L104>

00013534 <.L102>:
   13534:	fe842783          	lw	a5,-24(s0)
   13538:	01079793          	slli	a5,a5,0x10
   1353c:	0107d793          	srli	a5,a5,0x10
   13540:	00078593          	mv	a1,a5
   13544:	fec42503          	lw	a0,-20(s0)
   13548:	00000297          	auipc	t0,0x0
   1354c:	000280e7          	jalr	t0
   13550:	00050793          	mv	a5,a0

00013554 <.L104>:
   13554:	00078513          	mv	a0,a5
   13558:	01c12083          	lw	ra,28(sp)
   1355c:	01812403          	lw	s0,24(sp)
   13560:	02010113          	addi	sp,sp,32
   13564:	00008067          	ret

00013568 <elf_getSectionSize>:
   13568:	fe010113          	addi	sp,sp,-32
   1356c:	00112e23          	sw	ra,28(sp)
   13570:	00812c23          	sw	s0,24(sp)
   13574:	01212a23          	sw	s2,20(sp)
   13578:	01312823          	sw	s3,16(sp)
   1357c:	02010413          	addi	s0,sp,32
   13580:	fea42623          	sw	a0,-20(s0)
   13584:	feb42423          	sw	a1,-24(s0)

00013588 <.LM183>:
   13588:	fec42783          	lw	a5,-20(s0)
   1358c:	0047c703          	lbu	a4,4(a5)

00013590 <.LM184>:
   13590:	00100793          	li	a5,1
   13594:	02f71263          	bne	a4,a5,135b8 <.L106>

00013598 <.LM185>:
   13598:	fe842583          	lw	a1,-24(s0)
   1359c:	fec42503          	lw	a0,-20(s0)
   135a0:	00000297          	auipc	t0,0x0
   135a4:	000280e7          	jalr	t0
   135a8:	00050793          	mv	a5,a0

000135ac <.LM186>:
   135ac:	00078913          	mv	s2,a5
   135b0:	00000993          	li	s3,0

000135b4 <.LM187>:
   135b4:	01c0006f          	j	135d0 <.L108>

000135b8 <.L106>:
   135b8:	fe842583          	lw	a1,-24(s0)
   135bc:	fec42503          	lw	a0,-20(s0)
   135c0:	00000297          	auipc	t0,0x0
   135c4:	000280e7          	jalr	t0
   135c8:	00050913          	mv	s2,a0
   135cc:	00058993          	mv	s3,a1

000135d0 <.L108>:
   135d0:	00090713          	mv	a4,s2
   135d4:	00098793          	mv	a5,s3

000135d8 <.LM190>:
   135d8:	00070513          	mv	a0,a4
   135dc:	00078593          	mv	a1,a5
   135e0:	01c12083          	lw	ra,28(sp)
   135e4:	01812403          	lw	s0,24(sp)
   135e8:	01412903          	lw	s2,20(sp)
   135ec:	01012983          	lw	s3,16(sp)
   135f0:	02010113          	addi	sp,sp,32
   135f4:	00008067          	ret

000135f8 <elf_getSectionAddr>:
   135f8:	fe010113          	addi	sp,sp,-32
   135fc:	00112e23          	sw	ra,28(sp)
   13600:	00812c23          	sw	s0,24(sp)
   13604:	01212a23          	sw	s2,20(sp)
   13608:	01312823          	sw	s3,16(sp)
   1360c:	02010413          	addi	s0,sp,32
   13610:	fea42623          	sw	a0,-20(s0)
   13614:	feb42423          	sw	a1,-24(s0)

00013618 <.LM192>:
   13618:	fec42783          	lw	a5,-20(s0)
   1361c:	0047c703          	lbu	a4,4(a5)

00013620 <.LM193>:
   13620:	00100793          	li	a5,1
   13624:	02f71263          	bne	a4,a5,13648 <.L110>

00013628 <.LM194>:
   13628:	fe842583          	lw	a1,-24(s0)
   1362c:	fec42503          	lw	a0,-20(s0)
   13630:	00000297          	auipc	t0,0x0
   13634:	000280e7          	jalr	t0
   13638:	00050793          	mv	a5,a0

0001363c <.LM195>:
   1363c:	00078913          	mv	s2,a5
   13640:	00000993          	li	s3,0

00013644 <.LM196>:
   13644:	01c0006f          	j	13660 <.L112>

00013648 <.L110>:
   13648:	fe842583          	lw	a1,-24(s0)
   1364c:	fec42503          	lw	a0,-20(s0)
   13650:	00000297          	auipc	t0,0x0
   13654:	000280e7          	jalr	t0
   13658:	00050913          	mv	s2,a0
   1365c:	00058993          	mv	s3,a1

00013660 <.L112>:
   13660:	00090713          	mv	a4,s2
   13664:	00098793          	mv	a5,s3

00013668 <.LM199>:
   13668:	00070513          	mv	a0,a4
   1366c:	00078593          	mv	a1,a5
   13670:	01c12083          	lw	ra,28(sp)
   13674:	01812403          	lw	s0,24(sp)
   13678:	01412903          	lw	s2,20(sp)
   1367c:	01012983          	lw	s3,16(sp)
   13680:	02010113          	addi	sp,sp,32
   13684:	00008067          	ret

00013688 <elf_getSection>:
   13688:	fe010113          	addi	sp,sp,-32
   1368c:	00112e23          	sw	ra,28(sp)
   13690:	00812c23          	sw	s0,24(sp)
   13694:	02010413          	addi	s0,sp,32
   13698:	fea42623          	sw	a0,-20(s0)
   1369c:	feb42423          	sw	a1,-24(s0)

000136a0 <.LM201>:
   136a0:	fec42783          	lw	a5,-20(s0)
   136a4:	0047c703          	lbu	a4,4(a5)

000136a8 <.LM202>:
   136a8:	00100793          	li	a5,1
   136ac:	00f71e63          	bne	a4,a5,136c8 <.L114>

000136b0 <.LM203>:
   136b0:	fe842583          	lw	a1,-24(s0)
   136b4:	fec42503          	lw	a0,-20(s0)
   136b8:	00000297          	auipc	t0,0x0
   136bc:	000280e7          	jalr	t0
   136c0:	00050793          	mv	a5,a0

000136c4 <.LM204>:
   136c4:	0180006f          	j	136dc <.L116>

000136c8 <.L114>:
   136c8:	fe842583          	lw	a1,-24(s0)
   136cc:	fec42503          	lw	a0,-20(s0)
   136d0:	00000297          	auipc	t0,0x0
   136d4:	000280e7          	jalr	t0
   136d8:	00050793          	mv	a5,a0

000136dc <.L116>:
   136dc:	00078513          	mv	a0,a5
   136e0:	01c12083          	lw	ra,28(sp)
   136e4:	01812403          	lw	s0,24(sp)
   136e8:	02010113          	addi	sp,sp,32
   136ec:	00008067          	ret

000136f0 <elf_getSectionNamed>:
   136f0:	fe010113          	addi	sp,sp,-32
   136f4:	00112e23          	sw	ra,28(sp)
   136f8:	00812c23          	sw	s0,24(sp)
   136fc:	02010413          	addi	s0,sp,32
   13700:	fea42623          	sw	a0,-20(s0)
   13704:	feb42423          	sw	a1,-24(s0)

00013708 <.LM208>:
   13708:	fec42783          	lw	a5,-20(s0)
   1370c:	0047c703          	lbu	a4,4(a5)

00013710 <.LM209>:
   13710:	00100793          	li	a5,1
   13714:	00f71e63          	bne	a4,a5,13730 <.L118>

00013718 <.LM210>:
   13718:	fe842583          	lw	a1,-24(s0)
   1371c:	fec42503          	lw	a0,-20(s0)
   13720:	00000297          	auipc	t0,0x0
   13724:	000280e7          	jalr	t0
   13728:	00050793          	mv	a5,a0

0001372c <.LM211>:
   1372c:	0180006f          	j	13744 <.L120>

00013730 <.L118>:
   13730:	fe842583          	lw	a1,-24(s0)
   13734:	fec42503          	lw	a0,-20(s0)
   13738:	00000297          	auipc	t0,0x0
   1373c:	000280e7          	jalr	t0
   13740:	00050793          	mv	a5,a0

00013744 <.L120>:
   13744:	00078513          	mv	a0,a5
   13748:	01c12083          	lw	ra,28(sp)
   1374c:	01812403          	lw	s0,24(sp)
   13750:	02010113          	addi	sp,sp,32
   13754:	00008067          	ret

00013758 <elf_getProgramHeaderInfo>:
   13758:	fd010113          	addi	sp,sp,-48
   1375c:	02112623          	sw	ra,44(sp)
   13760:	02812423          	sw	s0,40(sp)
   13764:	03010413          	addi	s0,sp,48
   13768:	fea42623          	sw	a0,-20(s0)
   1376c:	fec42223          	sw	a2,-28(s0)
   13770:	fed42023          	sw	a3,-32(s0)
   13774:	fce42e23          	sw	a4,-36(s0)
   13778:	fcf42c23          	sw	a5,-40(s0)
   1377c:	fd042a23          	sw	a6,-44(s0)
   13780:	feb41523          	sh	a1,-22(s0)

00013784 <.LM215>:
   13784:	fea45783          	lhu	a5,-22(s0)
   13788:	00078593          	mv	a1,a5
   1378c:	fec42503          	lw	a0,-20(s0)
   13790:	00000297          	auipc	t0,0x0
   13794:	000280e7          	jalr	t0
   13798:	00050713          	mv	a4,a0
   1379c:	00058793          	mv	a5,a1
   137a0:	fe442683          	lw	a3,-28(s0)
   137a4:	00e6a023          	sw	a4,0(a3)
   137a8:	00f6a223          	sw	a5,4(a3)

000137ac <.LM216>:
   137ac:	fea45783          	lhu	a5,-22(s0)
   137b0:	00078593          	mv	a1,a5
   137b4:	fec42503          	lw	a0,-20(s0)
   137b8:	00000297          	auipc	t0,0x0
   137bc:	000280e7          	jalr	t0
   137c0:	00050713          	mv	a4,a0
   137c4:	00058793          	mv	a5,a1
   137c8:	fe042683          	lw	a3,-32(s0)
   137cc:	00e6a023          	sw	a4,0(a3)
   137d0:	00f6a223          	sw	a5,4(a3)

000137d4 <.LM217>:
   137d4:	fea45783          	lhu	a5,-22(s0)
   137d8:	00078593          	mv	a1,a5
   137dc:	fec42503          	lw	a0,-20(s0)
   137e0:	00000297          	auipc	t0,0x0
   137e4:	000280e7          	jalr	t0
   137e8:	00050713          	mv	a4,a0
   137ec:	00058793          	mv	a5,a1
   137f0:	fdc42683          	lw	a3,-36(s0)
   137f4:	00e6a023          	sw	a4,0(a3)
   137f8:	00f6a223          	sw	a5,4(a3)

000137fc <.LM218>:
   137fc:	fea45783          	lhu	a5,-22(s0)
   13800:	00078593          	mv	a1,a5
   13804:	fec42503          	lw	a0,-20(s0)
   13808:	00000297          	auipc	t0,0x0
   1380c:	000280e7          	jalr	t0
   13810:	00050713          	mv	a4,a0
   13814:	00058793          	mv	a5,a1
   13818:	fd842683          	lw	a3,-40(s0)
   1381c:	00e6a023          	sw	a4,0(a3)
   13820:	00f6a223          	sw	a5,4(a3)

00013824 <.LM219>:
   13824:	fea45783          	lhu	a5,-22(s0)
   13828:	00078593          	mv	a1,a5
   1382c:	fec42503          	lw	a0,-20(s0)
   13830:	00000297          	auipc	t0,0x0
   13834:	000280e7          	jalr	t0
   13838:	00050713          	mv	a4,a0
   1383c:	00058793          	mv	a5,a1
   13840:	fd442683          	lw	a3,-44(s0)
   13844:	00e6a023          	sw	a4,0(a3)
   13848:	00f6a223          	sw	a5,4(a3)

0001384c <.LM220>:
   1384c:	00000013          	nop
   13850:	02c12083          	lw	ra,44(sp)
   13854:	02812403          	lw	s0,40(sp)
   13858:	03010113          	addi	sp,sp,48
   1385c:	00008067          	ret

00013860 <elf_getEntryPoint>:
   13860:	fe010113          	addi	sp,sp,-32
   13864:	00112e23          	sw	ra,28(sp)
   13868:	00812c23          	sw	s0,24(sp)
   1386c:	01212a23          	sw	s2,20(sp)
   13870:	01312823          	sw	s3,16(sp)
   13874:	02010413          	addi	s0,sp,32
   13878:	fea42623          	sw	a0,-20(s0)

0001387c <.LM222>:
   1387c:	fec42783          	lw	a5,-20(s0)
   13880:	0047c703          	lbu	a4,4(a5)

00013884 <.LM223>:
   13884:	00100793          	li	a5,1
   13888:	02f71063          	bne	a4,a5,138a8 <.L123>

0001388c <.LM224>:
   1388c:	fec42503          	lw	a0,-20(s0)
   13890:	00000297          	auipc	t0,0x0
   13894:	000280e7          	jalr	t0
   13898:	00050793          	mv	a5,a0

0001389c <.LM225>:
   1389c:	00078913          	mv	s2,a5
   138a0:	00000993          	li	s3,0

000138a4 <.LM226>:
   138a4:	0180006f          	j	138bc <.L125>

000138a8 <.L123>:
   138a8:	fec42503          	lw	a0,-20(s0)
   138ac:	00000297          	auipc	t0,0x0
   138b0:	000280e7          	jalr	t0
   138b4:	00050913          	mv	s2,a0
   138b8:	00058993          	mv	s3,a1

000138bc <.L125>:
   138bc:	00090713          	mv	a4,s2
   138c0:	00098793          	mv	a5,s3

000138c4 <.LM229>:
   138c4:	00070513          	mv	a0,a4
   138c8:	00078593          	mv	a1,a5
   138cc:	01c12083          	lw	ra,28(sp)
   138d0:	01812403          	lw	s0,24(sp)
   138d4:	01412903          	lw	s2,20(sp)
   138d8:	01012983          	lw	s3,16(sp)
   138dc:	02010113          	addi	sp,sp,32
   138e0:	00008067          	ret

000138e4 <elf_getMemoryBounds>:
   138e4:	fb010113          	addi	sp,sp,-80
   138e8:	04112623          	sw	ra,76(sp)
   138ec:	04812423          	sw	s0,72(sp)
   138f0:	05010413          	addi	s0,sp,80
   138f4:	faa42e23          	sw	a0,-68(s0)
   138f8:	fab42c23          	sw	a1,-72(s0)
   138fc:	fac42a23          	sw	a2,-76(s0)
   13900:	fad42823          	sw	a3,-80(s0)

00013904 <.LM231>:
   13904:	fff00713          	li	a4,-1
   13908:	fff00793          	li	a5,-1
   1390c:	fee42423          	sw	a4,-24(s0)
   13910:	fef42623          	sw	a5,-20(s0)

00013914 <.LM232>:
   13914:	00000713          	li	a4,0
   13918:	00000793          	li	a5,0
   1391c:	fee42023          	sw	a4,-32(s0)
   13920:	fef42223          	sw	a5,-28(s0)

00013924 <.LM233>:
   13924:	fbc42503          	lw	a0,-68(s0)
   13928:	00000297          	auipc	t0,0x0
   1392c:	000280e7          	jalr	t0
   13930:	00050793          	mv	a5,a0
   13934:	00078663          	beqz	a5,13940 <.L127>

00013938 <.LM234>:
   13938:	00000793          	li	a5,0
   1393c:	19c0006f          	j	13ad8 <.L128>

00013940 <.L127>:
   13940:	fc042e23          	sw	zero,-36(s0)
   13944:	14c0006f          	j	13a90 <.L129>

00013948 <.L137>:
   13948:	fdc42783          	lw	a5,-36(s0)
   1394c:	01079793          	slli	a5,a5,0x10
   13950:	0107d793          	srli	a5,a5,0x10
   13954:	00078593          	mv	a1,a5
   13958:	fbc42503          	lw	a0,-68(s0)
   1395c:	00000297          	auipc	t0,0x0
   13960:	000280e7          	jalr	t0
   13964:	00050613          	mv	a2,a0
   13968:	00058693          	mv	a3,a1
   1396c:	00060793          	mv	a5,a2
   13970:	00d7e7b3          	or	a5,a5,a3
   13974:	10078663          	beqz	a5,13a80 <.L140>

00013978 <.LM237>:
   13978:	fb842783          	lw	a5,-72(s0)
   1397c:	02078663          	beqz	a5,139a8 <.L132>

00013980 <.LM238>:
   13980:	fdc42783          	lw	a5,-36(s0)
   13984:	01079793          	slli	a5,a5,0x10
   13988:	0107d793          	srli	a5,a5,0x10
   1398c:	00078593          	mv	a1,a5
   13990:	fbc42503          	lw	a0,-68(s0)
   13994:	00000297          	auipc	t0,0x0
   13998:	000280e7          	jalr	t0
   1399c:	fca42823          	sw	a0,-48(s0)
   139a0:	fcb42a23          	sw	a1,-44(s0)
   139a4:	0280006f          	j	139cc <.L133>

000139a8 <.L132>:
   139a8:	fdc42783          	lw	a5,-36(s0)
   139ac:	01079793          	slli	a5,a5,0x10
   139b0:	0107d793          	srli	a5,a5,0x10
   139b4:	00078593          	mv	a1,a5
   139b8:	fbc42503          	lw	a0,-68(s0)
   139bc:	00000297          	auipc	t0,0x0
   139c0:	000280e7          	jalr	t0
   139c4:	fca42823          	sw	a0,-48(s0)
   139c8:	fcb42a23          	sw	a1,-44(s0)

000139cc <.L133>:
   139cc:	fdc42783          	lw	a5,-36(s0)
   139d0:	01079793          	slli	a5,a5,0x10
   139d4:	0107d793          	srli	a5,a5,0x10
   139d8:	00078593          	mv	a1,a5
   139dc:	fbc42503          	lw	a0,-68(s0)
   139e0:	00000297          	auipc	t0,0x0
   139e4:	000280e7          	jalr	t0
   139e8:	00050613          	mv	a2,a0
   139ec:	00058693          	mv	a3,a1
   139f0:	fd042503          	lw	a0,-48(s0)
   139f4:	fd442583          	lw	a1,-44(s0)
   139f8:	00a60733          	add	a4,a2,a0
   139fc:	00c73833          	sltu	a6,a4,a2
   13a00:	00b687b3          	add	a5,a3,a1
   13a04:	00f806b3          	add	a3,a6,a5
   13a08:	00068793          	mv	a5,a3
   13a0c:	fce42423          	sw	a4,-56(s0)
   13a10:	fcf42623          	sw	a5,-52(s0)

00013a14 <.LM241>:
   13a14:	fcc42703          	lw	a4,-52(s0)
   13a18:	fe442783          	lw	a5,-28(s0)
   13a1c:	00e7ee63          	bltu	a5,a4,13a38 <.L138>
   13a20:	fcc42703          	lw	a4,-52(s0)
   13a24:	fe442783          	lw	a5,-28(s0)
   13a28:	02f71063          	bne	a4,a5,13a48 <.L134>
   13a2c:	fc842703          	lw	a4,-56(s0)
   13a30:	fe042783          	lw	a5,-32(s0)
   13a34:	00e7fa63          	bleu	a4,a5,13a48 <.L134>

00013a38 <.L138>:
   13a38:	fc842703          	lw	a4,-56(s0)
   13a3c:	fcc42783          	lw	a5,-52(s0)
   13a40:	fee42023          	sw	a4,-32(s0)
   13a44:	fef42223          	sw	a5,-28(s0)

00013a48 <.L134>:
   13a48:	fec42703          	lw	a4,-20(s0)
   13a4c:	fd442783          	lw	a5,-44(s0)
   13a50:	00e7ee63          	bltu	a5,a4,13a6c <.L139>
   13a54:	fec42703          	lw	a4,-20(s0)
   13a58:	fd442783          	lw	a5,-44(s0)
   13a5c:	02f71463          	bne	a4,a5,13a84 <.L131>
   13a60:	fe842703          	lw	a4,-24(s0)
   13a64:	fd042783          	lw	a5,-48(s0)
   13a68:	00e7fe63          	bleu	a4,a5,13a84 <.L131>

00013a6c <.L139>:
   13a6c:	fd042703          	lw	a4,-48(s0)
   13a70:	fd442783          	lw	a5,-44(s0)
   13a74:	fee42423          	sw	a4,-24(s0)
   13a78:	fef42623          	sw	a5,-20(s0)
   13a7c:	0080006f          	j	13a84 <.L131>

00013a80 <.L140>:
   13a80:	00000013          	nop

00013a84 <.L131>:
   13a84:	fdc42783          	lw	a5,-36(s0)
   13a88:	00178793          	addi	a5,a5,1
   13a8c:	fcf42e23          	sw	a5,-36(s0)

00013a90 <.L129>:
   13a90:	fbc42503          	lw	a0,-68(s0)
   13a94:	00000297          	auipc	t0,0x0
   13a98:	000280e7          	jalr	t0
   13a9c:	00050793          	mv	a5,a0
   13aa0:	00078713          	mv	a4,a5
   13aa4:	fdc42783          	lw	a5,-36(s0)
   13aa8:	eae7c0e3          	blt	a5,a4,13948 <.L137>

00013aac <.LM248>:
   13aac:	fb442683          	lw	a3,-76(s0)
   13ab0:	fe842703          	lw	a4,-24(s0)
   13ab4:	fec42783          	lw	a5,-20(s0)
   13ab8:	00e6a023          	sw	a4,0(a3)
   13abc:	00f6a223          	sw	a5,4(a3)

00013ac0 <.LM249>:
   13ac0:	fb042683          	lw	a3,-80(s0)
   13ac4:	fe042703          	lw	a4,-32(s0)
   13ac8:	fe442783          	lw	a5,-28(s0)
   13acc:	00e6a023          	sw	a4,0(a3)
   13ad0:	00f6a223          	sw	a5,4(a3)

00013ad4 <.LM250>:
   13ad4:	00100793          	li	a5,1

00013ad8 <.L128>:
   13ad8:	00078513          	mv	a0,a5
   13adc:	04c12083          	lw	ra,76(sp)
   13ae0:	04812403          	lw	s0,72(sp)
   13ae4:	05010113          	addi	sp,sp,80
   13ae8:	00008067          	ret

00013aec <elf_vaddrInProgramHeader>:
   13aec:	fd010113          	addi	sp,sp,-48
   13af0:	02112623          	sw	ra,44(sp)
   13af4:	02812423          	sw	s0,40(sp)
   13af8:	03010413          	addi	s0,sp,48
   13afc:	fca42e23          	sw	a0,-36(s0)
   13b00:	00058793          	mv	a5,a1
   13b04:	fcc42823          	sw	a2,-48(s0)
   13b08:	fcd42a23          	sw	a3,-44(s0)
   13b0c:	fcf41d23          	sh	a5,-38(s0)

00013b10 <.LM253>:
   13b10:	fda45783          	lhu	a5,-38(s0)
   13b14:	00078593          	mv	a1,a5
   13b18:	fdc42503          	lw	a0,-36(s0)
   13b1c:	00000297          	auipc	t0,0x0
   13b20:	000280e7          	jalr	t0
   13b24:	fea42423          	sw	a0,-24(s0)
   13b28:	feb42623          	sw	a1,-20(s0)

00013b2c <.LM254>:
   13b2c:	fda45783          	lhu	a5,-38(s0)
   13b30:	00078593          	mv	a1,a5
   13b34:	fdc42503          	lw	a0,-36(s0)
   13b38:	00000297          	auipc	t0,0x0
   13b3c:	000280e7          	jalr	t0
   13b40:	00050613          	mv	a2,a0
   13b44:	00058693          	mv	a3,a1
   13b48:	fe842503          	lw	a0,-24(s0)
   13b4c:	fec42583          	lw	a1,-20(s0)
   13b50:	00a60733          	add	a4,a2,a0
   13b54:	00c73833          	sltu	a6,a4,a2
   13b58:	00b687b3          	add	a5,a3,a1
   13b5c:	00f806b3          	add	a3,a6,a5
   13b60:	00068793          	mv	a5,a3
   13b64:	fee42023          	sw	a4,-32(s0)
   13b68:	fef42223          	sw	a5,-28(s0)

00013b6c <.LM255>:
   13b6c:	fec42703          	lw	a4,-20(s0)
   13b70:	fd442783          	lw	a5,-44(s0)
   13b74:	04e7e463          	bltu	a5,a4,13bbc <.L142>
   13b78:	fec42703          	lw	a4,-20(s0)
   13b7c:	fd442783          	lw	a5,-44(s0)
   13b80:	00f71863          	bne	a4,a5,13b90 <.L146>
   13b84:	fe842703          	lw	a4,-24(s0)
   13b88:	fd042783          	lw	a5,-48(s0)
   13b8c:	02e7e863          	bltu	a5,a4,13bbc <.L142>

00013b90 <.L146>:
   13b90:	fe442703          	lw	a4,-28(s0)
   13b94:	fd442783          	lw	a5,-44(s0)
   13b98:	00e7ee63          	bltu	a5,a4,13bb4 <.L147>
   13b9c:	fe442703          	lw	a4,-28(s0)
   13ba0:	fd442783          	lw	a5,-44(s0)
   13ba4:	00f71c63          	bne	a4,a5,13bbc <.L142>
   13ba8:	fe042703          	lw	a4,-32(s0)
   13bac:	fd042783          	lw	a5,-48(s0)
   13bb0:	00e7f663          	bleu	a4,a5,13bbc <.L142>

00013bb4 <.L147>:
   13bb4:	00100793          	li	a5,1
   13bb8:	0080006f          	j	13bc0 <.L145>

00013bbc <.L142>:
   13bbc:	00000793          	li	a5,0

00013bc0 <.L145>:
   13bc0:	00078513          	mv	a0,a5
   13bc4:	02c12083          	lw	ra,44(sp)
   13bc8:	02812403          	lw	s0,40(sp)
   13bcc:	03010113          	addi	sp,sp,48
   13bd0:	00008067          	ret

00013bd4 <elf_vtopProgramHeader>:
   13bd4:	fc010113          	addi	sp,sp,-64
   13bd8:	02112e23          	sw	ra,60(sp)
   13bdc:	02812c23          	sw	s0,56(sp)
   13be0:	04010413          	addi	s0,sp,64
   13be4:	fca42623          	sw	a0,-52(s0)
   13be8:	00058793          	mv	a5,a1
   13bec:	fcc42023          	sw	a2,-64(s0)
   13bf0:	fcd42223          	sw	a3,-60(s0)
   13bf4:	fcf41523          	sh	a5,-54(s0)

00013bf8 <.LM261>:
   13bf8:	fca45783          	lhu	a5,-54(s0)
   13bfc:	00078593          	mv	a1,a5
   13c00:	fcc42503          	lw	a0,-52(s0)
   13c04:	00000297          	auipc	t0,0x0
   13c08:	000280e7          	jalr	t0
   13c0c:	fea42423          	sw	a0,-24(s0)
   13c10:	feb42623          	sw	a1,-20(s0)

00013c14 <.LM262>:
   13c14:	fca45783          	lhu	a5,-54(s0)
   13c18:	00078593          	mv	a1,a5
   13c1c:	fcc42503          	lw	a0,-52(s0)
   13c20:	00000297          	auipc	t0,0x0
   13c24:	000280e7          	jalr	t0
   13c28:	fea42023          	sw	a0,-32(s0)
   13c2c:	feb42223          	sw	a1,-28(s0)

00013c30 <.LM263>:
   13c30:	fc042603          	lw	a2,-64(s0)
   13c34:	fc442683          	lw	a3,-60(s0)
   13c38:	fe042503          	lw	a0,-32(s0)
   13c3c:	fe442583          	lw	a1,-28(s0)
   13c40:	40a60733          	sub	a4,a2,a0
   13c44:	00e63833          	sltu	a6,a2,a4
   13c48:	40b687b3          	sub	a5,a3,a1
   13c4c:	410786b3          	sub	a3,a5,a6
   13c50:	00068793          	mv	a5,a3
   13c54:	00070613          	mv	a2,a4
   13c58:	00078693          	mv	a3,a5
   13c5c:	fe842503          	lw	a0,-24(s0)
   13c60:	fec42583          	lw	a1,-20(s0)
   13c64:	00a60733          	add	a4,a2,a0
   13c68:	00c73833          	sltu	a6,a4,a2
   13c6c:	00b687b3          	add	a5,a3,a1
   13c70:	00f806b3          	add	a3,a6,a5
   13c74:	00068793          	mv	a5,a3
   13c78:	fce42c23          	sw	a4,-40(s0)
   13c7c:	fcf42e23          	sw	a5,-36(s0)

00013c80 <.LM264>:
   13c80:	fd842703          	lw	a4,-40(s0)
   13c84:	fdc42783          	lw	a5,-36(s0)

00013c88 <.LM265>:
   13c88:	00070513          	mv	a0,a4
   13c8c:	00078593          	mv	a1,a5
   13c90:	03c12083          	lw	ra,60(sp)
   13c94:	03812403          	lw	s0,56(sp)
   13c98:	04010113          	addi	sp,sp,64
   13c9c:	00008067          	ret

00013ca0 <elf_loadFile>:
   13ca0:	fb010113          	addi	sp,sp,-80
   13ca4:	04112623          	sw	ra,76(sp)
   13ca8:	04812423          	sw	s0,72(sp)
   13cac:	04912223          	sw	s1,68(sp)
   13cb0:	05212023          	sw	s2,64(sp)
   13cb4:	03312e23          	sw	s3,60(sp)
   13cb8:	03412c23          	sw	s4,56(sp)
   13cbc:	03512a23          	sw	s5,52(sp)
   13cc0:	05010413          	addi	s0,sp,80
   13cc4:	faa42e23          	sw	a0,-68(s0)
   13cc8:	fab42c23          	sw	a1,-72(s0)

00013ccc <.LM267>:
   13ccc:	fbc42503          	lw	a0,-68(s0)
   13cd0:	00000297          	auipc	t0,0x0
   13cd4:	000280e7          	jalr	t0
   13cd8:	00050793          	mv	a5,a0
   13cdc:	00078663          	beqz	a5,13ce8 <.L151>

00013ce0 <.LM268>:
   13ce0:	00000793          	li	a5,0
   13ce4:	1980006f          	j	13e7c <.L152>

00013ce8 <.L151>:
   13ce8:	fc042e23          	sw	zero,-36(s0)
   13cec:	1700006f          	j	13e5c <.L153>

00013cf0 <.L156>:
   13cf0:	fb842783          	lw	a5,-72(s0)
   13cf4:	02078663          	beqz	a5,13d20 <.L154>

00013cf8 <.LM271>:
   13cf8:	fdc42783          	lw	a5,-36(s0)
   13cfc:	01079793          	slli	a5,a5,0x10
   13d00:	0107d793          	srli	a5,a5,0x10
   13d04:	00078593          	mv	a1,a5
   13d08:	fbc42503          	lw	a0,-68(s0)
   13d0c:	00000297          	auipc	t0,0x0
   13d10:	000280e7          	jalr	t0
   13d14:	fca42823          	sw	a0,-48(s0)
   13d18:	fcb42a23          	sw	a1,-44(s0)
   13d1c:	0280006f          	j	13d44 <.L155>

00013d20 <.L154>:
   13d20:	fdc42783          	lw	a5,-36(s0)
   13d24:	01079793          	slli	a5,a5,0x10
   13d28:	0107d793          	srli	a5,a5,0x10
   13d2c:	00078593          	mv	a1,a5
   13d30:	fbc42503          	lw	a0,-68(s0)
   13d34:	00000297          	auipc	t0,0x0
   13d38:	000280e7          	jalr	t0
   13d3c:	fca42823          	sw	a0,-48(s0)
   13d40:	fcb42a23          	sw	a1,-44(s0)

00013d44 <.L155>:
   13d44:	fdc42783          	lw	a5,-36(s0)
   13d48:	01079793          	slli	a5,a5,0x10
   13d4c:	0107d793          	srli	a5,a5,0x10
   13d50:	00078593          	mv	a1,a5
   13d54:	fbc42503          	lw	a0,-68(s0)
   13d58:	00000297          	auipc	t0,0x0
   13d5c:	000280e7          	jalr	t0
   13d60:	00050713          	mv	a4,a0
   13d64:	00058793          	mv	a5,a1
   13d68:	fce42623          	sw	a4,-52(s0)

00013d6c <.LM274>:
   13d6c:	fbc42783          	lw	a5,-68(s0)
   13d70:	00078913          	mv	s2,a5
   13d74:	00000993          	li	s3,0
   13d78:	fdc42783          	lw	a5,-36(s0)
   13d7c:	01079793          	slli	a5,a5,0x10
   13d80:	0107d793          	srli	a5,a5,0x10
   13d84:	00078593          	mv	a1,a5
   13d88:	fbc42503          	lw	a0,-68(s0)
   13d8c:	00000297          	auipc	t0,0x0
   13d90:	000280e7          	jalr	t0
   13d94:	00050613          	mv	a2,a0
   13d98:	00058693          	mv	a3,a1
   13d9c:	00c90733          	add	a4,s2,a2
   13da0:	012735b3          	sltu	a1,a4,s2
   13da4:	00d987b3          	add	a5,s3,a3
   13da8:	00f586b3          	add	a3,a1,a5
   13dac:	00068793          	mv	a5,a3
   13db0:	fce42023          	sw	a4,-64(s0)
   13db4:	fcf42223          	sw	a5,-60(s0)

00013db8 <.LM275>:
   13db8:	fd042783          	lw	a5,-48(s0)
   13dbc:	00078713          	mv	a4,a5
   13dc0:	fc042783          	lw	a5,-64(s0)
   13dc4:	fcc42603          	lw	a2,-52(s0)
   13dc8:	00078593          	mv	a1,a5
   13dcc:	00070513          	mv	a0,a4
   13dd0:	00000297          	auipc	t0,0x0
   13dd4:	000280e7          	jalr	t0

00013dd8 <.LM276>:
   13dd8:	fcc42783          	lw	a5,-52(s0)
   13ddc:	00078a13          	mv	s4,a5
   13de0:	00000a93          	li	s5,0
   13de4:	fd042603          	lw	a2,-48(s0)
   13de8:	fd442683          	lw	a3,-44(s0)
   13dec:	01460733          	add	a4,a2,s4
   13df0:	00c735b3          	sltu	a1,a4,a2
   13df4:	015687b3          	add	a5,a3,s5
   13df8:	00f586b3          	add	a3,a1,a5
   13dfc:	00068793          	mv	a5,a3
   13e00:	fce42823          	sw	a4,-48(s0)
   13e04:	fcf42a23          	sw	a5,-44(s0)

00013e08 <.LM277>:
   13e08:	fd042783          	lw	a5,-48(s0)
   13e0c:	00078493          	mv	s1,a5
   13e10:	fdc42783          	lw	a5,-36(s0)
   13e14:	01079793          	slli	a5,a5,0x10
   13e18:	0107d793          	srli	a5,a5,0x10
   13e1c:	00078593          	mv	a1,a5
   13e20:	fbc42503          	lw	a0,-68(s0)
   13e24:	00000297          	auipc	t0,0x0
   13e28:	000280e7          	jalr	t0
   13e2c:	00050713          	mv	a4,a0
   13e30:	00058793          	mv	a5,a1
   13e34:	fcc42783          	lw	a5,-52(s0)
   13e38:	40f707b3          	sub	a5,a4,a5
   13e3c:	00078613          	mv	a2,a5
   13e40:	00000593          	li	a1,0
   13e44:	00048513          	mv	a0,s1
   13e48:	00000297          	auipc	t0,0x0
   13e4c:	000280e7          	jalr	t0

00013e50 <.LBE3>:
   13e50:	fdc42783          	lw	a5,-36(s0)
   13e54:	00178793          	addi	a5,a5,1
   13e58:	fcf42e23          	sw	a5,-36(s0)

00013e5c <.L153>:
   13e5c:	fbc42503          	lw	a0,-68(s0)
   13e60:	00000297          	auipc	t0,0x0
   13e64:	000280e7          	jalr	t0
   13e68:	00050793          	mv	a5,a0
   13e6c:	00078713          	mv	a4,a5
   13e70:	fdc42783          	lw	a5,-36(s0)
   13e74:	e6e7cee3          	blt	a5,a4,13cf0 <.L156>

00013e78 <.LM280>:
   13e78:	00100793          	li	a5,1

00013e7c <.L152>:
   13e7c:	00078513          	mv	a0,a5
   13e80:	04c12083          	lw	ra,76(sp)
   13e84:	04812403          	lw	s0,72(sp)
   13e88:	04412483          	lw	s1,68(sp)
   13e8c:	04012903          	lw	s2,64(sp)
   13e90:	03c12983          	lw	s3,60(sp)
   13e94:	03812a03          	lw	s4,56(sp)
   13e98:	03412a83          	lw	s5,52(sp)
   13e9c:	05010113          	addi	sp,sp,80
   13ea0:	00008067          	ret

00013ea4 <parse_hex_str.constprop.0>:
   13ea4:	00850893          	addi	a7,a0,8 # 1000008 <.L0 +0xfebd58>

00013ea8 <.LM2>:
   13ea8:	00000793          	li	a5,0

00013eac <.LM3>:
   13eac:	00900813          	li	a6,9

00013eb0 <.LM4>:
   13eb0:	00500293          	li	t0,5
   13eb4:	0280006f          	j	13edc <.L6>

00013eb8 <.L11>:
   13eb8:	fbf70693          	addi	a3,a4,-65
   13ebc:	fa978593          	addi	a1,a5,-87
   13ec0:	0ff6f693          	andi	a3,a3,255

00013ec4 <.LM6>:
   13ec4:	02c2fc63          	bleu	a2,t0,13efc <.L9>
   13ec8:	fc978613          	addi	a2,a5,-55

00013ecc <.LM7>:
   13ecc:	02d2ee63          	bltu	t0,a3,13f08 <.L7>
   13ed0:	00150513          	addi	a0,a0,1

00013ed4 <.LM8>:
   13ed4:	00c707b3          	add	a5,a4,a2

00013ed8 <.LM9>:
   13ed8:	03150863          	beq	a0,a7,13f08 <.L7>

00013edc <.L6>:
   13edc:	00054703          	lbu	a4,0(a0)

00013ee0 <.LM11>:
   13ee0:	00479793          	slli	a5,a5,0x4
   13ee4:	fd078593          	addi	a1,a5,-48

00013ee8 <.LM12>:
   13ee8:	fd070693          	addi	a3,a4,-48

00013eec <.LM13>:
   13eec:	f9f70613          	addi	a2,a4,-97

00013ef0 <.LM14>:
   13ef0:	0ff6f693          	andi	a3,a3,255

00013ef4 <.LM15>:
   13ef4:	0ff67613          	andi	a2,a2,255

00013ef8 <.LM16>:
   13ef8:	fcd860e3          	bltu	a6,a3,13eb8 <.L11>

00013efc <.L9>:
   13efc:	00150513          	addi	a0,a0,1

00013f00 <.LM17>:
   13f00:	00b707b3          	add	a5,a4,a1

00013f04 <.LM18>:
   13f04:	fd151ce3          	bne	a0,a7,13edc <.L6>

00013f08 <.L7>:
   13f08:	00078513          	mv	a0,a5

00013f0c <.LM20>:
   13f0c:	00008067          	ret

00013f10 <cpio_parse_header>:
   13f10:	fe010113          	addi	sp,sp,-32
   13f14:	000007b7          	lui	a5,0x0
   13f18:	00000337          	lui	t1,0x0
   13f1c:	00112e23          	sw	ra,28(sp)
   13f20:	00812c23          	sw	s0,24(sp)
   13f24:	00912a23          	sw	s1,20(sp)
   13f28:	01212823          	sw	s2,16(sp)
   13f2c:	01312623          	sw	s3,12(sp)
   13f30:	01412423          	sw	s4,8(sp)
   13f34:	01512223          	sw	s5,4(sp)
   13f38:	00050813          	mv	a6,a0
   13f3c:	00078793          	mv	a5,a5
   13f40:	00030313          	mv	t1,t1

00013f44 <.L15>:
   13f44:	00084883          	lbu	a7,0(a6)
   13f48:	0007c283          	lbu	t0,0(a5) # 0 <buf.1018>
   13f4c:	00180813          	addi	a6,a6,1

00013f50 <.LVL10>:
   13f50:	00178793          	addi	a5,a5,1
   13f54:	0c589263          	bne	a7,t0,14018 <.L19>

00013f58 <.LM23>:
   13f58:	00088463          	beqz	a7,13f60 <.L14>

00013f5c <.LM24>:
   13f5c:	fe6794e3          	bne	a5,t1,13f44 <.L15>

00013f60 <.L14>:
   13f60:	00050413          	mv	s0,a0

00013f64 <.LBE17>:
   13f64:	03650513          	addi	a0,a0,54

00013f68 <.LVL11>:
   13f68:	00058a13          	mv	s4,a1
   13f6c:	00070913          	mv	s2,a4
   13f70:	00068993          	mv	s3,a3
   13f74:	00060493          	mv	s1,a2
   13f78:	00000297          	auipc	t0,0x0
   13f7c:	000280e7          	jalr	t0

00013f80 <.LM26>:
   13f80:	06e40793          	addi	a5,s0,110
   13f84:	000005b7          	lui	a1,0x0

00013f88 <.LM27>:
   13f88:	00050a93          	mv	s5,a0

00013f8c <.LM28>:
   13f8c:	00fa2023          	sw	a5,0(s4)

00013f90 <.LVL14>:
   13f90:	00058593          	mv	a1,a1
   13f94:	07940713          	addi	a4,s0,121

00013f98 <.L18>:
   13f98:	0005c803          	lbu	a6,0(a1) # 0 <buf.1018>
   13f9c:	0007c883          	lbu	a7,0(a5)
   13fa0:	00158593          	addi	a1,a1,1
   13fa4:	00178793          	addi	a5,a5,1

00013fa8 <.LVL16>:
   13fa8:	03181a63          	bne	a6,a7,13fdc <.L28>

00013fac <.LM30>:
   13fac:	00080463          	beqz	a6,13fb4 <.L20>

00013fb0 <.LM31>:
   13fb0:	fee794e3          	bne	a5,a4,13f98 <.L18>

00013fb4 <.L20>:
   13fb4:	00100513          	li	a0,1

00013fb8 <.L13>:
   13fb8:	01c12083          	lw	ra,28(sp)
   13fbc:	01812403          	lw	s0,24(sp)
   13fc0:	01412483          	lw	s1,20(sp)
   13fc4:	01012903          	lw	s2,16(sp)
   13fc8:	00c12983          	lw	s3,12(sp)
   13fcc:	00812a03          	lw	s4,8(sp)
   13fd0:	00412a83          	lw	s5,4(sp)
   13fd4:	02010113          	addi	sp,sp,32
   13fd8:	00008067          	ret

00013fdc <.L28>:
   13fdc:	05e40513          	addi	a0,s0,94

00013fe0 <.LVL19>:
   13fe0:	00000297          	auipc	t0,0x0
   13fe4:	000280e7          	jalr	t0

00013fe8 <.LBB21>:
   13fe8:	07140413          	addi	s0,s0,113

00013fec <.LVL21>:
   13fec:	00a40533          	add	a0,s0,a0

00013ff0 <.LVL22>:
   13ff0:	ffc57513          	andi	a0,a0,-4

00013ff4 <.LBE21>:
   13ff4:	003a8793          	addi	a5,s5,3
   13ff8:	00a787b3          	add	a5,a5,a0
   13ffc:	ffc7f793          	andi	a5,a5,-4

00014000 <.LM37>:
   14000:	00a9a023          	sw	a0,0(s3)

00014004 <.LM38>:
   14004:	00f92023          	sw	a5,0(s2)

00014008 <.LM39>:
   14008:	00048463          	beqz	s1,14010 <.L27>

0001400c <.LM40>:
   1400c:	0154a023          	sw	s5,0(s1)

00014010 <.L27>:
   14010:	00000513          	li	a0,0
   14014:	fa5ff06f          	j	13fb8 <.L13>

00014018 <.L19>:
   14018:	fff00513          	li	a0,-1

0001401c <.LVL26>:
   1401c:	f9dff06f          	j	13fb8 <.L13>

00014020 <cpio_get_entry>:
   14020:	fd010113          	addi	sp,sp,-48
   14024:	02112623          	sw	ra,44(sp)
   14028:	02812423          	sw	s0,40(sp)
   1402c:	02912223          	sw	s1,36(sp)
   14030:	03212023          	sw	s2,32(sp)
   14034:	01312e23          	sw	s3,28(sp)

00014038 <.LM44>:
   14038:	00012423          	sw	zero,8(sp)

0001403c <.LM45>:
   1403c:	0405c063          	bltz	a1,1407c <.L34>
   14040:	00058493          	mv	s1,a1
   14044:	00060913          	mv	s2,a2
   14048:	00068993          	mv	s3,a3
   1404c:	00000413          	li	s0,0
   14050:	00c0006f          	j	1405c <.L33>

00014054 <.L38>:
   14054:	00c12503          	lw	a0,12(sp)

00014058 <.LBE23>:
   14058:	0484c263          	blt	s1,s0,1409c <.L37>

0001405c <.L33>:
   1405c:	00c10713          	addi	a4,sp,12
   14060:	00810693          	addi	a3,sp,8
   14064:	00098613          	mv	a2,s3
   14068:	00090593          	mv	a1,s2
   1406c:	00000297          	auipc	t0,0x0
   14070:	000280e7          	jalr	t0

00014074 <.LBE24>:
   14074:	00140413          	addi	s0,s0,1

00014078 <.LBB25>:
   14078:	fc050ee3          	beqz	a0,14054 <.L38>

0001407c <.L34>:
   1407c:	00000513          	li	a0,0

00014080 <.L32>:
   14080:	02c12083          	lw	ra,44(sp)
   14084:	02812403          	lw	s0,40(sp)
   14088:	02412483          	lw	s1,36(sp)
   1408c:	02012903          	lw	s2,32(sp)
   14090:	01c12983          	lw	s3,28(sp)
   14094:	03010113          	addi	sp,sp,48
   14098:	00008067          	ret

0001409c <.L37>:
   1409c:	00812503          	lw	a0,8(sp)

000140a0 <.LVL36>:
   140a0:	fe1ff06f          	j	14080 <.L32>

000140a4 <cpio_get_file>:
   140a4:	fe010113          	addi	sp,sp,-32
   140a8:	00812c23          	sw	s0,24(sp)
   140ac:	00060413          	mv	s0,a2
   140b0:	00912a23          	sw	s1,20(sp)

000140b4 <.LBB26>:
   140b4:	00410713          	addi	a4,sp,4

000140b8 <.LBE26>:
   140b8:	00058493          	mv	s1,a1

000140bc <.LBB29>:
   140bc:	00810693          	addi	a3,sp,8
   140c0:	00040613          	mv	a2,s0

000140c4 <.LVL38>:
   140c4:	00c10593          	addi	a1,sp,12

000140c8 <.LBE29>:
   140c8:	00112e23          	sw	ra,28(sp)

000140cc <.LBB30>:
   140cc:	00000297          	auipc	t0,0x0
   140d0:	000280e7          	jalr	t0

000140d4 <.LM59>:
   140d4:	04051863          	bnez	a0,14124 <.L45>

000140d8 <.L51>:
   140d8:	00c12783          	lw	a5,12(sp)

000140dc <.LVL42>:
   140dc:	00048713          	mv	a4,s1
   140e0:	fff78593          	addi	a1,a5,-1
   140e4:	00c0006f          	j	140f0 <.L44>

000140e8 <.L41>:
   140e8:	04068a63          	beqz	a3,1413c <.L43>

000140ec <.LM62>:
   140ec:	04b78863          	beq	a5,a1,1413c <.L43>

000140f0 <.L44>:
   140f0:	00074683          	lbu	a3,0(a4)
   140f4:	0007c603          	lbu	a2,0(a5)
   140f8:	00170713          	addi	a4,a4,1
   140fc:	00178793          	addi	a5,a5,1

00014100 <.LVL45>:
   14100:	fec684e3          	beq	a3,a2,140e8 <.L41>

00014104 <.LBE27>:
   14104:	00412503          	lw	a0,4(sp)

00014108 <.LM65>:
   14108:	00410713          	addi	a4,sp,4
   1410c:	00810693          	addi	a3,sp,8
   14110:	00040613          	mv	a2,s0
   14114:	00c10593          	addi	a1,sp,12

00014118 <.LVL47>:
   14118:	00000297          	auipc	t0,0x0
   1411c:	000280e7          	jalr	t0

00014120 <.LM66>:
   14120:	fa050ce3          	beqz	a0,140d8 <.L51>

00014124 <.L45>:
   14124:	01c12083          	lw	ra,28(sp)

00014128 <.LBB31>:
   14128:	00000513          	li	a0,0

0001412c <.LBE31>:
   1412c:	01812403          	lw	s0,24(sp)

00014130 <.LVL51>:
   14130:	01412483          	lw	s1,20(sp)

00014134 <.LVL52>:
   14134:	02010113          	addi	sp,sp,32
   14138:	00008067          	ret

0001413c <.L43>:
   1413c:	01c12083          	lw	ra,28(sp)

00014140 <.LBB32>:
   14140:	00812503          	lw	a0,8(sp)

00014144 <.LBE32>:
   14144:	01812403          	lw	s0,24(sp)

00014148 <.LVL55>:
   14148:	01412483          	lw	s1,20(sp)

0001414c <.LVL56>:
   1414c:	02010113          	addi	sp,sp,32
   14150:	00008067          	ret

00014154 <cpio_info>:
   14154:	0c058463          	beqz	a1,1421c <.L57>

00014158 <.LM74>:
   14158:	fe010113          	addi	sp,sp,-32
   1415c:	00812c23          	sw	s0,24(sp)
   14160:	00912a23          	sw	s1,20(sp)
   14164:	01212823          	sw	s2,16(sp)
   14168:	00112e23          	sw	ra,28(sp)
   1416c:	00058413          	mv	s0,a1

00014170 <.LM75>:
   14170:	0005a023          	sw	zero,0(a1)

00014174 <.LM76>:
   14174:	0005a223          	sw	zero,4(a1)

00014178 <.LM77>:
   14178:	fff00493          	li	s1,-1

0001417c <.LM78>:
   1417c:	00100913          	li	s2,1

00014180 <.L54>:
   14180:	00010713          	mv	a4,sp
   14184:	00810693          	addi	a3,sp,8
   14188:	00c10613          	addi	a2,sp,12
   1418c:	00410593          	addi	a1,sp,4
   14190:	00000297          	auipc	t0,0x0
   14194:	000280e7          	jalr	t0

00014198 <.LM80>:
   14198:	06950063          	beq	a0,s1,141f8 <.L58>

0001419c <.L65>:
   1419c:	07250c63          	beq	a0,s2,14214 <.L59>

000141a0 <.LM82>:
   141a0:	00042703          	lw	a4,0(s0)

000141a4 <.LM83>:
   141a4:	00412683          	lw	a3,4(sp)

000141a8 <.LM84>:
   141a8:	00012503          	lw	a0,0(sp)

000141ac <.LM85>:
   141ac:	00170713          	addi	a4,a4,1
   141b0:	00e42023          	sw	a4,0(s0)

000141b4 <.LBB33>:
   141b4:	0006c783          	lbu	a5,0(a3)
   141b8:	fc0784e3          	beqz	a5,14180 <.L54>
   141bc:	00068793          	mv	a5,a3

000141c0 <.L56>:
   141c0:	00178793          	addi	a5,a5,1
   141c4:	0007c703          	lbu	a4,0(a5)
   141c8:	fe071ce3          	bnez	a4,141c0 <.L56>

000141cc <.LBE33>:
   141cc:	00442703          	lw	a4,4(s0)
   141d0:	40d787b3          	sub	a5,a5,a3

000141d4 <.LVL64>:
   141d4:	faf776e3          	bleu	a5,a4,14180 <.L54>

000141d8 <.LM88>:
   141d8:	00f42223          	sw	a5,4(s0)

000141dc <.LM89>:
   141dc:	00010713          	mv	a4,sp
   141e0:	00810693          	addi	a3,sp,8

000141e4 <.LVL65>:
   141e4:	00c10613          	addi	a2,sp,12
   141e8:	00410593          	addi	a1,sp,4

000141ec <.LVL66>:
   141ec:	00000297          	auipc	t0,0x0
   141f0:	000280e7          	jalr	t0

000141f4 <.LM90>:
   141f4:	fa9514e3          	bne	a0,s1,1419c <.L65>

000141f8 <.L58>:
   141f8:	00048513          	mv	a0,s1

000141fc <.L53>:
   141fc:	01c12083          	lw	ra,28(sp)
   14200:	01812403          	lw	s0,24(sp)

00014204 <.LVL69>:
   14204:	01412483          	lw	s1,20(sp)
   14208:	01012903          	lw	s2,16(sp)
   1420c:	02010113          	addi	sp,sp,32
   14210:	00008067          	ret

00014214 <.L59>:
   14214:	00000513          	li	a0,0

00014218 <.LVL71>:
   14218:	fe5ff06f          	j	141fc <.L53>

0001421c <.L57>:
   1421c:	00100513          	li	a0,1

00014220 <.LM94>:
   14220:	00008067          	ret

00014224 <cpio_ls>:
   14224:	08060463          	beqz	a2,142ac <.L78>

00014228 <.LM97>:
   14228:	fe010113          	addi	sp,sp,-32
   1422c:	00812c23          	sw	s0,24(sp)
   14230:	00912a23          	sw	s1,20(sp)
   14234:	01212823          	sw	s2,16(sp)
   14238:	00112e23          	sw	ra,28(sp)
   1423c:	00060913          	mv	s2,a2
   14240:	00058413          	mv	s0,a1

00014244 <.LM98>:
   14244:	00000493          	li	s1,0

00014248 <.L70>:
   14248:	00410713          	addi	a4,sp,4
   1424c:	00810693          	addi	a3,sp,8
   14250:	00c10613          	addi	a2,sp,12
   14254:	00010593          	mv	a1,sp
   14258:	00000297          	auipc	t0,0x0
   1425c:	000280e7          	jalr	t0

00014260 <.LM100>:
   14260:	02051c63          	bnez	a0,14298 <.L66>

00014264 <.LM101>:
   14264:	00012703          	lw	a4,0(sp)
   14268:	00042683          	lw	a3,0(s0)

0001426c <.LBB35>:
   1426c:	00074783          	lbu	a5,0(a4)
   14270:	00078c63          	beqz	a5,14288 <.L72>

00014274 <.L73>:
   14274:	00f68023          	sb	a5,0(a3)

00014278 <.LM104>:
   14278:	00170713          	addi	a4,a4,1

0001427c <.LM105>:
   1427c:	00074783          	lbu	a5,0(a4)

00014280 <.LM106>:
   14280:	00168693          	addi	a3,a3,1

00014284 <.LM107>:
   14284:	fe0798e3          	bnez	a5,14274 <.L73>

00014288 <.L72>:
   14288:	00148493          	addi	s1,s1,1

0001428c <.LM109>:
   1428c:	00412503          	lw	a0,4(sp)
   14290:	00440413          	addi	s0,s0,4

00014294 <.LM110>:
   14294:	fa991ae3          	bne	s2,s1,14248 <.L70>

00014298 <.L66>:
   14298:	01c12083          	lw	ra,28(sp)
   1429c:	01812403          	lw	s0,24(sp)
   142a0:	01412483          	lw	s1,20(sp)
   142a4:	01012903          	lw	s2,16(sp)
   142a8:	02010113          	addi	sp,sp,32

000142ac <.L78>:
   142ac:	00008067          	ret

Disassembly of section .vector:

00000000 <.L0 -0x40>:
   0:	30500073          	mrts
   4:	00000013          	nop
   8:	00000013          	nop
   c:	00000013          	nop
  10:	00000013          	nop
  14:	00000013          	nop
  18:	00000013          	nop
  1c:	00000013          	nop
  20:	00000013          	nop
  24:	00000013          	nop
  28:	00000013          	nop
  2c:	00000013          	nop
  30:	00000013          	nop
  34:	00000013          	nop
  38:	00000013          	nop
  3c:	00000013          	nop

00000040 <.L0 >:
  40:	00000417          	auipc	s0,0x0
  44:	00040413          	mv	s0,s0
  48:	00040067          	jr	s0
  4c:	00000013          	nop
  50:	00000013          	nop
  54:	00000013          	nop
  58:	00000013          	nop
  5c:	00000013          	nop
  60:	00000013          	nop
  64:	00000013          	nop
  68:	00000013          	nop
  6c:	00000013          	nop
  70:	00000013          	nop
  74:	00000013          	nop
  78:	00000013          	nop
  7c:	00000013          	nop
  80:	00000013          	nop
  84:	00000013          	nop

00000088 <.L0 >:
  88:	00000417          	auipc	s0,0x0
  8c:	00040413          	mv	s0,s0
  90:	00040067          	jr	s0
  94:	00000013          	nop
  98:	00000013          	nop
  9c:	00000013          	nop
  a0:	00000013          	nop
  a4:	00000013          	nop
  a8:	00000013          	nop
  ac:	00000013          	nop
  b0:	00000013          	nop
  b4:	00000013          	nop
  b8:	00000013          	nop
  bc:	00000013          	nop
  c0:	00000013          	nop
  c4:	00000013          	nop
  c8:	00000013          	nop
  cc:	00000013          	nop

000000d0 <.L0 >:
  d0:	00000417          	auipc	s0,0x0
  d4:	00040413          	mv	s0,s0
  d8:	00040067          	jr	s0
  dc:	00000013          	nop
  e0:	00000013          	nop
  e4:	00000013          	nop
  e8:	00000013          	nop
  ec:	00000013          	nop
  f0:	00000013          	nop
  f4:	00000013          	nop
  f8:	00000013          	nop
  fc:	00000013          	nop
 100:	00000013          	nop
 104:	00000013          	nop
 108:	00000013          	nop
 10c:	00000013          	nop
 110:	00000013          	nop
 114:	00000013          	nop

00000118 <.L0 >:
 118:	00000417          	auipc	s0,0x0
 11c:	00040413          	mv	s0,s0

00000120 <.L0 >:
 120:	00000417          	auipc	s0,0x0
 124:	00040413          	mv	s0,s0
 128:	00040067          	jr	s0
