
elfloader.o:     file format elf32-littleriscv


Disassembly of section .text:

00010000 <_ftext>:
   10000:	00000317          	auipc	t1,0x0
   10004:	00030313          	mv	t1,t1
   10008:	ef010113          	addi	sp,sp,-272
   1000c:	00112423          	sw	ra,8(sp)
   10010:	00212823          	sw	sp,16(sp)
   10014:	00312c23          	sw	gp,24(sp)
   10018:	02412023          	sw	tp,32(sp)
   1001c:	02512423          	sw	t0,40(sp)
   10020:	02612823          	sw	t1,48(sp)
   10024:	02712c23          	sw	t2,56(sp)
   10028:	04812023          	sw	s0,64(sp)
   1002c:	04912423          	sw	s1,72(sp)
   10030:	04a12823          	sw	a0,80(sp)
   10034:	04b12c23          	sw	a1,88(sp)
   10038:	06c12023          	sw	a2,96(sp)
   1003c:	06d12423          	sw	a3,104(sp)
   10040:	06e12823          	sw	a4,112(sp)
   10044:	06f12c23          	sw	a5,120(sp)
   10048:	09012023          	sw	a6,128(sp)
   1004c:	09112423          	sw	a7,136(sp)
   10050:	09212823          	sw	s2,144(sp)
   10054:	09312c23          	sw	s3,152(sp)
   10058:	0b412023          	sw	s4,160(sp)
   1005c:	0b512423          	sw	s5,168(sp)
   10060:	0b612823          	sw	s6,176(sp)
   10064:	0b712c23          	sw	s7,184(sp)
   10068:	0d812023          	sw	s8,192(sp)
   1006c:	0d912423          	sw	s9,200(sp)
   10070:	0da12823          	sw	s10,208(sp)
   10074:	0db12c23          	sw	s11,216(sp)
   10078:	0fc12023          	sw	t3,224(sp)
   1007c:	0fd12423          	sw	t4,232(sp)
   10080:	0fe12823          	sw	t5,240(sp)
   10084:	0ff12c23          	sw	t6,248(sp)
   10088:	34202573          	csrr	a0,mcause
   1008c:	341025f3          	csrr	a1,mepc
   10090:	00010613          	mv	a2,sp
   10094:	f6dff0ef          	jal	10000 <_ftext>
   10098:	34151073          	csrw	mepc,a0
   1009c:	00812083          	lw	ra,8(sp)
   100a0:	01012103          	lw	sp,16(sp)
   100a4:	01812183          	lw	gp,24(sp)
   100a8:	02012203          	lw	tp,32(sp)
   100ac:	02812283          	lw	t0,40(sp)
   100b0:	03012303          	lw	t1,48(sp)
   100b4:	03812383          	lw	t2,56(sp)
   100b8:	04012403          	lw	s0,64(sp)
   100bc:	04812483          	lw	s1,72(sp)
   100c0:	05012503          	lw	a0,80(sp)
   100c4:	05812583          	lw	a1,88(sp)
   100c8:	06012603          	lw	a2,96(sp)
   100cc:	06812683          	lw	a3,104(sp)
   100d0:	07012703          	lw	a4,112(sp)
   100d4:	07812783          	lw	a5,120(sp)
   100d8:	08012803          	lw	a6,128(sp)
   100dc:	08812883          	lw	a7,136(sp)
   100e0:	09012903          	lw	s2,144(sp)
   100e4:	09812983          	lw	s3,152(sp)
   100e8:	0a012a03          	lw	s4,160(sp)
   100ec:	0a812a83          	lw	s5,168(sp)
   100f0:	0b012b03          	lw	s6,176(sp)
   100f4:	0b812b83          	lw	s7,184(sp)
   100f8:	0c012c03          	lw	s8,192(sp)
   100fc:	0c812c83          	lw	s9,200(sp)
   10100:	0d012d03          	lw	s10,208(sp)
   10104:	0d812d83          	lw	s11,216(sp)
   10108:	0e012e03          	lw	t3,224(sp)
   1010c:	0e812e83          	lw	t4,232(sp)
   10110:	0f012f03          	lw	t5,240(sp)
   10114:	0f812f83          	lw	t6,248(sp)
   10118:	11010113          	addi	sp,sp,272
   1011c:	10000073          	eret

00010120 <_start>:
   10120:	00000093          	li	ra,0
   10124:	00000113          	li	sp,0
   10128:	00000193          	li	gp,0
   1012c:	00000213          	li	tp,0
   10130:	00000293          	li	t0,0
   10134:	00000313          	li	t1,0
   10138:	00000393          	li	t2,0
   1013c:	00000413          	li	s0,0
   10140:	00000493          	li	s1,0
   10144:	00000513          	li	a0,0
   10148:	00000593          	li	a1,0
   1014c:	00000613          	li	a2,0
   10150:	00000693          	li	a3,0
   10154:	00000713          	li	a4,0
   10158:	00000793          	li	a5,0
   1015c:	00000813          	li	a6,0
   10160:	00000893          	li	a7,0
   10164:	00000913          	li	s2,0
   10168:	00000993          	li	s3,0
   1016c:	00000a13          	li	s4,0
   10170:	00000a93          	li	s5,0
   10174:	00000b13          	li	s6,0
   10178:	00000b93          	li	s7,0
   1017c:	00000c13          	li	s8,0
   10180:	00000c93          	li	s9,0
   10184:	00000d13          	li	s10,0
   10188:	00000d93          	li	s11,0
   1018c:	00000e13          	li	t3,0
   10190:	00000e93          	li	t4,0
   10194:	00000f13          	li	t5,0
   10198:	00000f93          	li	t6,0
   1019c:	f10022f3          	csrr	t0,mhartid
   101a0:	02028863          	beqz	t0,101d0 <boot_seL4>

000101a4 <.L0 >:
   101a4:	00000417          	auipc	s0,0x0
   101a8:	00040413          	mv	s0,s0
   101ac:	00028513          	mv	a0,t0
   101b0:	0012c313          	xori	t1,t0,1
   101b4:	00031863          	bnez	t1,101c4 <boot_node2>

000101b8 <.L0 >:
   101b8:	00000117          	auipc	sp,0x0
   101bc:	00010113          	mv	sp,sp
   101c0:	00040067          	jr	s0

000101c4 <boot_node2>:
   101c4:	00000117          	auipc	sp,0x0
   101c8:	00010113          	mv	sp,sp
   101cc:	00040067          	jr	s0

000101d0 <boot_seL4>:
   101d0:	00000117          	auipc	sp,0x0
   101d4:	00010113          	mv	sp,sp

000101d8 <.L0 >:
   101d8:	00000417          	auipc	s0,0x0
   101dc:	00040413          	mv	s0,s0
   101e0:	00040067          	jr	s0

000101e4 <elf32_getProgramHeaderTable>:
   101e4:	fe010113          	addi	sp,sp,-32 # 101b0 <.L0 +0xc>
   101e8:	00812e23          	sw	s0,28(sp)
   101ec:	02010413          	addi	s0,sp,32
   101f0:	fea42623          	sw	a0,-20(s0) # 101c4 <boot_node2>

000101f4 <.LM2>:
   101f4:	fec42783          	lw	a5,-20(s0)
   101f8:	01c7a703          	lw	a4,28(a5)
   101fc:	fec42783          	lw	a5,-20(s0)
   10200:	00f707b3          	add	a5,a4,a5

00010204 <.LM3>:
   10204:	00078513          	mv	a0,a5
   10208:	01c12403          	lw	s0,28(sp)
   1020c:	02010113          	addi	sp,sp,32
   10210:	00008067          	ret

00010214 <elf32_getProgramHeaderType>:
   10214:	fe010113          	addi	sp,sp,-32
   10218:	00112e23          	sw	ra,28(sp)
   1021c:	00812c23          	sw	s0,24(sp)
   10220:	02010413          	addi	s0,sp,32
   10224:	fea42623          	sw	a0,-20(s0)
   10228:	00058793          	mv	a5,a1
   1022c:	fef41523          	sh	a5,-22(s0)

00010230 <.LM5>:
   10230:	fec42503          	lw	a0,-20(s0)
   10234:	00000297          	auipc	t0,0x0
   10238:	000280e7          	jalr	t0
   1023c:	00050713          	mv	a4,a0
   10240:	fea45783          	lhu	a5,-22(s0)
   10244:	00579793          	slli	a5,a5,0x5
   10248:	00f707b3          	add	a5,a4,a5
   1024c:	0007a783          	lw	a5,0(a5)

00010250 <.LM6>:
   10250:	00078513          	mv	a0,a5
   10254:	01c12083          	lw	ra,28(sp)
   10258:	01812403          	lw	s0,24(sp)
   1025c:	02010113          	addi	sp,sp,32
   10260:	00008067          	ret

00010264 <map_kernel_window>:
   10264:	fc010113          	addi	sp,sp,-64
   10268:	02112e23          	sw	ra,60(sp)
   1026c:	02812c23          	sw	s0,56(sp)
   10270:	04010413          	addi	s0,sp,64
   10274:	fca42623          	sw	a0,-52(s0)

00010278 <.LM8>:
   10278:	fcc42783          	lw	a5,-52(s0)
   1027c:	0007a783          	lw	a5,0(a5)
   10280:	0167d793          	srli	a5,a5,0x16
   10284:	fef42423          	sw	a5,-24(s0)

00010288 <.LM9>:
   10288:	10000793          	li	a5,256
   1028c:	fef42223          	sw	a5,-28(s0)

00010290 <.LM10>:
   10290:	fe842583          	lw	a1,-24(s0)
   10294:	000007b7          	lui	a5,0x0
   10298:	00078513          	mv	a0,a5
   1029c:	00000297          	auipc	t0,0x0
   102a0:	000280e7          	jalr	t0

000102a4 <.LM11>:
   102a4:	fe042623          	sw	zero,-20(s0)
   102a8:	0340006f          	j	102dc <.L6>

000102ac <.L7>:
   102ac:	fec42783          	lw	a5,-20(s0)
   102b0:	01479793          	slli	a5,a5,0x14
   102b4:	0177e713          	ori	a4,a5,23
   102b8:	000007b7          	lui	a5,0x0
   102bc:	fec42683          	lw	a3,-20(s0)
   102c0:	00269693          	slli	a3,a3,0x2
   102c4:	00078793          	mv	a5,a5
   102c8:	00f687b3          	add	a5,a3,a5
   102cc:	00e7a023          	sw	a4,0(a5) # 0 <buf.1018>

000102d0 <.LM13>:
   102d0:	fec42783          	lw	a5,-20(s0)
   102d4:	00178793          	addi	a5,a5,1
   102d8:	fef42623          	sw	a5,-20(s0)

000102dc <.L6>:
   102dc:	fec42703          	lw	a4,-20(s0)
   102e0:	fe442783          	lw	a5,-28(s0)
   102e4:	fcf764e3          	bltu	a4,a5,102ac <.L7>

000102e8 <.LM15>:
   102e8:	fe042623          	sw	zero,-20(s0)
   102ec:	0400006f          	j	1032c <.L8>

000102f0 <.L9>:
   102f0:	fe842783          	lw	a5,-24(s0)
   102f4:	01479793          	slli	a5,a5,0x14
   102f8:	0177e713          	ori	a4,a5,23
   102fc:	000007b7          	lui	a5,0x0
   10300:	fe442683          	lw	a3,-28(s0)
   10304:	00269693          	slli	a3,a3,0x2
   10308:	00078793          	mv	a5,a5
   1030c:	00f687b3          	add	a5,a3,a5
   10310:	00e7a023          	sw	a4,0(a5) # 0 <buf.1018>

00010314 <.LM17>:
   10314:	fe442783          	lw	a5,-28(s0)
   10318:	00178793          	addi	a5,a5,1
   1031c:	fef42223          	sw	a5,-28(s0)
   10320:	fe842783          	lw	a5,-24(s0)
   10324:	00178793          	addi	a5,a5,1
   10328:	fef42423          	sw	a5,-24(s0)

0001032c <.L8>:
   1032c:	fe442703          	lw	a4,-28(s0)
   10330:	3ff00793          	li	a5,1023
   10334:	fae7fee3          	bleu	a4,a5,102f0 <.L9>

00010338 <.LM19>:
   10338:	000007b7          	lui	a5,0x0
   1033c:	00078793          	mv	a5,a5
   10340:	18079073          	csrw	sptbr,a5

00010344 <.LBB2>:
   10344:	300467f3          	csrrs	a5,mstatus,8
   10348:	fef42023          	sw	a5,-32(s0)

0001034c <.LBB3>:
   1034c:	03000793          	li	a5,48
   10350:	3007a7f3          	csrrs	a5,mstatus,a5
   10354:	fcf42e23          	sw	a5,-36(s0)

00010358 <.LBB4>:
   10358:	003e07b7          	lui	a5,0x3e0
   1035c:	3007b7f3          	csrrc	a5,mstatus,a5
   10360:	fcf42c23          	sw	a5,-40(s0)

00010364 <.LBB5>:
   10364:	001007b7          	lui	a5,0x100
   10368:	3007a7f3          	csrrs	a5,mstatus,a5
   1036c:	fcf42a23          	sw	a5,-44(s0)

00010370 <.LBB6>:
   10370:	300277f3          	csrrc	a5,mstatus,4
   10374:	fcf42823          	sw	a5,-48(s0)

00010378 <.LBE6>:
   10378:	00000013          	nop
   1037c:	03c12083          	lw	ra,60(sp)
   10380:	03812403          	lw	s0,56(sp)
   10384:	04010113          	addi	sp,sp,64
   10388:	00008067          	ret

0001038c <regions_overlap>:
   1038c:	fe010113          	addi	sp,sp,-32
   10390:	00812e23          	sw	s0,28(sp)
   10394:	02010413          	addi	s0,sp,32
   10398:	fea42623          	sw	a0,-20(s0)
   1039c:	feb42423          	sw	a1,-24(s0)
   103a0:	fec42223          	sw	a2,-28(s0)
   103a4:	fed42023          	sw	a3,-32(s0)

000103a8 <.LM27>:
   103a8:	fe842703          	lw	a4,-24(s0)
   103ac:	fe442783          	lw	a5,-28(s0)
   103b0:	00f77663          	bleu	a5,a4,103bc <.L11>

000103b4 <.LM28>:
   103b4:	00000793          	li	a5,0
   103b8:	01c0006f          	j	103d4 <.L12>

000103bc <.L11>:
   103bc:	fe042703          	lw	a4,-32(s0)
   103c0:	fec42783          	lw	a5,-20(s0)
   103c4:	00f77663          	bleu	a5,a4,103d0 <.L13>

000103c8 <.LM30>:
   103c8:	00000793          	li	a5,0
   103cc:	0080006f          	j	103d4 <.L12>

000103d0 <.L13>:
   103d0:	00100793          	li	a5,1

000103d4 <.L12>:
   103d4:	00078513          	mv	a0,a5
   103d8:	01c12403          	lw	s0,28(sp)
   103dc:	02010113          	addi	sp,sp,32
   103e0:	00008067          	ret

000103e4 <ensure_phys_range_valid>:
   103e4:	fe010113          	addi	sp,sp,-32
   103e8:	00112e23          	sw	ra,28(sp)
   103ec:	00812c23          	sw	s0,24(sp)
   103f0:	02010413          	addi	s0,sp,32
   103f4:	fea42623          	sw	a0,-20(s0)
   103f8:	feb42423          	sw	a1,-24(s0)

000103fc <.LM34>:
   103fc:	fe842783          	lw	a5,-24(s0)
   10400:	fff78713          	addi	a4,a5,-1 # fffff <.L0 +0xebd4f>
   10404:	000007b7          	lui	a5,0x0
   10408:	00078613          	mv	a2,a5

0001040c <.LM35>:
   1040c:	000007b7          	lui	a5,0x0
   10410:	00078793          	mv	a5,a5

00010414 <.LM36>:
   10414:	fff78793          	addi	a5,a5,-1
   10418:	00078693          	mv	a3,a5
   1041c:	00070593          	mv	a1,a4
   10420:	fec42503          	lw	a0,-20(s0)
   10424:	00000297          	auipc	t0,0x0
   10428:	000280e7          	jalr	t0
   1042c:	00050793          	mv	a5,a0
   10430:	00078e63          	beqz	a5,1044c <.L16>

00010434 <.LM37>:
   10434:	000007b7          	lui	a5,0x0
   10438:	00078513          	mv	a0,a5
   1043c:	00000297          	auipc	t0,0x0
   10440:	000280e7          	jalr	t0

00010444 <.LM38>:
   10444:	00000297          	auipc	t0,0x0
   10448:	000280e7          	jalr	t0

0001044c <.L16>:
   1044c:	00000013          	nop
   10450:	01c12083          	lw	ra,28(sp)
   10454:	01812403          	lw	s0,24(sp)
   10458:	02010113          	addi	sp,sp,32
   1045c:	00008067          	ret

00010460 <unpack_elf_to_paddr>:
   10460:	fb010113          	addi	sp,sp,-80
   10464:	04112623          	sw	ra,76(sp)
   10468:	04812423          	sw	s0,72(sp)
   1046c:	05010413          	addi	s0,sp,80
   10470:	faa42e23          	sw	a0,-68(s0)
   10474:	fab42c23          	sw	a1,-72(s0)

00010478 <.LM41>:
   10478:	fc840713          	addi	a4,s0,-56
   1047c:	fd040793          	addi	a5,s0,-48
   10480:	00070693          	mv	a3,a4
   10484:	00078613          	mv	a2,a5
   10488:	00000593          	li	a1,0
   1048c:	fbc42503          	lw	a0,-68(s0)
   10490:	00000297          	auipc	t0,0x0
   10494:	000280e7          	jalr	t0

00010498 <.LM42>:
   10498:	fc842703          	lw	a4,-56(s0)
   1049c:	fcc42783          	lw	a5,-52(s0)
   104a0:	00070693          	mv	a3,a4
   104a4:	fd042703          	lw	a4,-48(s0)
   104a8:	fd442783          	lw	a5,-44(s0)
   104ac:	00070793          	mv	a5,a4
   104b0:	40f687b3          	sub	a5,a3,a5
   104b4:	fef42423          	sw	a5,-24(s0)

000104b8 <.LM43>:
   104b8:	fd042703          	lw	a4,-48(s0)
   104bc:	fd442783          	lw	a5,-44(s0)
   104c0:	fb842783          	lw	a5,-72(s0)
   104c4:	40e787b3          	sub	a5,a5,a4
   104c8:	fef42223          	sw	a5,-28(s0)

000104cc <.LM44>:
   104cc:	fe842583          	lw	a1,-24(s0)
   104d0:	000007b7          	lui	a5,0x0
   104d4:	00078513          	mv	a0,a5
   104d8:	00000297          	auipc	t0,0x0
   104dc:	000280e7          	jalr	t0

000104e0 <.LM45>:
   104e0:	fb842783          	lw	a5,-72(s0)
   104e4:	fe842603          	lw	a2,-24(s0)
   104e8:	00000593          	li	a1,0
   104ec:	00078513          	mv	a0,a5
   104f0:	00000297          	auipc	t0,0x0
   104f4:	000280e7          	jalr	t0

000104f8 <.LM46>:
   104f8:	fe042623          	sw	zero,-20(s0)
   104fc:	0e80006f          	j	105e4 <.L18>

00010500 <.L21>:
   10500:	fec42783          	lw	a5,-20(s0)
   10504:	01079793          	slli	a5,a5,0x10
   10508:	0107d793          	srli	a5,a5,0x10
   1050c:	00078593          	mv	a1,a5
   10510:	fbc42503          	lw	a0,-68(s0)
   10514:	00000297          	auipc	t0,0x0
   10518:	000280e7          	jalr	t0
   1051c:	00050713          	mv	a4,a0
   10520:	00100793          	li	a5,1
   10524:	0af71863          	bne	a4,a5,105d4 <.L22>

00010528 <.LM48>:
   10528:	fec42783          	lw	a5,-20(s0)
   1052c:	01079793          	slli	a5,a5,0x10
   10530:	0107d793          	srli	a5,a5,0x10
   10534:	00078593          	mv	a1,a5
   10538:	fbc42503          	lw	a0,-68(s0)
   1053c:	00000297          	auipc	t0,0x0
   10540:	000280e7          	jalr	t0
   10544:	00050713          	mv	a4,a0
   10548:	00058793          	mv	a5,a1
   1054c:	fee42023          	sw	a4,-32(s0)

00010550 <.LM49>:
   10550:	fec42783          	lw	a5,-20(s0)
   10554:	01079793          	slli	a5,a5,0x10
   10558:	0107d793          	srli	a5,a5,0x10
   1055c:	00078593          	mv	a1,a5
   10560:	fbc42503          	lw	a0,-68(s0)
   10564:	00000297          	auipc	t0,0x0
   10568:	000280e7          	jalr	t0
   1056c:	00050713          	mv	a4,a0
   10570:	00058793          	mv	a5,a1
   10574:	fce42e23          	sw	a4,-36(s0)

00010578 <.LM50>:
   10578:	fec42783          	lw	a5,-20(s0)
   1057c:	01079793          	slli	a5,a5,0x10
   10580:	0107d793          	srli	a5,a5,0x10
   10584:	00078593          	mv	a1,a5
   10588:	fbc42503          	lw	a0,-68(s0)
   1058c:	00000297          	auipc	t0,0x0
   10590:	000280e7          	jalr	t0
   10594:	00050713          	mv	a4,a0
   10598:	00058793          	mv	a5,a1
   1059c:	fce42c23          	sw	a4,-40(s0)

000105a0 <.LM51>:
   105a0:	fe442703          	lw	a4,-28(s0)
   105a4:	fe042783          	lw	a5,-32(s0)
   105a8:	00f707b3          	add	a5,a4,a5
   105ac:	00078693          	mv	a3,a5
   105b0:	fbc42703          	lw	a4,-68(s0)
   105b4:	fd842783          	lw	a5,-40(s0)
   105b8:	00f707b3          	add	a5,a4,a5
   105bc:	fdc42603          	lw	a2,-36(s0)
   105c0:	00078593          	mv	a1,a5
   105c4:	00068513          	mv	a0,a3
   105c8:	00000297          	auipc	t0,0x0
   105cc:	000280e7          	jalr	t0
   105d0:	0080006f          	j	105d8 <.L20>

000105d4 <.L22>:
   105d4:	00000013          	nop

000105d8 <.L20>:
   105d8:	fec42783          	lw	a5,-20(s0)
   105dc:	00178793          	addi	a5,a5,1 # 1 <buf.1018+0x1>
   105e0:	fef42623          	sw	a5,-20(s0)

000105e4 <.L18>:
   105e4:	fbc42503          	lw	a0,-68(s0)
   105e8:	00000297          	auipc	t0,0x0
   105ec:	000280e7          	jalr	t0
   105f0:	00050793          	mv	a5,a0
   105f4:	00078713          	mv	a4,a5
   105f8:	fec42783          	lw	a5,-20(s0)
   105fc:	f0e7c2e3          	blt	a5,a4,10500 <.L21>

00010600 <.LM55>:
   10600:	00000013          	nop
   10604:	04c12083          	lw	ra,76(sp)
   10608:	04812403          	lw	s0,72(sp)
   1060c:	05010113          	addi	sp,sp,80
   10610:	00008067          	ret

00010614 <load_elf>:
   10614:	fb010113          	addi	sp,sp,-80
   10618:	04112623          	sw	ra,76(sp)
   1061c:	04812423          	sw	s0,72(sp)
   10620:	05212223          	sw	s2,68(sp)
   10624:	05312023          	sw	s3,64(sp)
   10628:	03412e23          	sw	s4,60(sp)
   1062c:	03512c23          	sw	s5,56(sp)
   10630:	03612a23          	sw	s6,52(sp)
   10634:	03712823          	sw	s7,48(sp)
   10638:	05010413          	addi	s0,sp,80
   1063c:	faa42e23          	sw	a0,-68(s0)
   10640:	fab42c23          	sw	a1,-72(s0)
   10644:	fac42a23          	sw	a2,-76(s0)
   10648:	fad42823          	sw	a3,-80(s0)

0001064c <.LM57>:
   1064c:	fc840713          	addi	a4,s0,-56
   10650:	fd040793          	addi	a5,s0,-48
   10654:	00070693          	mv	a3,a4
   10658:	00078613          	mv	a2,a5
   1065c:	00000593          	li	a1,0
   10660:	fb842503          	lw	a0,-72(s0)
   10664:	00000297          	auipc	t0,0x0
   10668:	000280e7          	jalr	t0

0001066c <.LM58>:
   1066c:	fd042603          	lw	a2,-48(s0)
   10670:	fd442683          	lw	a3,-44(s0)
   10674:	fc842703          	lw	a4,-56(s0)
   10678:	fcc42783          	lw	a5,-52(s0)
   1067c:	000005b7          	lui	a1,0x0
   10680:	00058513          	mv	a0,a1
   10684:	00000297          	auipc	t0,0x0
   10688:	000280e7          	jalr	t0

0001068c <.LM59>:
   1068c:	fc842603          	lw	a2,-56(s0)
   10690:	fcc42683          	lw	a3,-52(s0)
   10694:	fff00513          	li	a0,-1
   10698:	fff00593          	li	a1,-1
   1069c:	00a60733          	add	a4,a2,a0
   106a0:	00c73833          	sltu	a6,a4,a2
   106a4:	00b687b3          	add	a5,a3,a1
   106a8:	00f806b3          	add	a3,a6,a5
   106ac:	00068793          	mv	a5,a3
   106b0:	01479693          	slli	a3,a5,0x14
   106b4:	00c75913          	srli	s2,a4,0xc
   106b8:	0126e933          	or	s2,a3,s2
   106bc:	00c7d993          	srli	s3,a5,0xc
   106c0:	00100613          	li	a2,1
   106c4:	00000693          	li	a3,0
   106c8:	00c90733          	add	a4,s2,a2
   106cc:	012735b3          	sltu	a1,a4,s2
   106d0:	00d987b3          	add	a5,s3,a3
   106d4:	00f586b3          	add	a3,a1,a5
   106d8:	00068793          	mv	a5,a3
   106dc:	01475693          	srli	a3,a4,0x14
   106e0:	00c79a93          	slli	s5,a5,0xc
   106e4:	0156eab3          	or	s5,a3,s5
   106e8:	00c71a13          	slli	s4,a4,0xc
   106ec:	fd442423          	sw	s4,-56(s0)
   106f0:	fd542623          	sw	s5,-52(s0)

000106f4 <.LM60>:
   106f4:	fc842703          	lw	a4,-56(s0)
   106f8:	fcc42783          	lw	a5,-52(s0)
   106fc:	00070693          	mv	a3,a4
   10700:	fd042703          	lw	a4,-48(s0)
   10704:	fd442783          	lw	a5,-44(s0)
   10708:	00070793          	mv	a5,a4
   1070c:	40f687b3          	sub	a5,a3,a5
   10710:	fcf42e23          	sw	a5,-36(s0)

00010714 <.LM61>:
   10714:	fb442703          	lw	a4,-76(s0)
   10718:	000017b7          	lui	a5,0x1
   1071c:	fff78793          	addi	a5,a5,-1 # fff <.LASF2>
   10720:	00f777b3          	and	a5,a4,a5
   10724:	02078863          	beqz	a5,10754 <.L24>

00010728 <.LM62>:
   10728:	fb442583          	lw	a1,-76(s0)
   1072c:	000007b7          	lui	a5,0x0
   10730:	00078513          	mv	a0,a5
   10734:	00000297          	auipc	t0,0x0
   10738:	000280e7          	jalr	t0

0001073c <.LM63>:
   1073c:	000007b7          	lui	a5,0x0
   10740:	00078513          	mv	a0,a5
   10744:	00000297          	auipc	t0,0x0
   10748:	000280e7          	jalr	t0

0001074c <.LM64>:
   1074c:	00000297          	auipc	t0,0x0
   10750:	000280e7          	jalr	t0

00010754 <.L24>:
   10754:	fb442783          	lw	a5,-76(s0)
   10758:	0037f793          	andi	a5,a5,3
   1075c:	00078e63          	beqz	a5,10778 <.L25>

00010760 <.LM66>:
   10760:	000007b7          	lui	a5,0x0
   10764:	00078513          	mv	a0,a5
   10768:	00000297          	auipc	t0,0x0
   1076c:	000280e7          	jalr	t0

00010770 <.LM67>:
   10770:	00000297          	auipc	t0,0x0
   10774:	000280e7          	jalr	t0

00010778 <.L25>:
   10778:	fbc42583          	lw	a1,-68(s0)
   1077c:	000007b7          	lui	a5,0x0
   10780:	00078513          	mv	a0,a5
   10784:	00000297          	auipc	t0,0x0
   10788:	000280e7          	jalr	t0

0001078c <.LM69>:
   1078c:	fb442703          	lw	a4,-76(s0)
   10790:	fdc42783          	lw	a5,-36(s0)
   10794:	00f707b3          	add	a5,a4,a5
   10798:	fff78793          	addi	a5,a5,-1
   1079c:	00078613          	mv	a2,a5
   107a0:	fb442583          	lw	a1,-76(s0)
   107a4:	000007b7          	lui	a5,0x0
   107a8:	00078513          	mv	a0,a5
   107ac:	00000297          	auipc	t0,0x0
   107b0:	000280e7          	jalr	t0

000107b4 <.LM70>:
   107b4:	fd042703          	lw	a4,-48(s0)
   107b8:	fd442783          	lw	a5,-44(s0)
   107bc:	00070793          	mv	a5,a4
   107c0:	00078593          	mv	a1,a5
   107c4:	000007b7          	lui	a5,0x0
   107c8:	00078513          	mv	a0,a5
   107cc:	00000297          	auipc	t0,0x0
   107d0:	000280e7          	jalr	t0

000107d4 <.LM71>:
   107d4:	fd042703          	lw	a4,-48(s0)
   107d8:	fd442783          	lw	a5,-44(s0)
   107dc:	00070693          	mv	a3,a4
   107e0:	fc842703          	lw	a4,-56(s0)
   107e4:	fcc42783          	lw	a5,-52(s0)
   107e8:	00070793          	mv	a5,a4
   107ec:	fff78793          	addi	a5,a5,-1
   107f0:	00078613          	mv	a2,a5
   107f4:	00068593          	mv	a1,a3
   107f8:	000007b7          	lui	a5,0x0
   107fc:	00078513          	mv	a0,a5
   10800:	00000297          	auipc	t0,0x0
   10804:	000280e7          	jalr	t0

00010808 <.LM72>:
   10808:	fb842503          	lw	a0,-72(s0)
   1080c:	00000297          	auipc	t0,0x0
   10810:	000280e7          	jalr	t0
   10814:	00050713          	mv	a4,a0
   10818:	00058793          	mv	a5,a1
   1081c:	00070793          	mv	a5,a4
   10820:	00078593          	mv	a1,a5
   10824:	000007b7          	lui	a5,0x0
   10828:	00078513          	mv	a0,a5
   1082c:	00000297          	auipc	t0,0x0
   10830:	000280e7          	jalr	t0

00010834 <.LM73>:
   10834:	fb842503          	lw	a0,-72(s0)
   10838:	00000297          	auipc	t0,0x0
   1083c:	000280e7          	jalr	t0
   10840:	00050793          	mv	a5,a0
   10844:	02078063          	beqz	a5,10864 <.L26>

00010848 <.LM74>:
   10848:	fbc42583          	lw	a1,-68(s0)
   1084c:	000007b7          	lui	a5,0x0
   10850:	00078513          	mv	a0,a5
   10854:	00000297          	auipc	t0,0x0
   10858:	000280e7          	jalr	t0

0001085c <.LM75>:
   1085c:	00000297          	auipc	t0,0x0
   10860:	000280e7          	jalr	t0

00010864 <.L26>:
   10864:	fd042703          	lw	a4,-48(s0)
   10868:	fd442783          	lw	a5,-44(s0)
   1086c:	000016b7          	lui	a3,0x1
   10870:	fff68693          	addi	a3,a3,-1 # fff <.LASF2>
   10874:	00d77b33          	and	s6,a4,a3
   10878:	0007fb93          	andi	s7,a5,0
   1087c:	000b0793          	mv	a5,s6
   10880:	0177e7b3          	or	a5,a5,s7
   10884:	02078063          	beqz	a5,108a4 <.L27>

00010888 <.LM77>:
   10888:	fbc42583          	lw	a1,-68(s0)
   1088c:	000007b7          	lui	a5,0x0
   10890:	00078513          	mv	a0,a5
   10894:	00000297          	auipc	t0,0x0
   10898:	000280e7          	jalr	t0

0001089c <.LM78>:
   1089c:	00000297          	auipc	t0,0x0
   108a0:	000280e7          	jalr	t0

000108a4 <.L27>:
   108a4:	fb442703          	lw	a4,-76(s0)
   108a8:	fdc42783          	lw	a5,-36(s0)
   108ac:	00f707b3          	add	a5,a4,a5
   108b0:	00078593          	mv	a1,a5
   108b4:	fb442503          	lw	a0,-76(s0)
   108b8:	00000297          	auipc	t0,0x0
   108bc:	000280e7          	jalr	t0

000108c0 <.LM80>:
   108c0:	fb442583          	lw	a1,-76(s0)
   108c4:	fb842503          	lw	a0,-72(s0)
   108c8:	00000297          	auipc	t0,0x0
   108cc:	000280e7          	jalr	t0

000108d0 <.LM81>:
   108d0:	fb042783          	lw	a5,-80(s0)
   108d4:	fb442703          	lw	a4,-76(s0)
   108d8:	00e7a023          	sw	a4,0(a5) # 0 <buf.1018>

000108dc <.LM82>:
   108dc:	fb442703          	lw	a4,-76(s0)
   108e0:	fdc42783          	lw	a5,-36(s0)
   108e4:	00f70733          	add	a4,a4,a5
   108e8:	fb042783          	lw	a5,-80(s0)
   108ec:	00e7a223          	sw	a4,4(a5)

000108f0 <.LM83>:
   108f0:	fd042703          	lw	a4,-48(s0)
   108f4:	fd442783          	lw	a5,-44(s0)
   108f8:	fb042783          	lw	a5,-80(s0)
   108fc:	00e7a423          	sw	a4,8(a5)

00010900 <.LM84>:
   10900:	fc842703          	lw	a4,-56(s0)
   10904:	fcc42783          	lw	a5,-52(s0)
   10908:	fb042783          	lw	a5,-80(s0)
   1090c:	00e7a623          	sw	a4,12(a5)

00010910 <.LM85>:
   10910:	fb842503          	lw	a0,-72(s0)
   10914:	00000297          	auipc	t0,0x0
   10918:	000280e7          	jalr	t0
   1091c:	00050713          	mv	a4,a0
   10920:	00058793          	mv	a5,a1
   10924:	fb042783          	lw	a5,-80(s0)
   10928:	00e7a823          	sw	a4,16(a5)

0001092c <.LM86>:
   1092c:	fb042783          	lw	a5,-80(s0)
   10930:	0107a783          	lw	a5,16(a5)
   10934:	00078593          	mv	a1,a5
   10938:	000007b7          	lui	a5,0x0
   1093c:	00078513          	mv	a0,a5
   10940:	00000297          	auipc	t0,0x0
   10944:	000280e7          	jalr	t0

00010948 <.LM87>:
   10948:	fd042703          	lw	a4,-48(s0)
   1094c:	fd442783          	lw	a5,-44(s0)
   10950:	fb442783          	lw	a5,-76(s0)
   10954:	40e78733          	sub	a4,a5,a4
   10958:	fb042783          	lw	a5,-80(s0)
   1095c:	00e7aa23          	sw	a4,20(a5) # 14 <.LASF25+0x4>

00010960 <.LM88>:
   10960:	fb442703          	lw	a4,-76(s0)
   10964:	fdc42783          	lw	a5,-36(s0)
   10968:	00f707b3          	add	a5,a4,a5
   1096c:	fff78793          	addi	a5,a5,-1
   10970:	00c7d793          	srli	a5,a5,0xc
   10974:	00178793          	addi	a5,a5,1
   10978:	00c79793          	slli	a5,a5,0xc

0001097c <.LM89>:
   1097c:	00078513          	mv	a0,a5
   10980:	04c12083          	lw	ra,76(sp)
   10984:	04812403          	lw	s0,72(sp)
   10988:	04412903          	lw	s2,68(sp)
   1098c:	04012983          	lw	s3,64(sp)
   10990:	03c12a03          	lw	s4,60(sp)
   10994:	03812a83          	lw	s5,56(sp)
   10998:	03412b03          	lw	s6,52(sp)
   1099c:	03012b83          	lw	s7,48(sp)
   109a0:	05010113          	addi	sp,sp,80
   109a4:	00008067          	ret

000109a8 <load_images>:
   109a8:	fb010113          	addi	sp,sp,-80
   109ac:	04112623          	sw	ra,76(sp)
   109b0:	04812423          	sw	s0,72(sp)
   109b4:	05010413          	addi	s0,sp,80
   109b8:	faa42e23          	sw	a0,-68(s0)
   109bc:	fab42c23          	sw	a1,-72(s0)
   109c0:	fac42a23          	sw	a2,-76(s0)
   109c4:	fad42823          	sw	a3,-80(s0)

000109c8 <.LM91>:
   109c8:	fc840793          	addi	a5,s0,-56
   109cc:	00078613          	mv	a2,a5
   109d0:	000007b7          	lui	a5,0x0
   109d4:	00078593          	mv	a1,a5
   109d8:	000007b7          	lui	a5,0x0
   109dc:	00078513          	mv	a0,a5
   109e0:	00000297          	auipc	t0,0x0
   109e4:	000280e7          	jalr	t0
   109e8:	fea42223          	sw	a0,-28(s0)

000109ec <.LM92>:
   109ec:	fe442783          	lw	a5,-28(s0)
   109f0:	00079e63          	bnez	a5,10a0c <.L31>

000109f4 <.LM93>:
   109f4:	000007b7          	lui	a5,0x0
   109f8:	00078513          	mv	a0,a5
   109fc:	00000297          	auipc	t0,0x0
   10a00:	000280e7          	jalr	t0

00010a04 <.LM94>:
   10a04:	00000297          	auipc	t0,0x0
   10a08:	000280e7          	jalr	t0

00010a0c <.L31>:
   10a0c:	fe442503          	lw	a0,-28(s0)
   10a10:	00000297          	auipc	t0,0x0
   10a14:	000280e7          	jalr	t0
   10a18:	00050793          	mv	a5,a0
   10a1c:	00078e63          	beqz	a5,10a38 <.L32>

00010a20 <.LM96>:
   10a20:	000007b7          	lui	a5,0x0
   10a24:	00078513          	mv	a0,a5
   10a28:	00000297          	auipc	t0,0x0
   10a2c:	000280e7          	jalr	t0

00010a30 <.LM97>:
   10a30:	00000297          	auipc	t0,0x0
   10a34:	000280e7          	jalr	t0

00010a38 <.L32>:
   10a38:	000007b7          	lui	a5,0x0
   10a3c:	fe442703          	lw	a4,-28(s0)
   10a40:	00e7a023          	sw	a4,0(a5) # 0 <buf.1018>

00010a44 <.LM99>:
   10a44:	fd040713          	addi	a4,s0,-48
   10a48:	fd840793          	addi	a5,s0,-40
   10a4c:	00070693          	mv	a3,a4
   10a50:	00078613          	mv	a2,a5
   10a54:	00100593          	li	a1,1
   10a58:	fe442503          	lw	a0,-28(s0)
   10a5c:	00000297          	auipc	t0,0x0
   10a60:	000280e7          	jalr	t0

00010a64 <.LM100>:
   10a64:	fd042603          	lw	a2,-48(s0)
   10a68:	fd442683          	lw	a3,-44(s0)
   10a6c:	fd842503          	lw	a0,-40(s0)
   10a70:	fdc42583          	lw	a1,-36(s0)
   10a74:	40a60733          	sub	a4,a2,a0
   10a78:	00e63833          	sltu	a6,a2,a4
   10a7c:	40b687b3          	sub	a5,a3,a1
   10a80:	410786b3          	sub	a3,a5,a6
   10a84:	00068793          	mv	a5,a3
   10a88:	00070613          	mv	a2,a4
   10a8c:	00078693          	mv	a3,a5
   10a90:	01000537          	lui	a0,0x1000
   10a94:	00000593          	li	a1,0
   10a98:	00a60733          	add	a4,a2,a0
   10a9c:	00c73833          	sltu	a6,a4,a2
   10aa0:	00b687b3          	add	a5,a3,a1
   10aa4:	00f806b3          	add	a3,a6,a5
   10aa8:	00068793          	mv	a5,a3
   10aac:	fce42823          	sw	a4,-48(s0)
   10ab0:	fcf42a23          	sw	a5,-44(s0)

00010ab4 <.LM101>:
   10ab4:	01000737          	lui	a4,0x1000
   10ab8:	00000793          	li	a5,0
   10abc:	fce42c23          	sw	a4,-40(s0)
   10ac0:	fcf42e23          	sw	a5,-36(s0)

00010ac4 <.LM102>:
   10ac4:	fd842703          	lw	a4,-40(s0)
   10ac8:	fdc42783          	lw	a5,-36(s0)
   10acc:	00070793          	mv	a5,a4
   10ad0:	fbc42683          	lw	a3,-68(s0)
   10ad4:	00078613          	mv	a2,a5
   10ad8:	fe442583          	lw	a1,-28(s0)
   10adc:	000007b7          	lui	a5,0x0
   10ae0:	00078513          	mv	a0,a5
   10ae4:	00000297          	auipc	t0,0x0
   10ae8:	000280e7          	jalr	t0
   10aec:	fea42423          	sw	a0,-24(s0)

00010af0 <.LM103>:
   10af0:	fc840713          	addi	a4,s0,-56
   10af4:	fcc40793          	addi	a5,s0,-52
   10af8:	00070693          	mv	a3,a4
   10afc:	00078613          	mv	a2,a5
   10b00:	00000593          	li	a1,0
   10b04:	000007b7          	lui	a5,0x0
   10b08:	00078513          	mv	a0,a5
   10b0c:	00000297          	auipc	t0,0x0
   10b10:	000280e7          	jalr	t0

00010b14 <.LM104>:
   10b14:	fcc42703          	lw	a4,-52(s0)
   10b18:	000007b7          	lui	a5,0x0
   10b1c:	00078593          	mv	a1,a5
   10b20:	00070513          	mv	a0,a4
   10b24:	00000297          	auipc	t0,0x0
   10b28:	000280e7          	jalr	t0
   10b2c:	00050793          	mv	a5,a0
   10b30:	00078e63          	beqz	a5,10b4c <.L33>

00010b34 <.LM105>:
   10b34:	000007b7          	lui	a5,0x0
   10b38:	00078513          	mv	a0,a5
   10b3c:	00000297          	auipc	t0,0x0
   10b40:	000280e7          	jalr	t0

00010b44 <.LM106>:
   10b44:	00000297          	auipc	t0,0x0
   10b48:	000280e7          	jalr	t0

00010b4c <.L33>:
   10b4c:	fb042783          	lw	a5,-80(s0)
   10b50:	0007a023          	sw	zero,0(a5) # 0 <buf.1018>

00010b54 <.LM108>:
   10b54:	fe042623          	sw	zero,-20(s0)
   10b58:	08c0006f          	j	10be4 <.L34>

00010b5c <.L37>:
   10b5c:	fec42783          	lw	a5,-20(s0)
   10b60:	00178793          	addi	a5,a5,1
   10b64:	fc840693          	addi	a3,s0,-56
   10b68:	fcc40713          	addi	a4,s0,-52
   10b6c:	00070613          	mv	a2,a4
   10b70:	00078593          	mv	a1,a5
   10b74:	000007b7          	lui	a5,0x0
   10b78:	00078513          	mv	a0,a5
   10b7c:	00000297          	auipc	t0,0x0
   10b80:	000280e7          	jalr	t0
   10b84:	fea42023          	sw	a0,-32(s0)

00010b88 <.LM110>:
   10b88:	fe042783          	lw	a5,-32(s0)
   10b8c:	06078463          	beqz	a5,10bf4 <.L38>

00010b90 <.LM111>:
   10b90:	fcc42503          	lw	a0,-52(s0)

00010b94 <.LM112>:
   10b94:	fb042783          	lw	a5,-80(s0)
   10b98:	0007a783          	lw	a5,0(a5) # 0 <buf.1018>
   10b9c:	00379793          	slli	a5,a5,0x3
   10ba0:	00279713          	slli	a4,a5,0x2
   10ba4:	40f707b3          	sub	a5,a4,a5

00010ba8 <.LM113>:
   10ba8:	fb842703          	lw	a4,-72(s0)
   10bac:	00f707b3          	add	a5,a4,a5
   10bb0:	00078693          	mv	a3,a5
   10bb4:	fe842603          	lw	a2,-24(s0)
   10bb8:	fe042583          	lw	a1,-32(s0)
   10bbc:	00000297          	auipc	t0,0x0
   10bc0:	000280e7          	jalr	t0
   10bc4:	fea42423          	sw	a0,-24(s0)

00010bc8 <.LM114>:
   10bc8:	fec42783          	lw	a5,-20(s0)
   10bcc:	00178713          	addi	a4,a5,1
   10bd0:	fb042783          	lw	a5,-80(s0)
   10bd4:	00e7a023          	sw	a4,0(a5)

00010bd8 <.LBE8>:
   10bd8:	fec42783          	lw	a5,-20(s0)
   10bdc:	00178793          	addi	a5,a5,1
   10be0:	fef42623          	sw	a5,-20(s0)

00010be4 <.L34>:
   10be4:	fec42703          	lw	a4,-20(s0)
   10be8:	fb442783          	lw	a5,-76(s0)
   10bec:	f6f748e3          	blt	a4,a5,10b5c <.L37>

00010bf0 <.LM117>:
   10bf0:	0080006f          	j	10bf8 <.L36>

00010bf4 <.L38>:
   10bf4:	00000013          	nop

00010bf8 <.L36>:
   10bf8:	00000013          	nop
   10bfc:	04c12083          	lw	ra,76(sp)
   10c00:	04812403          	lw	s0,72(sp)
   10c04:	05010113          	addi	sp,sp,80
   10c08:	00008067          	ret

00010c0c <boot_secondary_processor>:
   10c0c:	f7010113          	addi	sp,sp,-144
   10c10:	08112623          	sw	ra,140(sp)
   10c14:	08812423          	sw	s0,136(sp)
   10c18:	09212223          	sw	s2,132(sp)
   10c1c:	09312023          	sw	s3,128(sp)
   10c20:	07412e23          	sw	s4,124(sp)
   10c24:	07512c23          	sw	s5,120(sp)
   10c28:	09010413          	addi	s0,sp,144
   10c2c:	f6a42e23          	sw	a0,-132(s0)

00010c30 <.LM121>:
   10c30:	fc042c23          	sw	zero,-40(s0)

00010c34 <.LM122>:
   10c34:	fc042a23          	sw	zero,-44(s0)

00010c38 <.LM123>:
   10c38:	f00007b7          	lui	a5,0xf0000
   10c3c:	0007a023          	sw	zero,0(a5) # f0000000 <.L0 +0xeffebd50>

00010c40 <.LM124>:
   10c40:	00000013          	nop

00010c44 <.L40>:
   10c44:	f00007b7          	lui	a5,0xf0000
   10c48:	0007a783          	lw	a5,0(a5) # f0000000 <.L0 +0xeffebd50>
   10c4c:	fe078ce3          	beqz	a5,10c44 <.L40>

00010c50 <.L41>:
   10c50:	f7c42703          	lw	a4,-132(s0)
   10c54:	00200793          	li	a5,2
   10c58:	fef70ce3          	beq	a4,a5,10c50 <.L41>

00010c5c <.LM127>:
   10c5c:	f7c42583          	lw	a1,-132(s0)
   10c60:	000007b7          	lui	a5,0x0
   10c64:	00078513          	mv	a0,a5
   10c68:	00000297          	auipc	t0,0x0
   10c6c:	000280e7          	jalr	t0

00010c70 <.LM128>:
   10c70:	f7c42703          	lw	a4,-132(s0)
   10c74:	00100793          	li	a5,1
   10c78:	00f71863          	bne	a4,a5,10c88 <.L42>

00010c7c <.LM129>:
   10c7c:	000007b7          	lui	a5,0x0
   10c80:	00078793          	mv	a5,a5
   10c84:	00c0006f          	j	10c90 <.L43>

00010c88 <.L42>:
   10c88:	000007b7          	lui	a5,0x0
   10c8c:	00078793          	mv	a5,a5

00010c90 <.L43>:
   10c90:	f8040713          	addi	a4,s0,-128
   10c94:	00070613          	mv	a2,a4
   10c98:	00078593          	mv	a1,a5
   10c9c:	000007b7          	lui	a5,0x0
   10ca0:	00078513          	mv	a0,a5
   10ca4:	00000297          	auipc	t0,0x0
   10ca8:	000280e7          	jalr	t0
   10cac:	fca42823          	sw	a0,-48(s0)

00010cb0 <.LM132>:
   10cb0:	fd042783          	lw	a5,-48(s0)
   10cb4:	00079e63          	bnez	a5,10cd0 <.L44>

00010cb8 <.LM133>:
   10cb8:	000007b7          	lui	a5,0x0
   10cbc:	00078513          	mv	a0,a5
   10cc0:	00000297          	auipc	t0,0x0
   10cc4:	000280e7          	jalr	t0

00010cc8 <.LM134>:
   10cc8:	00000297          	auipc	t0,0x0
   10ccc:	000280e7          	jalr	t0

00010cd0 <.L44>:
   10cd0:	fd042503          	lw	a0,-48(s0)
   10cd4:	00000297          	auipc	t0,0x0
   10cd8:	000280e7          	jalr	t0
   10cdc:	00050793          	mv	a5,a0
   10ce0:	00078e63          	beqz	a5,10cfc <.L45>

00010ce4 <.LM136>:
   10ce4:	000007b7          	lui	a5,0x0
   10ce8:	00078513          	mv	a0,a5
   10cec:	00000297          	auipc	t0,0x0
   10cf0:	000280e7          	jalr	t0

00010cf4 <.LM137>:
   10cf4:	00000297          	auipc	t0,0x0
   10cf8:	000280e7          	jalr	t0

00010cfc <.L45>:
   10cfc:	f7c42703          	lw	a4,-132(s0)
   10d00:	00100793          	li	a5,1
   10d04:	00f71a63          	bne	a4,a5,10d18 <.L46>

00010d08 <.LM139>:
   10d08:	f00007b7          	lui	a5,0xf0000
   10d0c:	00478793          	addi	a5,a5,4 # f0000004 <.L0 +0xeffebd54>
   10d10:	0007a783          	lw	a5,0(a5)
   10d14:	0100006f          	j	10d24 <.L47>

00010d18 <.L46>:
   10d18:	f00007b7          	lui	a5,0xf0000
   10d1c:	01078793          	addi	a5,a5,16 # f0000010 <.L0 +0xeffebd60>
   10d20:	0007a783          	lw	a5,0(a5)

00010d24 <.L47>:
   10d24:	fcf42c23          	sw	a5,-40(s0)

00010d28 <.LM142>:
   10d28:	f7c42703          	lw	a4,-132(s0)
   10d2c:	00100793          	li	a5,1
   10d30:	00f71a63          	bne	a4,a5,10d44 <.L48>

00010d34 <.LM143>:
   10d34:	f00007b7          	lui	a5,0xf0000
   10d38:	00878793          	addi	a5,a5,8 # f0000008 <.L0 +0xeffebd58>
   10d3c:	0007a783          	lw	a5,0(a5)
   10d40:	0100006f          	j	10d50 <.L49>

00010d44 <.L48>:
   10d44:	f00007b7          	lui	a5,0xf0000
   10d48:	01478793          	addi	a5,a5,20 # f0000014 <.L0 +0xeffebd64>
   10d4c:	0007a783          	lw	a5,0(a5)

00010d50 <.L49>:
   10d50:	fcf42a23          	sw	a5,-44(s0)

00010d54 <.LM146>:
   10d54:	fd842583          	lw	a1,-40(s0)
   10d58:	000007b7          	lui	a5,0x0
   10d5c:	00078513          	mv	a0,a5
   10d60:	00000297          	auipc	t0,0x0
   10d64:	000280e7          	jalr	t0

00010d68 <.LM147>:
   10d68:	fd442583          	lw	a1,-44(s0)
   10d6c:	000007b7          	lui	a5,0x0
   10d70:	00078513          	mv	a0,a5
   10d74:	00000297          	auipc	t0,0x0
   10d78:	000280e7          	jalr	t0

00010d7c <.LM148>:
   10d7c:	f8840713          	addi	a4,s0,-120
   10d80:	f9040793          	addi	a5,s0,-112
   10d84:	00070693          	mv	a3,a4
   10d88:	00078613          	mv	a2,a5
   10d8c:	00100593          	li	a1,1
   10d90:	fd042503          	lw	a0,-48(s0)
   10d94:	00000297          	auipc	t0,0x0
   10d98:	000280e7          	jalr	t0

00010d9c <.LM149>:
   10d9c:	fd442783          	lw	a5,-44(s0)
   10da0:	00078913          	mv	s2,a5
   10da4:	00000993          	li	s3,0
   10da8:	f8842603          	lw	a2,-120(s0)
   10dac:	f8c42683          	lw	a3,-116(s0)
   10db0:	00c90733          	add	a4,s2,a2
   10db4:	012735b3          	sltu	a1,a4,s2
   10db8:	00d987b3          	add	a5,s3,a3
   10dbc:	00f586b3          	add	a3,a1,a5
   10dc0:	00068793          	mv	a5,a3
   10dc4:	00070613          	mv	a2,a4
   10dc8:	00078693          	mv	a3,a5
   10dcc:	f9042503          	lw	a0,-112(s0)
   10dd0:	f9442583          	lw	a1,-108(s0)
   10dd4:	40a60733          	sub	a4,a2,a0
   10dd8:	00e63833          	sltu	a6,a2,a4
   10ddc:	40b687b3          	sub	a5,a3,a1
   10de0:	410786b3          	sub	a3,a5,a6
   10de4:	00068793          	mv	a5,a3
   10de8:	f8e42423          	sw	a4,-120(s0)
   10dec:	f8f42623          	sw	a5,-116(s0)

00010df0 <.LM150>:
   10df0:	fd442783          	lw	a5,-44(s0)
   10df4:	00078a13          	mv	s4,a5
   10df8:	00000a93          	li	s5,0
   10dfc:	f9442823          	sw	s4,-112(s0)
   10e00:	f9542a23          	sw	s5,-108(s0)

00010e04 <.LM151>:
   10e04:	f9042703          	lw	a4,-112(s0)
   10e08:	f9442783          	lw	a5,-108(s0)
   10e0c:	f9840793          	addi	a5,s0,-104
   10e10:	00078693          	mv	a3,a5
   10e14:	00070613          	mv	a2,a4
   10e18:	fd042583          	lw	a1,-48(s0)
   10e1c:	000007b7          	lui	a5,0x0
   10e20:	00078513          	mv	a0,a5
   10e24:	00000297          	auipc	t0,0x0
   10e28:	000280e7          	jalr	t0
   10e2c:	fca42623          	sw	a0,-52(s0)

00010e30 <.LM152>:
   10e30:	f7c42703          	lw	a4,-132(s0)
   10e34:	00100793          	li	a5,1
   10e38:	00f71663          	bne	a4,a5,10e44 <.L50>

00010e3c <.LM153>:
   10e3c:	00200793          	li	a5,2
   10e40:	0080006f          	j	10e48 <.L51>

00010e44 <.L50>:
   10e44:	00300793          	li	a5,3

00010e48 <.L51>:
   10e48:	f8040693          	addi	a3,s0,-128
   10e4c:	f8440713          	addi	a4,s0,-124
   10e50:	00070613          	mv	a2,a4
   10e54:	00078593          	mv	a1,a5
   10e58:	000007b7          	lui	a5,0x0
   10e5c:	00078513          	mv	a0,a5
   10e60:	00000297          	auipc	t0,0x0
   10e64:	000280e7          	jalr	t0

00010e68 <.LM156>:
   10e68:	f8442683          	lw	a3,-124(s0)
   10e6c:	f7c42703          	lw	a4,-132(s0)
   10e70:	00100793          	li	a5,1
   10e74:	00f71863          	bne	a4,a5,10e84 <.L52>

00010e78 <.LM157>:
   10e78:	000007b7          	lui	a5,0x0
   10e7c:	00078793          	mv	a5,a5
   10e80:	00c0006f          	j	10e8c <.L53>

00010e84 <.L52>:
   10e84:	000007b7          	lui	a5,0x0
   10e88:	00078793          	mv	a5,a5

00010e8c <.L53>:
   10e8c:	00078593          	mv	a1,a5
   10e90:	00068513          	mv	a0,a3
   10e94:	00000297          	auipc	t0,0x0
   10e98:	000280e7          	jalr	t0
   10e9c:	00050793          	mv	a5,a0
   10ea0:	00078e63          	beqz	a5,10ebc <.L54>

00010ea4 <.LM160>:
   10ea4:	000007b7          	lui	a5,0x0
   10ea8:	00078513          	mv	a0,a5
   10eac:	00000297          	auipc	t0,0x0
   10eb0:	000280e7          	jalr	t0

00010eb4 <.LM161>:
   10eb4:	00000297          	auipc	t0,0x0
   10eb8:	000280e7          	jalr	t0

00010ebc <.L54>:
   10ebc:	fcc42583          	lw	a1,-52(s0)
   10ec0:	000007b7          	lui	a5,0x0
   10ec4:	00078513          	mv	a0,a5
   10ec8:	00000297          	auipc	t0,0x0
   10ecc:	000280e7          	jalr	t0

00010ed0 <.LM163>:
   10ed0:	f9842783          	lw	a5,-104(s0)
   10ed4:	0167d793          	srli	a5,a5,0x16
   10ed8:	fcf42423          	sw	a5,-56(s0)

00010edc <.LM164>:
   10edc:	00400793          	li	a5,4
   10ee0:	fcf42223          	sw	a5,-60(s0)

00010ee4 <.LM165>:
   10ee4:	fc842583          	lw	a1,-56(s0)
   10ee8:	000007b7          	lui	a5,0x0
   10eec:	00078513          	mv	a0,a5
   10ef0:	00000297          	auipc	t0,0x0
   10ef4:	000280e7          	jalr	t0

00010ef8 <.LM166>:
   10ef8:	fc042e23          	sw	zero,-36(s0)
   10efc:	0340006f          	j	10f30 <.L55>

00010f00 <.L56>:
   10f00:	fdc42783          	lw	a5,-36(s0)
   10f04:	00279713          	slli	a4,a5,0x2
   10f08:	fd842783          	lw	a5,-40(s0)
   10f0c:	00f707b3          	add	a5,a4,a5
   10f10:	00078713          	mv	a4,a5
   10f14:	fdc42783          	lw	a5,-36(s0)
   10f18:	01479793          	slli	a5,a5,0x14
   10f1c:	0177e793          	ori	a5,a5,23
   10f20:	00f72023          	sw	a5,0(a4) # 1000000 <.L0 +0xfebd50>

00010f24 <.LM168>:
   10f24:	fdc42783          	lw	a5,-36(s0)
   10f28:	00178793          	addi	a5,a5,1 # 1 <buf.1018+0x1>
   10f2c:	fcf42e23          	sw	a5,-36(s0)

00010f30 <.L55>:
   10f30:	fdc42703          	lw	a4,-36(s0)
   10f34:	fc442783          	lw	a5,-60(s0)
   10f38:	fcf764e3          	bltu	a4,a5,10f00 <.L56>

00010f3c <.LM170>:
   10f3c:	fd842783          	lw	a5,-40(s0)
   10f40:	18079073          	csrw	sptbr,a5

00010f44 <.LBB10>:
   10f44:	300467f3          	csrrs	a5,mstatus,8
   10f48:	fcf42023          	sw	a5,-64(s0)

00010f4c <.LBB11>:
   10f4c:	03000793          	li	a5,48
   10f50:	3007a7f3          	csrrs	a5,mstatus,a5
   10f54:	faf42e23          	sw	a5,-68(s0)

00010f58 <.LBB12>:
   10f58:	003e07b7          	lui	a5,0x3e0
   10f5c:	3007b7f3          	csrrc	a5,mstatus,a5
   10f60:	faf42c23          	sw	a5,-72(s0)

00010f64 <.LBB13>:
   10f64:	001007b7          	lui	a5,0x100
   10f68:	3007a7f3          	csrrs	a5,mstatus,a5
   10f6c:	faf42a23          	sw	a5,-76(s0)

00010f70 <.LBB14>:
   10f70:	300277f3          	csrrc	a5,mstatus,4
   10f74:	faf42823          	sw	a5,-80(s0)

00010f78 <.LBE14>:
   10f78:	000007b7          	lui	a5,0x0
   10f7c:	00078513          	mv	a0,a5
   10f80:	00000297          	auipc	t0,0x0
   10f84:	000280e7          	jalr	t0

00010f88 <.LM177>:
   10f88:	000007b7          	lui	a5,0x0
   10f8c:	00078513          	mv	a0,a5
   10f90:	00000297          	auipc	t0,0x0
   10f94:	000280e7          	jalr	t0

00010f98 <.LM178>:
   10f98:	fa842783          	lw	a5,-88(s0)
   10f9c:	00000713          	li	a4,0
   10fa0:	00000693          	li	a3,0
   10fa4:	00000613          	li	a2,0
   10fa8:	00000593          	li	a1,0
   10fac:	00000513          	li	a0,0
   10fb0:	000780e7          	jalr	a5

00010fb4 <.L57>:
   10fb4:	0000006f          	j	10fb4 <.L57>

00010fb8 <main>:
   10fb8:	fe010113          	addi	sp,sp,-32
   10fbc:	00112e23          	sw	ra,28(sp)
   10fc0:	00812c23          	sw	s0,24(sp)
   10fc4:	02010413          	addi	s0,sp,32

00010fc8 <.LM181>:
   10fc8:	fe042623          	sw	zero,-20(s0)

00010fcc <.LM182>:
   10fcc:	000007b7          	lui	a5,0x0
   10fd0:	00078513          	mv	a0,a5
   10fd4:	00000297          	auipc	t0,0x0
   10fd8:	000280e7          	jalr	t0

00010fdc <.LM183>:
   10fdc:	00000297          	auipc	t0,0x0
   10fe0:	000280e7          	jalr	t0

00010fe4 <.LM184>:
   10fe4:	000007b7          	lui	a5,0x0
   10fe8:	00078793          	mv	a5,a5
   10fec:	00078613          	mv	a2,a5
   10ff0:	000007b7          	lui	a5,0x0
   10ff4:	00078593          	mv	a1,a5
   10ff8:	000007b7          	lui	a5,0x0
   10ffc:	00078513          	mv	a0,a5
   11000:	00000297          	auipc	t0,0x0
   11004:	000280e7          	jalr	t0

00011008 <.LM185>:
   11008:	fec40793          	addi	a5,s0,-20
   1100c:	00078693          	mv	a3,a5
   11010:	00100613          	li	a2,1
   11014:	000007b7          	lui	a5,0x0
   11018:	00078593          	mv	a1,a5
   1101c:	000007b7          	lui	a5,0x0
   11020:	00078513          	mv	a0,a5
   11024:	00000297          	auipc	t0,0x0
   11028:	000280e7          	jalr	t0

0001102c <.LM186>:
   1102c:	fec42703          	lw	a4,-20(s0)
   11030:	00100793          	li	a5,1
   11034:	00f70e63          	beq	a4,a5,11050 <.L59>

00011038 <.LM187>:
   11038:	000007b7          	lui	a5,0x0
   1103c:	00078513          	mv	a0,a5
   11040:	00000297          	auipc	t0,0x0
   11044:	000280e7          	jalr	t0

00011048 <.LM188>:
   11048:	00000297          	auipc	t0,0x0
   1104c:	000280e7          	jalr	t0

00011050 <.L59>:
   11050:	000007b7          	lui	a5,0x0
   11054:	0007a783          	lw	a5,0(a5) # 0 <buf.1018>
   11058:	00078593          	mv	a1,a5
   1105c:	000007b7          	lui	a5,0x0
   11060:	00078513          	mv	a0,a5
   11064:	00000297          	auipc	t0,0x0
   11068:	000280e7          	jalr	t0

0001106c <.LM190>:
   1106c:	000007b7          	lui	a5,0x0
   11070:	00078793          	mv	a5,a5
   11074:	0107a783          	lw	a5,16(a5) # 10 <.LASF25>
   11078:	00078593          	mv	a1,a5
   1107c:	000007b7          	lui	a5,0x0
   11080:	00078513          	mv	a0,a5
   11084:	00000297          	auipc	t0,0x0
   11088:	000280e7          	jalr	t0

0001108c <.LM191>:
   1108c:	000007b7          	lui	a5,0x0
   11090:	00078793          	mv	a5,a5
   11094:	0147a783          	lw	a5,20(a5) # 14 <.LASF25+0x4>
   11098:	00078593          	mv	a1,a5
   1109c:	000007b7          	lui	a5,0x0
   110a0:	00078513          	mv	a0,a5
   110a4:	00000297          	auipc	t0,0x0
   110a8:	000280e7          	jalr	t0

000110ac <.LM192>:
   110ac:	000007b7          	lui	a5,0x0
   110b0:	00078513          	mv	a0,a5
   110b4:	00000297          	auipc	t0,0x0
   110b8:	000280e7          	jalr	t0

000110bc <.LM193>:
   110bc:	000007b7          	lui	a5,0x0
   110c0:	00078513          	mv	a0,a5
   110c4:	00000297          	auipc	t0,0x0
   110c8:	000280e7          	jalr	t0

000110cc <.LM194>:
   110cc:	000007b7          	lui	a5,0x0
   110d0:	00078793          	mv	a5,a5
   110d4:	0107a783          	lw	a5,16(a5) # 10 <.LASF25>
   110d8:	00078813          	mv	a6,a5
   110dc:	000007b7          	lui	a5,0x0
   110e0:	0007a503          	lw	a0,0(a5) # 0 <buf.1018>
   110e4:	000007b7          	lui	a5,0x0
   110e8:	00078793          	mv	a5,a5
   110ec:	0047a583          	lw	a1,4(a5) # 4 <buf.1018+0x4>

000110f0 <.LM195>:
   110f0:	000007b7          	lui	a5,0x0
   110f4:	00078793          	mv	a5,a5
   110f8:	0147a783          	lw	a5,20(a5) # 14 <.LASF25+0x4>

000110fc <.LM196>:
   110fc:	00078613          	mv	a2,a5
   11100:	000007b7          	lui	a5,0x0
   11104:	00078793          	mv	a5,a5
   11108:	0107a683          	lw	a3,16(a5) # 10 <.LASF25>
   1110c:	000007b7          	lui	a5,0x0
   11110:	0007a783          	lw	a5,0(a5) # 0 <buf.1018>
   11114:	00078713          	mv	a4,a5
   11118:	000800e7          	jalr	a6

0001111c <.LM197>:
   1111c:	000007b7          	lui	a5,0x0
   11120:	00078513          	mv	a0,a5
   11124:	00000297          	auipc	t0,0x0
   11128:	000280e7          	jalr	t0

0001112c <.LM198>:
   1112c:	00000013          	nop
   11130:	01c12083          	lw	ra,28(sp)
   11134:	01812403          	lw	s0,24(sp)
   11138:	02010113          	addi	sp,sp,32
   1113c:	00008067          	ret

00011140 <abort>:
   11140:	ff010113          	addi	sp,sp,-16
   11144:	00112623          	sw	ra,12(sp)
   11148:	00812423          	sw	s0,8(sp)
   1114c:	01010413          	addi	s0,sp,16

00011150 <.LM2>:
   11150:	000007b7          	lui	a5,0x0
   11154:	00078513          	mv	a0,a5
   11158:	00000297          	auipc	t0,0x0
   1115c:	000280e7          	jalr	t0

00011160 <.L2>:
   11160:	0000006f          	j	11160 <.L2>

00011164 <write_string>:
   11164:	fd010113          	addi	sp,sp,-48
   11168:	02112623          	sw	ra,44(sp)
   1116c:	02812423          	sw	s0,40(sp)
   11170:	03010413          	addi	s0,sp,48
   11174:	fca42e23          	sw	a0,-36(s0)
   11178:	fcb42c23          	sw	a1,-40(s0)
   1117c:	fcc42a23          	sw	a2,-44(s0)

00011180 <.LM2>:
   11180:	fe042623          	sw	zero,-20(s0)
   11184:	0340006f          	j	111b8 <.L2>

00011188 <.L3>:
   11188:	fec42783          	lw	a5,-20(s0)
   1118c:	fd442703          	lw	a4,-44(s0)
   11190:	00f707b3          	add	a5,a4,a5
   11194:	0007c783          	lbu	a5,0(a5) # 0 <buf.1018>
   11198:	00078713          	mv	a4,a5
   1119c:	fdc42783          	lw	a5,-36(s0)
   111a0:	00070593          	mv	a1,a4
   111a4:	fd842503          	lw	a0,-40(s0)
   111a8:	000780e7          	jalr	a5

000111ac <.LM4>:
   111ac:	fec42783          	lw	a5,-20(s0)
   111b0:	00178793          	addi	a5,a5,1
   111b4:	fef42623          	sw	a5,-20(s0)

000111b8 <.L2>:
   111b8:	fec42783          	lw	a5,-20(s0)
   111bc:	fd442703          	lw	a4,-44(s0)
   111c0:	00f707b3          	add	a5,a4,a5
   111c4:	0007c783          	lbu	a5,0(a5)
   111c8:	fc0790e3          	bnez	a5,11188 <.L3>

000111cc <.LM6>:
   111cc:	00000013          	nop
   111d0:	02c12083          	lw	ra,44(sp)
   111d4:	02812403          	lw	s0,40(sp)
   111d8:	03010113          	addi	sp,sp,48
   111dc:	00008067          	ret

000111e0 <write_num>:
   111e0:	f8010113          	addi	sp,sp,-128
   111e4:	06112e23          	sw	ra,124(sp)
   111e8:	06812c23          	sw	s0,120(sp)
   111ec:	08010413          	addi	s0,sp,128
   111f0:	f8a42623          	sw	a0,-116(s0)
   111f4:	f8b42423          	sw	a1,-120(s0)
   111f8:	f8c42223          	sw	a2,-124(s0)
   111fc:	f8d42023          	sw	a3,-128(s0)

00011200 <.LM8>:
   11200:	04f00793          	li	a5,79
   11204:	fef42623          	sw	a5,-20(s0)

00011208 <.LM9>:
   11208:	f8042783          	lw	a5,-128(s0)
   1120c:	02079063          	bnez	a5,1122c <.L5>

00011210 <.LM10>:
   11210:	000007b7          	lui	a5,0x0
   11214:	00078613          	mv	a2,a5
   11218:	f8842583          	lw	a1,-120(s0)
   1121c:	f8c42503          	lw	a0,-116(s0)
   11220:	00000297          	auipc	t0,0x0
   11224:	000280e7          	jalr	t0
   11228:	0940006f          	j	112bc <.L4>

0001122c <.L5>:
   1122c:	fec42783          	lw	a5,-20(s0)
   11230:	fff78713          	addi	a4,a5,-1
   11234:	fee42623          	sw	a4,-20(s0)
   11238:	ff040693          	addi	a3,s0,-16
   1123c:	00f687b3          	add	a5,a3,a5
   11240:	fa078623          	sb	zero,-84(a5)

00011244 <.LM12>:
   11244:	04c0006f          	j	11290 <.L7>

00011248 <.L8>:
   11248:	f8442783          	lw	a5,-124(s0)
   1124c:	f8042703          	lw	a4,-128(s0)
   11250:	02f77733          	remu	a4,a4,a5
   11254:	000007b7          	lui	a5,0x0
   11258:	00078793          	mv	a5,a5
   1125c:	00f707b3          	add	a5,a4,a5
   11260:	0007c703          	lbu	a4,0(a5) # 0 <buf.1018>
   11264:	fec42783          	lw	a5,-20(s0)
   11268:	ff040693          	addi	a3,s0,-16
   1126c:	00f687b3          	add	a5,a3,a5
   11270:	fae78623          	sb	a4,-84(a5)

00011274 <.LM14>:
   11274:	f8442783          	lw	a5,-124(s0)
   11278:	f8042703          	lw	a4,-128(s0)
   1127c:	02f757b3          	divu	a5,a4,a5
   11280:	f8f42023          	sw	a5,-128(s0)

00011284 <.LM15>:
   11284:	fec42783          	lw	a5,-20(s0)
   11288:	fff78793          	addi	a5,a5,-1
   1128c:	fef42623          	sw	a5,-20(s0)

00011290 <.L7>:
   11290:	f8042783          	lw	a5,-128(s0)
   11294:	fa079ae3          	bnez	a5,11248 <.L8>

00011298 <.LM17>:
   11298:	fec42783          	lw	a5,-20(s0)
   1129c:	00178793          	addi	a5,a5,1
   112a0:	f9c40713          	addi	a4,s0,-100
   112a4:	00f707b3          	add	a5,a4,a5
   112a8:	00078613          	mv	a2,a5
   112ac:	f8842583          	lw	a1,-120(s0)
   112b0:	f8c42503          	lw	a0,-116(s0)
   112b4:	00000297          	auipc	t0,0x0
   112b8:	000280e7          	jalr	t0

000112bc <.L4>:
   112bc:	07c12083          	lw	ra,124(sp)
   112c0:	07812403          	lw	s0,120(sp)
   112c4:	08010113          	addi	sp,sp,128
   112c8:	00008067          	ret

000112cc <vxprintf>:
   112cc:	fc010113          	addi	sp,sp,-64
   112d0:	02112e23          	sw	ra,60(sp)
   112d4:	02812c23          	sw	s0,56(sp)
   112d8:	04010413          	addi	s0,sp,64
   112dc:	fca42623          	sw	a0,-52(s0)
   112e0:	fcb42423          	sw	a1,-56(s0)
   112e4:	fcc42223          	sw	a2,-60(s0)
   112e8:	fcd42023          	sw	a3,-64(s0)

000112ec <.LM20>:
   112ec:	fe042423          	sw	zero,-24(s0)

000112f0 <.LM21>:
   112f0:	fe042623          	sw	zero,-20(s0)
   112f4:	1d00006f          	j	114c4 <.L10>

000112f8 <.L23>:
   112f8:	fe842783          	lw	a5,-24(s0)
   112fc:	04079263          	bnez	a5,11340 <.L11>

00011300 <.LM23>:
   11300:	fec42783          	lw	a5,-20(s0)
   11304:	fc442703          	lw	a4,-60(s0)
   11308:	00f707b3          	add	a5,a4,a5
   1130c:	0007c703          	lbu	a4,0(a5)
   11310:	02500793          	li	a5,37
   11314:	02f70663          	beq	a4,a5,11340 <.L11>

00011318 <.LM24>:
   11318:	fec42783          	lw	a5,-20(s0)
   1131c:	fc442703          	lw	a4,-60(s0)
   11320:	00f707b3          	add	a5,a4,a5
   11324:	0007c783          	lbu	a5,0(a5)
   11328:	00078713          	mv	a4,a5
   1132c:	fcc42783          	lw	a5,-52(s0)
   11330:	00070593          	mv	a1,a4
   11334:	fc842503          	lw	a0,-56(s0)
   11338:	000780e7          	jalr	a5

0001133c <.LM25>:
   1133c:	17c0006f          	j	114b8 <.L12>

00011340 <.L11>:
   11340:	fec42783          	lw	a5,-20(s0)
   11344:	fc442703          	lw	a4,-60(s0)
   11348:	00f707b3          	add	a5,a4,a5
   1134c:	0007c703          	lbu	a4,0(a5)
   11350:	02500793          	li	a5,37
   11354:	04f71263          	bne	a4,a5,11398 <.L13>

00011358 <.LM27>:
   11358:	fe842783          	lw	a5,-24(s0)
   1135c:	00079863          	bnez	a5,1136c <.L14>

00011360 <.LM28>:
   11360:	00100793          	li	a5,1
   11364:	fef42423          	sw	a5,-24(s0)

00011368 <.LM29>:
   11368:	1500006f          	j	114b8 <.L12>

0001136c <.L14>:
   1136c:	fec42783          	lw	a5,-20(s0)
   11370:	fc442703          	lw	a4,-60(s0)
   11374:	00f707b3          	add	a5,a4,a5
   11378:	0007c783          	lbu	a5,0(a5)
   1137c:	00078713          	mv	a4,a5
   11380:	fcc42783          	lw	a5,-52(s0)
   11384:	00070593          	mv	a1,a4
   11388:	fc842503          	lw	a0,-56(s0)
   1138c:	000780e7          	jalr	a5

00011390 <.LM31>:
   11390:	fe042423          	sw	zero,-24(s0)

00011394 <.LM32>:
   11394:	1240006f          	j	114b8 <.L12>

00011398 <.L13>:
   11398:	fec42783          	lw	a5,-20(s0)
   1139c:	fc442703          	lw	a4,-60(s0)
   113a0:	00f707b3          	add	a5,a4,a5
   113a4:	0007c783          	lbu	a5,0(a5)
   113a8:	fd378793          	addi	a5,a5,-45
   113ac:	04b00713          	li	a4,75
   113b0:	0ef76663          	bltu	a4,a5,1149c <.L16>
   113b4:	00279713          	slli	a4,a5,0x2
   113b8:	000007b7          	lui	a5,0x0
   113bc:	00078793          	mv	a5,a5
   113c0:	00f707b3          	add	a5,a4,a5
   113c4:	0007a783          	lw	a5,0(a5) # 0 <buf.1018>
   113c8:	00078067          	jr	a5

000113cc <.L22>:
   113cc:	fc042783          	lw	a5,-64(s0)
   113d0:	00478713          	addi	a4,a5,4
   113d4:	fce42023          	sw	a4,-64(s0)
   113d8:	0007a783          	lw	a5,0(a5)
   113dc:	fef42223          	sw	a5,-28(s0)

000113e0 <.LM35>:
   113e0:	fe442603          	lw	a2,-28(s0)
   113e4:	fc842583          	lw	a1,-56(s0)
   113e8:	fcc42503          	lw	a0,-52(s0)
   113ec:	00000297          	auipc	t0,0x0
   113f0:	000280e7          	jalr	t0

000113f4 <.LM36>:
   113f4:	fe042423          	sw	zero,-24(s0)

000113f8 <.LM37>:
   113f8:	0c00006f          	j	114b8 <.L12>

000113fc <.L21>:
   113fc:	fc042783          	lw	a5,-64(s0)
   11400:	00478713          	addi	a4,a5,4
   11404:	fce42023          	sw	a4,-64(s0)
   11408:	0007a783          	lw	a5,0(a5)
   1140c:	fef42023          	sw	a5,-32(s0)

00011410 <.LM39>:
   11410:	fe042783          	lw	a5,-32(s0)
   11414:	00078693          	mv	a3,a5
   11418:	01000613          	li	a2,16
   1141c:	fc842583          	lw	a1,-56(s0)
   11420:	fcc42503          	lw	a0,-52(s0)
   11424:	00000297          	auipc	t0,0x0
   11428:	000280e7          	jalr	t0

0001142c <.LM40>:
   1142c:	fe042423          	sw	zero,-24(s0)

00011430 <.LM41>:
   11430:	0880006f          	j	114b8 <.L12>

00011434 <.L20>:
   11434:	fc042783          	lw	a5,-64(s0)
   11438:	00478713          	addi	a4,a5,4
   1143c:	fce42023          	sw	a4,-64(s0)
   11440:	0007a783          	lw	a5,0(a5)
   11444:	fef42023          	sw	a5,-32(s0)

00011448 <.LM43>:
   11448:	fe042783          	lw	a5,-32(s0)
   1144c:	00078693          	mv	a3,a5
   11450:	00a00613          	li	a2,10
   11454:	fc842583          	lw	a1,-56(s0)
   11458:	fcc42503          	lw	a0,-52(s0)
   1145c:	00000297          	auipc	t0,0x0
   11460:	000280e7          	jalr	t0

00011464 <.LM44>:
   11464:	fe042423          	sw	zero,-24(s0)

00011468 <.LM45>:
   11468:	0500006f          	j	114b8 <.L12>

0001146c <.L19>:
   1146c:	fc042783          	lw	a5,-64(s0)
   11470:	00478713          	addi	a4,a5,4
   11474:	fce42023          	sw	a4,-64(s0)
   11478:	0007a783          	lw	a5,0(a5)
   1147c:	fcf40fa3          	sb	a5,-33(s0)

00011480 <.LM47>:
   11480:	fdf44703          	lbu	a4,-33(s0)
   11484:	fcc42783          	lw	a5,-52(s0)
   11488:	00070593          	mv	a1,a4
   1148c:	fc842503          	lw	a0,-56(s0)
   11490:	000780e7          	jalr	a5

00011494 <.LM48>:
   11494:	fe042423          	sw	zero,-24(s0)

00011498 <.LM49>:
   11498:	0200006f          	j	114b8 <.L12>

0001149c <.L16>:
   1149c:	fcc42783          	lw	a5,-52(s0)
   114a0:	03f00593          	li	a1,63
   114a4:	fc842503          	lw	a0,-56(s0)
   114a8:	000780e7          	jalr	a5

000114ac <.LM51>:
   114ac:	fe042423          	sw	zero,-24(s0)

000114b0 <.LM52>:
   114b0:	0080006f          	j	114b8 <.L12>

000114b4 <.L24>:
   114b4:	00000013          	nop

000114b8 <.L12>:
   114b8:	fec42783          	lw	a5,-20(s0)
   114bc:	00178793          	addi	a5,a5,1
   114c0:	fef42623          	sw	a5,-20(s0)

000114c4 <.L10>:
   114c4:	fec42783          	lw	a5,-20(s0)
   114c8:	fc442703          	lw	a4,-60(s0)
   114cc:	00f707b3          	add	a5,a4,a5
   114d0:	0007c783          	lbu	a5,0(a5)
   114d4:	e20792e3          	bnez	a5,112f8 <.L23>

000114d8 <.LM56>:
   114d8:	00000013          	nop
   114dc:	03c12083          	lw	ra,60(sp)
   114e0:	03812403          	lw	s0,56(sp)
   114e4:	04010113          	addi	sp,sp,64
   114e8:	00008067          	ret

000114ec <arch_write_char>:
   114ec:	fd010113          	addi	sp,sp,-48
   114f0:	02112623          	sw	ra,44(sp)
   114f4:	02812423          	sw	s0,40(sp)
   114f8:	03010413          	addi	s0,sp,48
   114fc:	fca42e23          	sw	a0,-36(s0)
   11500:	fcb42c23          	sw	a1,-40(s0)

00011504 <.LM58>:
   11504:	fdc42783          	lw	a5,-36(s0)
   11508:	fef42623          	sw	a5,-20(s0)

0001150c <.LM59>:
   1150c:	fec42783          	lw	a5,-20(s0)
   11510:	0007a783          	lw	a5,0(a5)
   11514:	00178713          	addi	a4,a5,1
   11518:	fec42783          	lw	a5,-20(s0)
   1151c:	00e7a023          	sw	a4,0(a5)

00011520 <.LM60>:
   11520:	00000593          	li	a1,0
   11524:	fd842503          	lw	a0,-40(s0)
   11528:	00000297          	auipc	t0,0x0
   1152c:	000280e7          	jalr	t0

00011530 <.LM61>:
   11530:	00000013          	nop
   11534:	02c12083          	lw	ra,44(sp)
   11538:	02812403          	lw	s0,40(sp)
   1153c:	03010113          	addi	sp,sp,48
   11540:	00008067          	ret

00011544 <printf>:
   11544:	fb010113          	addi	sp,sp,-80
   11548:	02112623          	sw	ra,44(sp)
   1154c:	02812423          	sw	s0,40(sp)
   11550:	03010413          	addi	s0,sp,48
   11554:	fca42e23          	sw	a0,-36(s0)
   11558:	00b42223          	sw	a1,4(s0)
   1155c:	00c42423          	sw	a2,8(s0)
   11560:	00d42623          	sw	a3,12(s0)
   11564:	00e42823          	sw	a4,16(s0)
   11568:	00f42a23          	sw	a5,20(s0)
   1156c:	01042c23          	sw	a6,24(s0)
   11570:	01142e23          	sw	a7,28(s0)

00011574 <.LM63>:
   11574:	fe042623          	sw	zero,-20(s0)

00011578 <.LM64>:
   11578:	02040793          	addi	a5,s0,32
   1157c:	fe478793          	addi	a5,a5,-28
   11580:	fef42423          	sw	a5,-24(s0)

00011584 <.LM65>:
   11584:	fe842703          	lw	a4,-24(s0)
   11588:	fec40793          	addi	a5,s0,-20
   1158c:	00070693          	mv	a3,a4
   11590:	fdc42603          	lw	a2,-36(s0)
   11594:	00078593          	mv	a1,a5
   11598:	000007b7          	lui	a5,0x0
   1159c:	00078513          	mv	a0,a5
   115a0:	00000297          	auipc	t0,0x0
   115a4:	000280e7          	jalr	t0

000115a8 <.LM66>:
   115a8:	fec42783          	lw	a5,-20(s0)

000115ac <.LM67>:
   115ac:	00078513          	mv	a0,a5
   115b0:	02c12083          	lw	ra,44(sp)
   115b4:	02812403          	lw	s0,40(sp)
   115b8:	05010113          	addi	sp,sp,80
   115bc:	00008067          	ret

000115c0 <puts>:
   115c0:	fd010113          	addi	sp,sp,-48
   115c4:	02112623          	sw	ra,44(sp)
   115c8:	02812423          	sw	s0,40(sp)
   115cc:	03010413          	addi	s0,sp,48
   115d0:	fca42e23          	sw	a0,-36(s0)

000115d4 <.LM69>:
   115d4:	fe042623          	sw	zero,-20(s0)

000115d8 <.LM70>:
   115d8:	fec40793          	addi	a5,s0,-20
   115dc:	fdc42603          	lw	a2,-36(s0)
   115e0:	00078593          	mv	a1,a5
   115e4:	000007b7          	lui	a5,0x0
   115e8:	00078513          	mv	a0,a5
   115ec:	00000297          	auipc	t0,0x0
   115f0:	000280e7          	jalr	t0

000115f4 <.LM71>:
   115f4:	fec40793          	addi	a5,s0,-20
   115f8:	00a00593          	li	a1,10
   115fc:	00078513          	mv	a0,a5
   11600:	00000297          	auipc	t0,0x0
   11604:	000280e7          	jalr	t0

00011608 <.LM72>:
   11608:	fec42783          	lw	a5,-20(s0)

0001160c <.LM73>:
   1160c:	00078513          	mv	a0,a5
   11610:	02c12083          	lw	ra,44(sp)
   11614:	02812403          	lw	s0,40(sp)
   11618:	03010113          	addi	sp,sp,48
   1161c:	00008067          	ret

00011620 <sprintf_write_char>:
   11620:	fd010113          	addi	sp,sp,-48
   11624:	02812623          	sw	s0,44(sp)
   11628:	03010413          	addi	s0,sp,48
   1162c:	fca42e23          	sw	a0,-36(s0)
   11630:	fcb42c23          	sw	a1,-40(s0)

00011634 <.LM75>:
   11634:	fdc42783          	lw	a5,-36(s0)
   11638:	fef42623          	sw	a5,-20(s0)

0001163c <.LM76>:
   1163c:	fec42783          	lw	a5,-20(s0)
   11640:	0007a783          	lw	a5,0(a5) # 0 <buf.1018>
   11644:	fec42703          	lw	a4,-20(s0)
   11648:	00472703          	lw	a4,4(a4)
   1164c:	00e787b3          	add	a5,a5,a4
   11650:	fd842703          	lw	a4,-40(s0)
   11654:	0ff77713          	andi	a4,a4,255
   11658:	00e78023          	sb	a4,0(a5)

0001165c <.LM77>:
   1165c:	fec42783          	lw	a5,-20(s0)
   11660:	0047a783          	lw	a5,4(a5)
   11664:	00178713          	addi	a4,a5,1
   11668:	fec42783          	lw	a5,-20(s0)
   1166c:	00e7a223          	sw	a4,4(a5)

00011670 <.LM78>:
   11670:	00000013          	nop
   11674:	02c12403          	lw	s0,44(sp)
   11678:	03010113          	addi	sp,sp,48
   1167c:	00008067          	ret

00011680 <sprintf>:
   11680:	fb010113          	addi	sp,sp,-80
   11684:	02112623          	sw	ra,44(sp)
   11688:	02812423          	sw	s0,40(sp)
   1168c:	03010413          	addi	s0,sp,48
   11690:	fca42e23          	sw	a0,-36(s0)
   11694:	fcb42c23          	sw	a1,-40(s0)
   11698:	00c42423          	sw	a2,8(s0)
   1169c:	00d42623          	sw	a3,12(s0)
   116a0:	00e42823          	sw	a4,16(s0)
   116a4:	00f42a23          	sw	a5,20(s0)
   116a8:	01042c23          	sw	a6,24(s0)
   116ac:	01142e23          	sw	a7,28(s0)

000116b0 <.LM80>:
   116b0:	fdc42783          	lw	a5,-36(s0)
   116b4:	fef42423          	sw	a5,-24(s0)
   116b8:	fe042623          	sw	zero,-20(s0)

000116bc <.LM81>:
   116bc:	02040793          	addi	a5,s0,32
   116c0:	fe878793          	addi	a5,a5,-24
   116c4:	fef42223          	sw	a5,-28(s0)

000116c8 <.LM82>:
   116c8:	fe442703          	lw	a4,-28(s0)
   116cc:	fe840793          	addi	a5,s0,-24
   116d0:	00070693          	mv	a3,a4
   116d4:	fd842603          	lw	a2,-40(s0)
   116d8:	00078593          	mv	a1,a5
   116dc:	000007b7          	lui	a5,0x0
   116e0:	00078513          	mv	a0,a5
   116e4:	00000297          	auipc	t0,0x0
   116e8:	000280e7          	jalr	t0

000116ec <.LM83>:
   116ec:	fec42783          	lw	a5,-20(s0)

000116f0 <.LM84>:
   116f0:	00078513          	mv	a0,a5
   116f4:	02c12083          	lw	ra,44(sp)
   116f8:	02812403          	lw	s0,40(sp)
   116fc:	05010113          	addi	sp,sp,80
   11700:	00008067          	ret

00011704 <strcmp>:
   11704:	fe010113          	addi	sp,sp,-32
   11708:	00812e23          	sw	s0,28(sp)
   1170c:	02010413          	addi	s0,sp,32
   11710:	fea42623          	sw	a0,-20(s0)
   11714:	feb42423          	sw	a1,-24(s0)

00011718 <.L5>:
   11718:	fec42783          	lw	a5,-20(s0)
   1171c:	0007c703          	lbu	a4,0(a5) # 0 <buf.1018>
   11720:	fe842783          	lw	a5,-24(s0)
   11724:	0007c783          	lbu	a5,0(a5)
   11728:	02f70063          	beq	a4,a5,11748 <.L2>

0001172c <.LM3>:
   1172c:	fec42783          	lw	a5,-20(s0)
   11730:	0007c783          	lbu	a5,0(a5)
   11734:	00078713          	mv	a4,a5
   11738:	fe842783          	lw	a5,-24(s0)
   1173c:	0007c783          	lbu	a5,0(a5)
   11740:	40f707b3          	sub	a5,a4,a5
   11744:	0340006f          	j	11778 <.L3>

00011748 <.L2>:
   11748:	fec42783          	lw	a5,-20(s0)
   1174c:	0007c783          	lbu	a5,0(a5)
   11750:	00079663          	bnez	a5,1175c <.L4>

00011754 <.LM5>:
   11754:	00000793          	li	a5,0
   11758:	0200006f          	j	11778 <.L3>

0001175c <.L4>:
   1175c:	fec42783          	lw	a5,-20(s0)
   11760:	00178793          	addi	a5,a5,1
   11764:	fef42623          	sw	a5,-20(s0)

00011768 <.LM7>:
   11768:	fe842783          	lw	a5,-24(s0)
   1176c:	00178793          	addi	a5,a5,1
   11770:	fef42423          	sw	a5,-24(s0)

00011774 <.LM8>:
   11774:	fa5ff06f          	j	11718 <.L5>

00011778 <.L3>:
   11778:	00078513          	mv	a0,a5
   1177c:	01c12403          	lw	s0,28(sp)
   11780:	02010113          	addi	sp,sp,32
   11784:	00008067          	ret

00011788 <memset>:
   11788:	fd010113          	addi	sp,sp,-48
   1178c:	02812623          	sw	s0,44(sp)
   11790:	03010413          	addi	s0,sp,48
   11794:	fca42e23          	sw	a0,-36(s0)
   11798:	fcb42c23          	sw	a1,-40(s0)
   1179c:	fcc42a23          	sw	a2,-44(s0)

000117a0 <.LM11>:
   117a0:	fdc42783          	lw	a5,-36(s0)
   117a4:	fef42423          	sw	a5,-24(s0)

000117a8 <.LM12>:
   117a8:	fe042623          	sw	zero,-20(s0)
   117ac:	0280006f          	j	117d4 <.L7>

000117b0 <.L8>:
   117b0:	fe842703          	lw	a4,-24(s0)
   117b4:	fec42783          	lw	a5,-20(s0)
   117b8:	00f707b3          	add	a5,a4,a5
   117bc:	fd842703          	lw	a4,-40(s0)
   117c0:	0ff77713          	andi	a4,a4,255
   117c4:	00e78023          	sb	a4,0(a5)

000117c8 <.LM14>:
   117c8:	fec42783          	lw	a5,-20(s0)
   117cc:	00178793          	addi	a5,a5,1
   117d0:	fef42623          	sw	a5,-20(s0)

000117d4 <.L7>:
   117d4:	fec42703          	lw	a4,-20(s0)
   117d8:	fd442783          	lw	a5,-44(s0)
   117dc:	fcf76ae3          	bltu	a4,a5,117b0 <.L8>

000117e0 <.LM16>:
   117e0:	fdc42783          	lw	a5,-36(s0)

000117e4 <.LM17>:
   117e4:	00078513          	mv	a0,a5
   117e8:	02c12403          	lw	s0,44(sp)
   117ec:	03010113          	addi	sp,sp,48
   117f0:	00008067          	ret

000117f4 <memcpy>:
   117f4:	fd010113          	addi	sp,sp,-48
   117f8:	02812623          	sw	s0,44(sp)
   117fc:	03010413          	addi	s0,sp,48
   11800:	fca42e23          	sw	a0,-36(s0)
   11804:	fcb42c23          	sw	a1,-40(s0)
   11808:	fcc42a23          	sw	a2,-44(s0)

0001180c <.LM19>:
   1180c:	fdc42783          	lw	a5,-36(s0)
   11810:	fef42423          	sw	a5,-24(s0)

00011814 <.LM20>:
   11814:	fd842783          	lw	a5,-40(s0)
   11818:	fef42223          	sw	a5,-28(s0)

0001181c <.LM21>:
   1181c:	fe042623          	sw	zero,-20(s0)
   11820:	0300006f          	j	11850 <.L11>

00011824 <.L12>:
   11824:	fe842703          	lw	a4,-24(s0)
   11828:	fec42783          	lw	a5,-20(s0)
   1182c:	00f707b3          	add	a5,a4,a5
   11830:	fe442683          	lw	a3,-28(s0)
   11834:	fec42703          	lw	a4,-20(s0)
   11838:	00e68733          	add	a4,a3,a4
   1183c:	00074703          	lbu	a4,0(a4)
   11840:	00e78023          	sb	a4,0(a5)

00011844 <.LM23>:
   11844:	fec42783          	lw	a5,-20(s0)
   11848:	00178793          	addi	a5,a5,1
   1184c:	fef42623          	sw	a5,-20(s0)

00011850 <.L11>:
   11850:	fec42703          	lw	a4,-20(s0)
   11854:	fd442783          	lw	a5,-44(s0)
   11858:	fcf766e3          	bltu	a4,a5,11824 <.L12>

0001185c <.LM25>:
   1185c:	fdc42783          	lw	a5,-36(s0)

00011860 <.LM26>:
   11860:	00078513          	mv	a0,a5
   11864:	02c12403          	lw	s0,44(sp)
   11868:	03010113          	addi	sp,sp,48
   1186c:	00008067          	ret

00011870 <platform_init>:
   11870:	ff010113          	addi	sp,sp,-16
   11874:	00812623          	sw	s0,12(sp)
   11878:	01010413          	addi	s0,sp,16

0001187c <.LM2>:
   1187c:	00000013          	nop
   11880:	00c12403          	lw	s0,12(sp)
   11884:	01010113          	addi	sp,sp,16
   11888:	00008067          	ret

0001188c <syscall>:
   1188c:	fe010113          	addi	sp,sp,-32
   11890:	00812e23          	sw	s0,28(sp)
   11894:	02010413          	addi	s0,sp,32
   11898:	fea42623          	sw	a0,-20(s0)
   1189c:	feb42423          	sw	a1,-24(s0)
   118a0:	fec42223          	sw	a2,-28(s0)
   118a4:	fed42023          	sw	a3,-32(s0)

000118a8 <.LM2>:
   118a8:	fec42883          	lw	a7,-20(s0)

000118ac <.LM3>:
   118ac:	fe842503          	lw	a0,-24(s0)

000118b0 <.LM4>:
   118b0:	fe442583          	lw	a1,-28(s0)

000118b4 <.LM5>:
   118b4:	fe042603          	lw	a2,-32(s0)

000118b8 <.LM6>:
   118b8:	00000073          	ecall

000118bc <.LM7>:
   118bc:	00050793          	mv	a5,a0

000118c0 <.LM8>:
   118c0:	00078513          	mv	a0,a5
   118c4:	01c12403          	lw	s0,28(sp)
   118c8:	02010113          	addi	sp,sp,32
   118cc:	00008067          	ret

000118d0 <handle_frontend_syscall>:
   118d0:	fd010113          	addi	sp,sp,-48
   118d4:	02812623          	sw	s0,44(sp)
   118d8:	03212423          	sw	s2,40(sp)
   118dc:	03312223          	sw	s3,36(sp)
   118e0:	03010413          	addi	s0,sp,48
   118e4:	fca42e23          	sw	a0,-36(s0)
   118e8:	fcb42c23          	sw	a1,-40(s0)
   118ec:	fcc42a23          	sw	a2,-44(s0)
   118f0:	fcd42823          	sw	a3,-48(s0)
   118f4:	f8010113          	addi	sp,sp,-128
   118f8:	00010793          	mv	a5,sp
   118fc:	03f78793          	addi	a5,a5,63
   11900:	0067d793          	srli	a5,a5,0x6
   11904:	00679793          	slli	a5,a5,0x6

00011908 <.LM10>:
   11908:	fdc42703          	lw	a4,-36(s0)
   1190c:	00070913          	mv	s2,a4
   11910:	41f75713          	srai	a4,a4,0x1f
   11914:	00070993          	mv	s3,a4
   11918:	0127a023          	sw	s2,0(a5)
   1191c:	0137a223          	sw	s3,4(a5)

00011920 <.LM11>:
   11920:	fd842703          	lw	a4,-40(s0)
   11924:	00070f13          	mv	t5,a4
   11928:	41f75713          	srai	a4,a4,0x1f
   1192c:	00070f93          	mv	t6,a4
   11930:	01e7a423          	sw	t5,8(a5)
   11934:	01f7a623          	sw	t6,12(a5)

00011938 <.LM12>:
   11938:	fd442703          	lw	a4,-44(s0)
   1193c:	00070e13          	mv	t3,a4
   11940:	41f75713          	srai	a4,a4,0x1f
   11944:	00070e93          	mv	t4,a4
   11948:	01c7a823          	sw	t3,16(a5)
   1194c:	01d7aa23          	sw	t4,20(a5)

00011950 <.LM13>:
   11950:	fd042703          	lw	a4,-48(s0)
   11954:	00070813          	mv	a6,a4
   11958:	41f75713          	srai	a4,a4,0x1f
   1195c:	00070893          	mv	a7,a4
   11960:	0107ac23          	sw	a6,24(a5)
   11964:	0117ae23          	sw	a7,28(a5)

00011968 <.LM14>:
   11968:	0330000f          	fence	rw,rw

0001196c <.LM15>:
   1196c:	00078713          	mv	a4,a5
   11970:	78071073          	csrw	mtohost,a4

00011974 <.LM16>:
   11974:	00000013          	nop

00011978 <.L4>:
   11978:	00000713          	li	a4,0
   1197c:	78171773          	csrrw	a4,mfromhost,a4
   11980:	fee42623          	sw	a4,-20(s0)
   11984:	fec42703          	lw	a4,-20(s0)

00011988 <.LBE2>:
   11988:	fe0708e3          	beqz	a4,11978 <.L4>

0001198c <.LM18>:
   1198c:	0007a703          	lw	a4,0(a5)
   11990:	0047a783          	lw	a5,4(a5)
   11994:	00070793          	mv	a5,a4

00011998 <.LM19>:
   11998:	00078513          	mv	a0,a5
   1199c:	fd040113          	addi	sp,s0,-48
   119a0:	02c12403          	lw	s0,44(sp)
   119a4:	02812903          	lw	s2,40(sp)
   119a8:	02412983          	lw	s3,36(sp)
   119ac:	03010113          	addi	sp,sp,48
   119b0:	00008067          	ret

000119b4 <handle_trap>:
   119b4:	fd010113          	addi	sp,sp,-48
   119b8:	02112623          	sw	ra,44(sp)
   119bc:	02812423          	sw	s0,40(sp)
   119c0:	03212223          	sw	s2,36(sp)
   119c4:	03312023          	sw	s3,32(sp)
   119c8:	03010413          	addi	s0,sp,48
   119cc:	fca42e23          	sw	a0,-36(s0)
   119d0:	fcb42c23          	sw	a1,-40(s0)
   119d4:	fcc42a23          	sw	a2,-44(s0)

000119d8 <.LM21>:
   119d8:	fe042623          	sw	zero,-20(s0)

000119dc <.LM22>:
   119dc:	fdc42703          	lw	a4,-36(s0)
   119e0:	00700793          	li	a5,7
   119e4:	00f71663          	bne	a4,a5,119f0 <.L7>

000119e8 <.LM23>:
   119e8:	00000793          	li	a5,0
   119ec:	08c0006f          	j	11a78 <.L8>

000119f0 <.L7>:
   119f0:	fd442783          	lw	a5,-44(s0)
   119f4:	08878793          	addi	a5,a5,136
   119f8:	0007a703          	lw	a4,0(a5)
   119fc:	0047a783          	lw	a5,4(a5)
   11a00:	00070513          	mv	a0,a4
   11a04:	fd442783          	lw	a5,-44(s0)
   11a08:	05078793          	addi	a5,a5,80
   11a0c:	0007a703          	lw	a4,0(a5)
   11a10:	0047a783          	lw	a5,4(a5)
   11a14:	00070593          	mv	a1,a4
   11a18:	fd442783          	lw	a5,-44(s0)
   11a1c:	05878793          	addi	a5,a5,88
   11a20:	0007a703          	lw	a4,0(a5)
   11a24:	0047a783          	lw	a5,4(a5)
   11a28:	00070613          	mv	a2,a4
   11a2c:	fd442783          	lw	a5,-44(s0)
   11a30:	06078793          	addi	a5,a5,96
   11a34:	0007a703          	lw	a4,0(a5)
   11a38:	0047a783          	lw	a5,4(a5)
   11a3c:	00070793          	mv	a5,a4
   11a40:	00078693          	mv	a3,a5
   11a44:	00000297          	auipc	t0,0x0
   11a48:	000280e7          	jalr	t0
   11a4c:	fea42623          	sw	a0,-20(s0)

00011a50 <.LM25>:
   11a50:	fd442783          	lw	a5,-44(s0)
   11a54:	05078713          	addi	a4,a5,80
   11a58:	fec42783          	lw	a5,-20(s0)
   11a5c:	00078913          	mv	s2,a5
   11a60:	41f7d793          	srai	a5,a5,0x1f
   11a64:	00078993          	mv	s3,a5
   11a68:	01272023          	sw	s2,0(a4)
   11a6c:	01372223          	sw	s3,4(a4)

00011a70 <.LM26>:
   11a70:	fd842783          	lw	a5,-40(s0)
   11a74:	00478793          	addi	a5,a5,4

00011a78 <.L8>:
   11a78:	00078513          	mv	a0,a5
   11a7c:	02c12083          	lw	ra,44(sp)
   11a80:	02812403          	lw	s0,40(sp)
   11a84:	02412903          	lw	s2,36(sp)
   11a88:	02012983          	lw	s3,32(sp)
   11a8c:	03010113          	addi	sp,sp,48
   11a90:	00008067          	ret

00011a94 <__fputc>:
   11a94:	fe010113          	addi	sp,sp,-32
   11a98:	00112e23          	sw	ra,28(sp)
   11a9c:	00812c23          	sw	s0,24(sp)
   11aa0:	02010413          	addi	s0,sp,32
   11aa4:	fea42623          	sw	a0,-20(s0)
   11aa8:	feb42423          	sw	a1,-24(s0)

00011aac <.LM29>:
   11aac:	000007b7          	lui	a5,0x0
   11ab0:	004787b3          	add	a5,a5,tp
   11ab4:	0007a783          	lw	a5,0(a5) # 0 <buf.1018>
   11ab8:	00178693          	addi	a3,a5,1
   11abc:	00000737          	lui	a4,0x0
   11ac0:	00470733          	add	a4,a4,tp
   11ac4:	00d72023          	sw	a3,0(a4) # 0 <buf.1018>
   11ac8:	fec42703          	lw	a4,-20(s0)
   11acc:	0ff77713          	andi	a4,a4,255
   11ad0:	000006b7          	lui	a3,0x0
   11ad4:	004686b3          	add	a3,a3,tp
   11ad8:	00068693          	mv	a3,a3
   11adc:	00d787b3          	add	a5,a5,a3
   11ae0:	00e78023          	sb	a4,0(a5)

00011ae4 <.LM30>:
   11ae4:	fec42703          	lw	a4,-20(s0)
   11ae8:	00a00793          	li	a5,10
   11aec:	00f70c63          	beq	a4,a5,11b04 <.L10>

00011af0 <.LM31>:
   11af0:	000007b7          	lui	a5,0x0
   11af4:	004787b3          	add	a5,a5,tp
   11af8:	0007a703          	lw	a4,0(a5) # 0 <buf.1018>
   11afc:	04000793          	li	a5,64
   11b00:	04f71063          	bne	a4,a5,11b40 <.L11>

00011b04 <.L10>:
   11b04:	000007b7          	lui	a5,0x0
   11b08:	004787b3          	add	a5,a5,tp
   11b0c:	00078713          	mv	a4,a5
   11b10:	000007b7          	lui	a5,0x0
   11b14:	004787b3          	add	a5,a5,tp
   11b18:	0007a783          	lw	a5,0(a5) # 0 <buf.1018>
   11b1c:	00078693          	mv	a3,a5
   11b20:	00070613          	mv	a2,a4
   11b24:	00100593          	li	a1,1
   11b28:	04000513          	li	a0,64
   11b2c:	00000297          	auipc	t0,0x0
   11b30:	000280e7          	jalr	t0

00011b34 <.LM33>:
   11b34:	000007b7          	lui	a5,0x0
   11b38:	004787b3          	add	a5,a5,tp
   11b3c:	0007a023          	sw	zero,0(a5) # 0 <buf.1018>

00011b40 <.L11>:
   11b40:	00000793          	li	a5,0

00011b44 <.LM35>:
   11b44:	00078513          	mv	a0,a5
   11b48:	01c12083          	lw	ra,28(sp)
   11b4c:	01812403          	lw	s0,24(sp)
   11b50:	02010113          	addi	sp,sp,32
   11b54:	00008067          	ret

00011b58 <elf32_getSectionTable>:
   11b58:	fe010113          	addi	sp,sp,-32
   11b5c:	00812e23          	sw	s0,28(sp)
   11b60:	02010413          	addi	s0,sp,32
   11b64:	fea42623          	sw	a0,-20(s0)

00011b68 <.LM2>:
   11b68:	fec42783          	lw	a5,-20(s0)
   11b6c:	0207a703          	lw	a4,32(a5)
   11b70:	fec42783          	lw	a5,-20(s0)
   11b74:	00f707b3          	add	a5,a4,a5

00011b78 <.LM3>:
   11b78:	00078513          	mv	a0,a5
   11b7c:	01c12403          	lw	s0,28(sp)
   11b80:	02010113          	addi	sp,sp,32
   11b84:	00008067          	ret

00011b88 <elf32_checkFile>:
   11b88:	fe010113          	addi	sp,sp,-32
   11b8c:	00812e23          	sw	s0,28(sp)
   11b90:	02010413          	addi	s0,sp,32
   11b94:	fea42623          	sw	a0,-20(s0)

00011b98 <.LM5>:
   11b98:	fec42783          	lw	a5,-20(s0)
   11b9c:	0007c703          	lbu	a4,0(a5)
   11ba0:	07f00793          	li	a5,127
   11ba4:	02f71a63          	bne	a4,a5,11bd8 <.L4>

00011ba8 <.LM6>:
   11ba8:	fec42783          	lw	a5,-20(s0)
   11bac:	0017c703          	lbu	a4,1(a5)
   11bb0:	04500793          	li	a5,69
   11bb4:	02f71263          	bne	a4,a5,11bd8 <.L4>

00011bb8 <.LM7>:
   11bb8:	fec42783          	lw	a5,-20(s0)
   11bbc:	0027c703          	lbu	a4,2(a5)
   11bc0:	04c00793          	li	a5,76
   11bc4:	00f71a63          	bne	a4,a5,11bd8 <.L4>

00011bc8 <.LM8>:
   11bc8:	fec42783          	lw	a5,-20(s0)
   11bcc:	0037c703          	lbu	a4,3(a5)
   11bd0:	04600793          	li	a5,70
   11bd4:	00f70663          	beq	a4,a5,11be0 <.L5>

00011bd8 <.L4>:
   11bd8:	fff00793          	li	a5,-1
   11bdc:	0200006f          	j	11bfc <.L6>

00011be0 <.L5>:
   11be0:	fec42783          	lw	a5,-20(s0)
   11be4:	0047c703          	lbu	a4,4(a5)
   11be8:	00100793          	li	a5,1
   11bec:	00f70663          	beq	a4,a5,11bf8 <.L7>

00011bf0 <.LM11>:
   11bf0:	ffe00793          	li	a5,-2
   11bf4:	0080006f          	j	11bfc <.L6>

00011bf8 <.L7>:
   11bf8:	00000793          	li	a5,0

00011bfc <.L6>:
   11bfc:	00078513          	mv	a0,a5
   11c00:	01c12403          	lw	s0,28(sp)
   11c04:	02010113          	addi	sp,sp,32
   11c08:	00008067          	ret

00011c0c <elf32_getNumSections>:
   11c0c:	fe010113          	addi	sp,sp,-32
   11c10:	00812e23          	sw	s0,28(sp)
   11c14:	02010413          	addi	s0,sp,32
   11c18:	fea42623          	sw	a0,-20(s0)

00011c1c <.LM15>:
   11c1c:	fec42783          	lw	a5,-20(s0)
   11c20:	0307d783          	lhu	a5,48(a5)

00011c24 <.LM16>:
   11c24:	00078513          	mv	a0,a5
   11c28:	01c12403          	lw	s0,28(sp)
   11c2c:	02010113          	addi	sp,sp,32
   11c30:	00008067          	ret

00011c34 <elf32_getStringTable>:
   11c34:	fd010113          	addi	sp,sp,-48
   11c38:	02112623          	sw	ra,44(sp)
   11c3c:	02812423          	sw	s0,40(sp)
   11c40:	03010413          	addi	s0,sp,48
   11c44:	fca42e23          	sw	a0,-36(s0)

00011c48 <.LM18>:
   11c48:	fdc42503          	lw	a0,-36(s0)
   11c4c:	00000297          	auipc	t0,0x0
   11c50:	000280e7          	jalr	t0
   11c54:	fea42623          	sw	a0,-20(s0)

00011c58 <.LM19>:
   11c58:	fdc42783          	lw	a5,-36(s0)
   11c5c:	0327d783          	lhu	a5,50(a5)
   11c60:	00379793          	slli	a5,a5,0x3
   11c64:	00279713          	slli	a4,a5,0x2
   11c68:	00e787b3          	add	a5,a5,a4
   11c6c:	fec42703          	lw	a4,-20(s0)
   11c70:	00f707b3          	add	a5,a4,a5
   11c74:	0107a783          	lw	a5,16(a5)
   11c78:	fdc42703          	lw	a4,-36(s0)
   11c7c:	00f707b3          	add	a5,a4,a5

00011c80 <.LM20>:
   11c80:	00078513          	mv	a0,a5
   11c84:	02c12083          	lw	ra,44(sp)
   11c88:	02812403          	lw	s0,40(sp)
   11c8c:	03010113          	addi	sp,sp,48
   11c90:	00008067          	ret

00011c94 <elf32_getProgramSegmentTable>:
   11c94:	fd010113          	addi	sp,sp,-48
   11c98:	02812623          	sw	s0,44(sp)
   11c9c:	03010413          	addi	s0,sp,48
   11ca0:	fca42e23          	sw	a0,-36(s0)

00011ca4 <.LM22>:
   11ca4:	fdc42783          	lw	a5,-36(s0)
   11ca8:	fef42623          	sw	a5,-20(s0)

00011cac <.LM23>:
   11cac:	fec42783          	lw	a5,-20(s0)
   11cb0:	01c7a703          	lw	a4,28(a5)
   11cb4:	fdc42783          	lw	a5,-36(s0)
   11cb8:	00f707b3          	add	a5,a4,a5

00011cbc <.LM24>:
   11cbc:	00078513          	mv	a0,a5
   11cc0:	02c12403          	lw	s0,44(sp)
   11cc4:	03010113          	addi	sp,sp,48
   11cc8:	00008067          	ret

00011ccc <elf32_getNumProgramHeaders>:
   11ccc:	fd010113          	addi	sp,sp,-48
   11cd0:	02812623          	sw	s0,44(sp)
   11cd4:	03010413          	addi	s0,sp,48
   11cd8:	fca42e23          	sw	a0,-36(s0)

00011cdc <.LM26>:
   11cdc:	fdc42783          	lw	a5,-36(s0)
   11ce0:	fef42623          	sw	a5,-20(s0)

00011ce4 <.LM27>:
   11ce4:	fec42783          	lw	a5,-20(s0)
   11ce8:	02c7d783          	lhu	a5,44(a5)

00011cec <.LM28>:
   11cec:	00078513          	mv	a0,a5
   11cf0:	02c12403          	lw	s0,44(sp)
   11cf4:	03010113          	addi	sp,sp,48
   11cf8:	00008067          	ret

00011cfc <elf32_getSectionName>:
   11cfc:	fd010113          	addi	sp,sp,-48
   11d00:	02112623          	sw	ra,44(sp)
   11d04:	02812423          	sw	s0,40(sp)
   11d08:	03010413          	addi	s0,sp,48
   11d0c:	fca42e23          	sw	a0,-36(s0)
   11d10:	fcb42c23          	sw	a1,-40(s0)

00011d14 <.LM30>:
   11d14:	fdc42503          	lw	a0,-36(s0)
   11d18:	00000297          	auipc	t0,0x0
   11d1c:	000280e7          	jalr	t0
   11d20:	fea42623          	sw	a0,-20(s0)

00011d24 <.LM31>:
   11d24:	fdc42503          	lw	a0,-36(s0)
   11d28:	00000297          	auipc	t0,0x0
   11d2c:	000280e7          	jalr	t0
   11d30:	fea42423          	sw	a0,-24(s0)

00011d34 <.LM32>:
   11d34:	fe842783          	lw	a5,-24(s0)
   11d38:	00079863          	bnez	a5,11d48 <.L17>

00011d3c <.LM33>:
   11d3c:	000007b7          	lui	a5,0x0
   11d40:	00078793          	mv	a5,a5
   11d44:	0280006f          	j	11d6c <.L18>

00011d48 <.L17>:
   11d48:	fd842783          	lw	a5,-40(s0)
   11d4c:	00379793          	slli	a5,a5,0x3
   11d50:	00279713          	slli	a4,a5,0x2
   11d54:	00e787b3          	add	a5,a5,a4
   11d58:	fec42703          	lw	a4,-20(s0)
   11d5c:	00f707b3          	add	a5,a4,a5
   11d60:	0007a783          	lw	a5,0(a5) # 0 <buf.1018>
   11d64:	fe842703          	lw	a4,-24(s0)
   11d68:	00f707b3          	add	a5,a4,a5

00011d6c <.L18>:
   11d6c:	00078513          	mv	a0,a5
   11d70:	02c12083          	lw	ra,44(sp)
   11d74:	02812403          	lw	s0,40(sp)
   11d78:	03010113          	addi	sp,sp,48
   11d7c:	00008067          	ret

00011d80 <elf32_getSectionSize>:
   11d80:	fd010113          	addi	sp,sp,-48
   11d84:	02112623          	sw	ra,44(sp)
   11d88:	02812423          	sw	s0,40(sp)
   11d8c:	03010413          	addi	s0,sp,48
   11d90:	fca42e23          	sw	a0,-36(s0)
   11d94:	fcb42c23          	sw	a1,-40(s0)

00011d98 <.LM37>:
   11d98:	fdc42503          	lw	a0,-36(s0)
   11d9c:	00000297          	auipc	t0,0x0
   11da0:	000280e7          	jalr	t0
   11da4:	fea42623          	sw	a0,-20(s0)

00011da8 <.LM38>:
   11da8:	fd842783          	lw	a5,-40(s0)
   11dac:	00379793          	slli	a5,a5,0x3
   11db0:	00279713          	slli	a4,a5,0x2
   11db4:	00e787b3          	add	a5,a5,a4
   11db8:	fec42703          	lw	a4,-20(s0)
   11dbc:	00f707b3          	add	a5,a4,a5
   11dc0:	0147a783          	lw	a5,20(a5)

00011dc4 <.LM39>:
   11dc4:	00078513          	mv	a0,a5
   11dc8:	02c12083          	lw	ra,44(sp)
   11dcc:	02812403          	lw	s0,40(sp)
   11dd0:	03010113          	addi	sp,sp,48
   11dd4:	00008067          	ret

00011dd8 <elf32_getSectionAddr>:
   11dd8:	fd010113          	addi	sp,sp,-48
   11ddc:	02112623          	sw	ra,44(sp)
   11de0:	02812423          	sw	s0,40(sp)
   11de4:	03010413          	addi	s0,sp,48
   11de8:	fca42e23          	sw	a0,-36(s0)
   11dec:	fcb42c23          	sw	a1,-40(s0)

00011df0 <.LM41>:
   11df0:	fdc42503          	lw	a0,-36(s0)
   11df4:	00000297          	auipc	t0,0x0
   11df8:	000280e7          	jalr	t0
   11dfc:	fea42623          	sw	a0,-20(s0)

00011e00 <.LM42>:
   11e00:	fd842783          	lw	a5,-40(s0)
   11e04:	00379793          	slli	a5,a5,0x3
   11e08:	00279713          	slli	a4,a5,0x2
   11e0c:	00e787b3          	add	a5,a5,a4
   11e10:	fec42703          	lw	a4,-20(s0)
   11e14:	00f707b3          	add	a5,a4,a5
   11e18:	00c7a783          	lw	a5,12(a5)

00011e1c <.LM43>:
   11e1c:	00078513          	mv	a0,a5
   11e20:	02c12083          	lw	ra,44(sp)
   11e24:	02812403          	lw	s0,40(sp)
   11e28:	03010113          	addi	sp,sp,48
   11e2c:	00008067          	ret

00011e30 <elf32_getSection>:
   11e30:	fd010113          	addi	sp,sp,-48
   11e34:	02112623          	sw	ra,44(sp)
   11e38:	02812423          	sw	s0,40(sp)
   11e3c:	03010413          	addi	s0,sp,48
   11e40:	fca42e23          	sw	a0,-36(s0)
   11e44:	fcb42c23          	sw	a1,-40(s0)

00011e48 <.LM45>:
   11e48:	fdc42503          	lw	a0,-36(s0)
   11e4c:	00000297          	auipc	t0,0x0
   11e50:	000280e7          	jalr	t0
   11e54:	fea42623          	sw	a0,-20(s0)

00011e58 <.LM46>:
   11e58:	fd842783          	lw	a5,-40(s0)
   11e5c:	00379793          	slli	a5,a5,0x3
   11e60:	00279713          	slli	a4,a5,0x2
   11e64:	00e787b3          	add	a5,a5,a4
   11e68:	fec42703          	lw	a4,-20(s0)
   11e6c:	00f707b3          	add	a5,a4,a5
   11e70:	0107a783          	lw	a5,16(a5)
   11e74:	fdc42703          	lw	a4,-36(s0)
   11e78:	00f707b3          	add	a5,a4,a5

00011e7c <.LM47>:
   11e7c:	00078513          	mv	a0,a5
   11e80:	02c12083          	lw	ra,44(sp)
   11e84:	02812403          	lw	s0,40(sp)
   11e88:	03010113          	addi	sp,sp,48
   11e8c:	00008067          	ret

00011e90 <elf32_getSectionNamed>:
   11e90:	fd010113          	addi	sp,sp,-48
   11e94:	02112623          	sw	ra,44(sp)
   11e98:	02812423          	sw	s0,40(sp)
   11e9c:	03010413          	addi	s0,sp,48
   11ea0:	fca42e23          	sw	a0,-36(s0)
   11ea4:	fcb42c23          	sw	a1,-40(s0)

00011ea8 <.LM49>:
   11ea8:	fdc42503          	lw	a0,-36(s0)
   11eac:	00000297          	auipc	t0,0x0
   11eb0:	000280e7          	jalr	t0
   11eb4:	00050793          	mv	a5,a0
   11eb8:	fef42423          	sw	a5,-24(s0)

00011ebc <.LM50>:
   11ebc:	fe042623          	sw	zero,-20(s0)
   11ec0:	0540006f          	j	11f14 <.L26>

00011ec4 <.L29>:
   11ec4:	fec42583          	lw	a1,-20(s0)
   11ec8:	fdc42503          	lw	a0,-36(s0)
   11ecc:	00000297          	auipc	t0,0x0
   11ed0:	000280e7          	jalr	t0
   11ed4:	00050793          	mv	a5,a0
   11ed8:	00078593          	mv	a1,a5
   11edc:	fd842503          	lw	a0,-40(s0)
   11ee0:	00000297          	auipc	t0,0x0
   11ee4:	000280e7          	jalr	t0
   11ee8:	00050793          	mv	a5,a0
   11eec:	00079e63          	bnez	a5,11f08 <.L27>

00011ef0 <.LM52>:
   11ef0:	fec42583          	lw	a1,-20(s0)
   11ef4:	fdc42503          	lw	a0,-36(s0)
   11ef8:	00000297          	auipc	t0,0x0
   11efc:	000280e7          	jalr	t0
   11f00:	00050793          	mv	a5,a0
   11f04:	0200006f          	j	11f24 <.L28>

00011f08 <.L27>:
   11f08:	fec42783          	lw	a5,-20(s0)
   11f0c:	00178793          	addi	a5,a5,1
   11f10:	fef42623          	sw	a5,-20(s0)

00011f14 <.L26>:
   11f14:	fec42703          	lw	a4,-20(s0)
   11f18:	fe842783          	lw	a5,-24(s0)
   11f1c:	faf744e3          	blt	a4,a5,11ec4 <.L29>

00011f20 <.LM55>:
   11f20:	00000793          	li	a5,0

00011f24 <.L28>:
   11f24:	00078513          	mv	a0,a5
   11f28:	02c12083          	lw	ra,44(sp)
   11f2c:	02812403          	lw	s0,40(sp)
   11f30:	03010113          	addi	sp,sp,48
   11f34:	00008067          	ret

00011f38 <elf32_getSegmentStringTable>:
   11f38:	fd010113          	addi	sp,sp,-48
   11f3c:	02112623          	sw	ra,44(sp)
   11f40:	02812423          	sw	s0,40(sp)
   11f44:	03010413          	addi	s0,sp,48
   11f48:	fca42e23          	sw	a0,-36(s0)

00011f4c <.LM58>:
   11f4c:	fdc42783          	lw	a5,-36(s0)
   11f50:	fef42623          	sw	a5,-20(s0)

00011f54 <.LM59>:
   11f54:	fec42783          	lw	a5,-20(s0)
   11f58:	0327d783          	lhu	a5,50(a5)
   11f5c:	00079663          	bnez	a5,11f68 <.L31>

00011f60 <.LM60>:
   11f60:	00000793          	li	a5,0
   11f64:	0140006f          	j	11f78 <.L32>

00011f68 <.L31>:
   11f68:	fdc42503          	lw	a0,-36(s0)
   11f6c:	00000297          	auipc	t0,0x0
   11f70:	000280e7          	jalr	t0
   11f74:	00050793          	mv	a5,a0

00011f78 <.L32>:
   11f78:	00078513          	mv	a0,a5
   11f7c:	02c12083          	lw	ra,44(sp)
   11f80:	02812403          	lw	s0,40(sp)
   11f84:	03010113          	addi	sp,sp,48
   11f88:	00008067          	ret

00011f8c <elf32_getSegmentType>:
   11f8c:	fe010113          	addi	sp,sp,-32
   11f90:	00112e23          	sw	ra,28(sp)
   11f94:	00812c23          	sw	s0,24(sp)
   11f98:	02010413          	addi	s0,sp,32
   11f9c:	fea42623          	sw	a0,-20(s0)
   11fa0:	feb42423          	sw	a1,-24(s0)

00011fa4 <.LM64>:
   11fa4:	fec42503          	lw	a0,-20(s0)
   11fa8:	00000297          	auipc	t0,0x0
   11fac:	000280e7          	jalr	t0
   11fb0:	00050713          	mv	a4,a0
   11fb4:	fe842783          	lw	a5,-24(s0)
   11fb8:	00579793          	slli	a5,a5,0x5
   11fbc:	00f707b3          	add	a5,a4,a5
   11fc0:	0007a783          	lw	a5,0(a5)

00011fc4 <.LM65>:
   11fc4:	00078513          	mv	a0,a5
   11fc8:	01c12083          	lw	ra,28(sp)
   11fcc:	01812403          	lw	s0,24(sp)
   11fd0:	02010113          	addi	sp,sp,32
   11fd4:	00008067          	ret

00011fd8 <elf32_getSegmentInfo>:
   11fd8:	fa010113          	addi	sp,sp,-96
   11fdc:	04112e23          	sw	ra,92(sp)
   11fe0:	04812c23          	sw	s0,88(sp)
   11fe4:	05212a23          	sw	s2,84(sp)
   11fe8:	05312823          	sw	s3,80(sp)
   11fec:	05412623          	sw	s4,76(sp)
   11ff0:	05512423          	sw	s5,72(sp)
   11ff4:	05612223          	sw	s6,68(sp)
   11ff8:	05712023          	sw	s7,64(sp)
   11ffc:	03812e23          	sw	s8,60(sp)
   12000:	03912c23          	sw	s9,56(sp)
   12004:	03a12a23          	sw	s10,52(sp)
   12008:	03b12823          	sw	s11,48(sp)
   1200c:	06010413          	addi	s0,sp,96
   12010:	faa42e23          	sw	a0,-68(s0)
   12014:	fab42c23          	sw	a1,-72(s0)
   12018:	fac42a23          	sw	a2,-76(s0)
   1201c:	fad42823          	sw	a3,-80(s0)
   12020:	fae42623          	sw	a4,-84(s0)
   12024:	faf42423          	sw	a5,-88(s0)
   12028:	fb042223          	sw	a6,-92(s0)

0001202c <.LM67>:
   1202c:	fbc42503          	lw	a0,-68(s0)
   12030:	00000297          	auipc	t0,0x0
   12034:	000280e7          	jalr	t0
   12038:	fca42623          	sw	a0,-52(s0)

0001203c <.LM68>:
   1203c:	fb842783          	lw	a5,-72(s0)
   12040:	00579793          	slli	a5,a5,0x5
   12044:	fcc42703          	lw	a4,-52(s0)
   12048:	00f707b3          	add	a5,a4,a5
   1204c:	00c7a783          	lw	a5,12(a5)
   12050:	00078d13          	mv	s10,a5
   12054:	00000d93          	li	s11,0
   12058:	fb042783          	lw	a5,-80(s0)
   1205c:	01a7a023          	sw	s10,0(a5)
   12060:	01b7a223          	sw	s11,4(a5)

00012064 <.LM69>:
   12064:	fb842783          	lw	a5,-72(s0)
   12068:	00579793          	slli	a5,a5,0x5
   1206c:	fcc42703          	lw	a4,-52(s0)
   12070:	00f707b3          	add	a5,a4,a5
   12074:	0087a783          	lw	a5,8(a5)
   12078:	00078c13          	mv	s8,a5
   1207c:	00000c93          	li	s9,0
   12080:	fb442783          	lw	a5,-76(s0)
   12084:	0187a023          	sw	s8,0(a5)
   12088:	0197a223          	sw	s9,4(a5)

0001208c <.LM70>:
   1208c:	fb842783          	lw	a5,-72(s0)
   12090:	00579793          	slli	a5,a5,0x5
   12094:	fcc42703          	lw	a4,-52(s0)
   12098:	00f707b3          	add	a5,a4,a5
   1209c:	0107a783          	lw	a5,16(a5)
   120a0:	00078b13          	mv	s6,a5
   120a4:	00000b93          	li	s7,0
   120a8:	fac42783          	lw	a5,-84(s0)
   120ac:	0167a023          	sw	s6,0(a5)
   120b0:	0177a223          	sw	s7,4(a5)

000120b4 <.LM71>:
   120b4:	fb842783          	lw	a5,-72(s0)
   120b8:	00579793          	slli	a5,a5,0x5
   120bc:	fcc42703          	lw	a4,-52(s0)
   120c0:	00f707b3          	add	a5,a4,a5
   120c4:	0047a783          	lw	a5,4(a5)
   120c8:	00078a13          	mv	s4,a5
   120cc:	00000a93          	li	s5,0
   120d0:	fa842783          	lw	a5,-88(s0)
   120d4:	0147a023          	sw	s4,0(a5)
   120d8:	0157a223          	sw	s5,4(a5)

000120dc <.LM72>:
   120dc:	fb842783          	lw	a5,-72(s0)
   120e0:	00579793          	slli	a5,a5,0x5
   120e4:	fcc42703          	lw	a4,-52(s0)
   120e8:	00f707b3          	add	a5,a4,a5
   120ec:	0147a783          	lw	a5,20(a5)
   120f0:	00078913          	mv	s2,a5
   120f4:	00000993          	li	s3,0
   120f8:	fa442783          	lw	a5,-92(s0)
   120fc:	0127a023          	sw	s2,0(a5)
   12100:	0137a223          	sw	s3,4(a5)

00012104 <.LM73>:
   12104:	00000013          	nop
   12108:	05c12083          	lw	ra,92(sp)
   1210c:	05812403          	lw	s0,88(sp)
   12110:	05412903          	lw	s2,84(sp)
   12114:	05012983          	lw	s3,80(sp)
   12118:	04c12a03          	lw	s4,76(sp)
   1211c:	04812a83          	lw	s5,72(sp)
   12120:	04412b03          	lw	s6,68(sp)
   12124:	04012b83          	lw	s7,64(sp)
   12128:	03c12c03          	lw	s8,60(sp)
   1212c:	03812c83          	lw	s9,56(sp)
   12130:	03412d03          	lw	s10,52(sp)
   12134:	03012d83          	lw	s11,48(sp)
   12138:	06010113          	addi	sp,sp,96
   1213c:	00008067          	ret

00012140 <elf32_getEntryPoint>:
   12140:	fe010113          	addi	sp,sp,-32
   12144:	00812e23          	sw	s0,28(sp)
   12148:	02010413          	addi	s0,sp,32
   1214c:	fea42623          	sw	a0,-20(s0)

00012150 <.LM75>:
   12150:	fec42783          	lw	a5,-20(s0)
   12154:	0187a783          	lw	a5,24(a5)

00012158 <.LM76>:
   12158:	00078513          	mv	a0,a5
   1215c:	01c12403          	lw	s0,28(sp)
   12160:	02010113          	addi	sp,sp,32
   12164:	00008067          	ret

00012168 <elf64_getSectionTable>:
   12168:	fe010113          	addi	sp,sp,-32
   1216c:	00812e23          	sw	s0,28(sp)
   12170:	02010413          	addi	s0,sp,32
   12174:	fea42623          	sw	a0,-20(s0)

00012178 <.LM2>:
   12178:	fec42783          	lw	a5,-20(s0)
   1217c:	0287a703          	lw	a4,40(a5)
   12180:	02c7a783          	lw	a5,44(a5)
   12184:	fec42783          	lw	a5,-20(s0)
   12188:	00f707b3          	add	a5,a4,a5

0001218c <.LM3>:
   1218c:	00078513          	mv	a0,a5
   12190:	01c12403          	lw	s0,28(sp)
   12194:	02010113          	addi	sp,sp,32
   12198:	00008067          	ret

0001219c <elf64_checkFile>:
   1219c:	fd010113          	addi	sp,sp,-48
   121a0:	02812623          	sw	s0,44(sp)
   121a4:	03010413          	addi	s0,sp,48
   121a8:	fca42e23          	sw	a0,-36(s0)

000121ac <.LM5>:
   121ac:	fdc42783          	lw	a5,-36(s0)
   121b0:	fef42623          	sw	a5,-20(s0)

000121b4 <.LM6>:
   121b4:	fec42783          	lw	a5,-20(s0)
   121b8:	0007c703          	lbu	a4,0(a5)
   121bc:	07f00793          	li	a5,127
   121c0:	02f71a63          	bne	a4,a5,121f4 <.L4>

000121c4 <.LM7>:
   121c4:	fec42783          	lw	a5,-20(s0)
   121c8:	0017c703          	lbu	a4,1(a5)
   121cc:	04500793          	li	a5,69
   121d0:	02f71263          	bne	a4,a5,121f4 <.L4>

000121d4 <.LM8>:
   121d4:	fec42783          	lw	a5,-20(s0)
   121d8:	0027c703          	lbu	a4,2(a5)
   121dc:	04c00793          	li	a5,76
   121e0:	00f71a63          	bne	a4,a5,121f4 <.L4>

000121e4 <.LM9>:
   121e4:	fec42783          	lw	a5,-20(s0)
   121e8:	0037c703          	lbu	a4,3(a5)
   121ec:	04600793          	li	a5,70
   121f0:	00f70663          	beq	a4,a5,121fc <.L5>

000121f4 <.L4>:
   121f4:	fff00793          	li	a5,-1
   121f8:	0200006f          	j	12218 <.L6>

000121fc <.L5>:
   121fc:	fec42783          	lw	a5,-20(s0)
   12200:	0047c703          	lbu	a4,4(a5)
   12204:	00200793          	li	a5,2
   12208:	00f70663          	beq	a4,a5,12214 <.L7>

0001220c <.LM12>:
   1220c:	ffe00793          	li	a5,-2
   12210:	0080006f          	j	12218 <.L6>

00012214 <.L7>:
   12214:	00000793          	li	a5,0

00012218 <.L6>:
   12218:	00078513          	mv	a0,a5
   1221c:	02c12403          	lw	s0,44(sp)
   12220:	03010113          	addi	sp,sp,48
   12224:	00008067          	ret

00012228 <elf64_getProgramSegmentTable>:
   12228:	fd010113          	addi	sp,sp,-48
   1222c:	02812623          	sw	s0,44(sp)
   12230:	03010413          	addi	s0,sp,48
   12234:	fca42e23          	sw	a0,-36(s0)

00012238 <.LM16>:
   12238:	fdc42783          	lw	a5,-36(s0)
   1223c:	fef42623          	sw	a5,-20(s0)

00012240 <.LM17>:
   12240:	fec42783          	lw	a5,-20(s0)
   12244:	0207a703          	lw	a4,32(a5)
   12248:	0247a783          	lw	a5,36(a5)
   1224c:	fdc42783          	lw	a5,-36(s0)
   12250:	00f707b3          	add	a5,a4,a5

00012254 <.LM18>:
   12254:	00078513          	mv	a0,a5
   12258:	02c12403          	lw	s0,44(sp)
   1225c:	03010113          	addi	sp,sp,48
   12260:	00008067          	ret

00012264 <elf64_getNumSections>:
   12264:	fd010113          	addi	sp,sp,-48
   12268:	02812623          	sw	s0,44(sp)
   1226c:	03010413          	addi	s0,sp,48
   12270:	fca42e23          	sw	a0,-36(s0)

00012274 <.LM20>:
   12274:	fdc42783          	lw	a5,-36(s0)
   12278:	fef42623          	sw	a5,-20(s0)

0001227c <.LM21>:
   1227c:	fec42783          	lw	a5,-20(s0)
   12280:	03c7d783          	lhu	a5,60(a5)

00012284 <.LM22>:
   12284:	00078513          	mv	a0,a5
   12288:	02c12403          	lw	s0,44(sp)
   1228c:	03010113          	addi	sp,sp,48
   12290:	00008067          	ret

00012294 <elf64_getStringTable>:
   12294:	fd010113          	addi	sp,sp,-48
   12298:	02112623          	sw	ra,44(sp)
   1229c:	02812423          	sw	s0,40(sp)
   122a0:	03010413          	addi	s0,sp,48
   122a4:	fca42e23          	sw	a0,-36(s0)
   122a8:	fcb42c23          	sw	a1,-40(s0)

000122ac <.LM24>:
   122ac:	fdc42503          	lw	a0,-36(s0)
   122b0:	00000297          	auipc	t0,0x0
   122b4:	000280e7          	jalr	t0
   122b8:	fea42623          	sw	a0,-20(s0)

000122bc <.LM25>:
   122bc:	fd842783          	lw	a5,-40(s0)
   122c0:	00679793          	slli	a5,a5,0x6
   122c4:	fec42703          	lw	a4,-20(s0)
   122c8:	00f707b3          	add	a5,a4,a5
   122cc:	0187a703          	lw	a4,24(a5)
   122d0:	01c7a783          	lw	a5,28(a5)
   122d4:	fdc42783          	lw	a5,-36(s0)
   122d8:	00e787b3          	add	a5,a5,a4

000122dc <.LM26>:
   122dc:	00078513          	mv	a0,a5
   122e0:	02c12083          	lw	ra,44(sp)
   122e4:	02812403          	lw	s0,40(sp)
   122e8:	03010113          	addi	sp,sp,48
   122ec:	00008067          	ret

000122f0 <elf64_getSegmentStringTable>:
   122f0:	fd010113          	addi	sp,sp,-48
   122f4:	02112623          	sw	ra,44(sp)
   122f8:	02812423          	sw	s0,40(sp)
   122fc:	03010413          	addi	s0,sp,48
   12300:	fca42e23          	sw	a0,-36(s0)

00012304 <.LM28>:
   12304:	fdc42783          	lw	a5,-36(s0)
   12308:	fef42623          	sw	a5,-20(s0)

0001230c <.LM29>:
   1230c:	fec42783          	lw	a5,-20(s0)
   12310:	03e7d783          	lhu	a5,62(a5)
   12314:	00079663          	bnez	a5,12320 <.L15>

00012318 <.LM30>:
   12318:	00000793          	li	a5,0
   1231c:	0200006f          	j	1233c <.L16>

00012320 <.L15>:
   12320:	fec42783          	lw	a5,-20(s0)
   12324:	03e7d783          	lhu	a5,62(a5)
   12328:	00078593          	mv	a1,a5
   1232c:	fdc42503          	lw	a0,-36(s0)
   12330:	00000297          	auipc	t0,0x0
   12334:	000280e7          	jalr	t0
   12338:	00050793          	mv	a5,a0

0001233c <.L16>:
   1233c:	00078513          	mv	a0,a5
   12340:	02c12083          	lw	ra,44(sp)
   12344:	02812403          	lw	s0,40(sp)
   12348:	03010113          	addi	sp,sp,48
   1234c:	00008067          	ret

00012350 <elf64_getSectionName>:
   12350:	fd010113          	addi	sp,sp,-48
   12354:	02112623          	sw	ra,44(sp)
   12358:	02812423          	sw	s0,40(sp)
   1235c:	03010413          	addi	s0,sp,48
   12360:	fca42e23          	sw	a0,-36(s0)
   12364:	fcb42c23          	sw	a1,-40(s0)

00012368 <.LM34>:
   12368:	fdc42503          	lw	a0,-36(s0)
   1236c:	00000297          	auipc	t0,0x0
   12370:	000280e7          	jalr	t0
   12374:	fea42623          	sw	a0,-20(s0)

00012378 <.LM35>:
   12378:	fdc42503          	lw	a0,-36(s0)
   1237c:	00000297          	auipc	t0,0x0
   12380:	000280e7          	jalr	t0
   12384:	fea42423          	sw	a0,-24(s0)

00012388 <.LM36>:
   12388:	fe842783          	lw	a5,-24(s0)
   1238c:	00079863          	bnez	a5,1239c <.L18>

00012390 <.LM37>:
   12390:	000007b7          	lui	a5,0x0
   12394:	00078793          	mv	a5,a5
   12398:	0200006f          	j	123b8 <.L19>

0001239c <.L18>:
   1239c:	fd842783          	lw	a5,-40(s0)
   123a0:	00679793          	slli	a5,a5,0x6
   123a4:	fec42703          	lw	a4,-20(s0)
   123a8:	00f707b3          	add	a5,a4,a5
   123ac:	0007a783          	lw	a5,0(a5) # 0 <buf.1018>
   123b0:	fe842703          	lw	a4,-24(s0)
   123b4:	00f707b3          	add	a5,a4,a5

000123b8 <.L19>:
   123b8:	00078513          	mv	a0,a5
   123bc:	02c12083          	lw	ra,44(sp)
   123c0:	02812403          	lw	s0,40(sp)
   123c4:	03010113          	addi	sp,sp,48
   123c8:	00008067          	ret

000123cc <elf64_getSectionSize>:
   123cc:	fd010113          	addi	sp,sp,-48
   123d0:	02112623          	sw	ra,44(sp)
   123d4:	02812423          	sw	s0,40(sp)
   123d8:	03010413          	addi	s0,sp,48
   123dc:	fca42e23          	sw	a0,-36(s0)
   123e0:	fcb42c23          	sw	a1,-40(s0)

000123e4 <.LM41>:
   123e4:	fdc42503          	lw	a0,-36(s0)
   123e8:	00000297          	auipc	t0,0x0
   123ec:	000280e7          	jalr	t0
   123f0:	fea42623          	sw	a0,-20(s0)

000123f4 <.LM42>:
   123f4:	fd842783          	lw	a5,-40(s0)
   123f8:	00679793          	slli	a5,a5,0x6
   123fc:	fec42703          	lw	a4,-20(s0)
   12400:	00f707b3          	add	a5,a4,a5
   12404:	0207a703          	lw	a4,32(a5)
   12408:	0247a783          	lw	a5,36(a5)

0001240c <.LM43>:
   1240c:	00070513          	mv	a0,a4
   12410:	00078593          	mv	a1,a5
   12414:	02c12083          	lw	ra,44(sp)
   12418:	02812403          	lw	s0,40(sp)
   1241c:	03010113          	addi	sp,sp,48
   12420:	00008067          	ret

00012424 <elf64_getSectionAddr>:
   12424:	fd010113          	addi	sp,sp,-48
   12428:	02112623          	sw	ra,44(sp)
   1242c:	02812423          	sw	s0,40(sp)
   12430:	03010413          	addi	s0,sp,48
   12434:	fca42e23          	sw	a0,-36(s0)
   12438:	fcb42c23          	sw	a1,-40(s0)

0001243c <.LM45>:
   1243c:	fdc42503          	lw	a0,-36(s0)
   12440:	00000297          	auipc	t0,0x0
   12444:	000280e7          	jalr	t0
   12448:	fea42623          	sw	a0,-20(s0)

0001244c <.LM46>:
   1244c:	fd842783          	lw	a5,-40(s0)
   12450:	00679793          	slli	a5,a5,0x6
   12454:	fec42703          	lw	a4,-20(s0)
   12458:	00f707b3          	add	a5,a4,a5
   1245c:	0107a703          	lw	a4,16(a5)
   12460:	0147a783          	lw	a5,20(a5)

00012464 <.LM47>:
   12464:	00070513          	mv	a0,a4
   12468:	00078593          	mv	a1,a5
   1246c:	02c12083          	lw	ra,44(sp)
   12470:	02812403          	lw	s0,40(sp)
   12474:	03010113          	addi	sp,sp,48
   12478:	00008067          	ret

0001247c <elf64_getSection>:
   1247c:	fd010113          	addi	sp,sp,-48
   12480:	02112623          	sw	ra,44(sp)
   12484:	02812423          	sw	s0,40(sp)
   12488:	03010413          	addi	s0,sp,48
   1248c:	fca42e23          	sw	a0,-36(s0)
   12490:	fcb42c23          	sw	a1,-40(s0)

00012494 <.LM49>:
   12494:	fdc42503          	lw	a0,-36(s0)
   12498:	00000297          	auipc	t0,0x0
   1249c:	000280e7          	jalr	t0
   124a0:	fea42623          	sw	a0,-20(s0)

000124a4 <.LM50>:
   124a4:	fd842783          	lw	a5,-40(s0)
   124a8:	00679793          	slli	a5,a5,0x6
   124ac:	fec42703          	lw	a4,-20(s0)
   124b0:	00f707b3          	add	a5,a4,a5
   124b4:	0187a703          	lw	a4,24(a5)
   124b8:	01c7a783          	lw	a5,28(a5)
   124bc:	fdc42783          	lw	a5,-36(s0)
   124c0:	00e787b3          	add	a5,a5,a4

000124c4 <.LM51>:
   124c4:	00078513          	mv	a0,a5
   124c8:	02c12083          	lw	ra,44(sp)
   124cc:	02812403          	lw	s0,40(sp)
   124d0:	03010113          	addi	sp,sp,48
   124d4:	00008067          	ret

000124d8 <elf64_getSectionNamed>:
   124d8:	fd010113          	addi	sp,sp,-48
   124dc:	02112623          	sw	ra,44(sp)
   124e0:	02812423          	sw	s0,40(sp)
   124e4:	03010413          	addi	s0,sp,48
   124e8:	fca42e23          	sw	a0,-36(s0)
   124ec:	fcb42c23          	sw	a1,-40(s0)

000124f0 <.LM53>:
   124f0:	fdc42503          	lw	a0,-36(s0)
   124f4:	00000297          	auipc	t0,0x0
   124f8:	000280e7          	jalr	t0
   124fc:	00050793          	mv	a5,a0
   12500:	fef42423          	sw	a5,-24(s0)

00012504 <.LM54>:
   12504:	fe042623          	sw	zero,-20(s0)
   12508:	0540006f          	j	1255c <.L27>

0001250c <.L30>:
   1250c:	fec42583          	lw	a1,-20(s0)
   12510:	fdc42503          	lw	a0,-36(s0)
   12514:	00000297          	auipc	t0,0x0
   12518:	000280e7          	jalr	t0
   1251c:	00050793          	mv	a5,a0
   12520:	00078593          	mv	a1,a5
   12524:	fd842503          	lw	a0,-40(s0)
   12528:	00000297          	auipc	t0,0x0
   1252c:	000280e7          	jalr	t0
   12530:	00050793          	mv	a5,a0
   12534:	00079e63          	bnez	a5,12550 <.L28>

00012538 <.LM56>:
   12538:	fec42583          	lw	a1,-20(s0)
   1253c:	fdc42503          	lw	a0,-36(s0)
   12540:	00000297          	auipc	t0,0x0
   12544:	000280e7          	jalr	t0
   12548:	00050793          	mv	a5,a0
   1254c:	0200006f          	j	1256c <.L29>

00012550 <.L28>:
   12550:	fec42783          	lw	a5,-20(s0)
   12554:	00178793          	addi	a5,a5,1
   12558:	fef42623          	sw	a5,-20(s0)

0001255c <.L27>:
   1255c:	fec42703          	lw	a4,-20(s0)
   12560:	fe842783          	lw	a5,-24(s0)
   12564:	faf744e3          	blt	a4,a5,1250c <.L30>

00012568 <.LM59>:
   12568:	00000793          	li	a5,0

0001256c <.L29>:
   1256c:	00078513          	mv	a0,a5
   12570:	02c12083          	lw	ra,44(sp)
   12574:	02812403          	lw	s0,40(sp)
   12578:	03010113          	addi	sp,sp,48
   1257c:	00008067          	ret

00012580 <elf64_getNumProgramHeaders>:
   12580:	fe010113          	addi	sp,sp,-32
   12584:	00812e23          	sw	s0,28(sp)
   12588:	02010413          	addi	s0,sp,32
   1258c:	fea42623          	sw	a0,-20(s0)

00012590 <.LM62>:
   12590:	fec42783          	lw	a5,-20(s0)
   12594:	0387d783          	lhu	a5,56(a5)

00012598 <.LM63>:
   12598:	00078513          	mv	a0,a5
   1259c:	01c12403          	lw	s0,28(sp)
   125a0:	02010113          	addi	sp,sp,32
   125a4:	00008067          	ret

000125a8 <elf64_getSegmentType>:
   125a8:	fe010113          	addi	sp,sp,-32
   125ac:	00112e23          	sw	ra,28(sp)
   125b0:	00812c23          	sw	s0,24(sp)
   125b4:	02010413          	addi	s0,sp,32
   125b8:	fea42623          	sw	a0,-20(s0)
   125bc:	feb42423          	sw	a1,-24(s0)

000125c0 <.LM65>:
   125c0:	fec42503          	lw	a0,-20(s0)
   125c4:	00000297          	auipc	t0,0x0
   125c8:	000280e7          	jalr	t0
   125cc:	00050693          	mv	a3,a0
   125d0:	fe842783          	lw	a5,-24(s0)
   125d4:	00379793          	slli	a5,a5,0x3
   125d8:	00379713          	slli	a4,a5,0x3
   125dc:	40f707b3          	sub	a5,a4,a5
   125e0:	00f687b3          	add	a5,a3,a5
   125e4:	0007a783          	lw	a5,0(a5)

000125e8 <.LM66>:
   125e8:	00078513          	mv	a0,a5
   125ec:	01c12083          	lw	ra,28(sp)
   125f0:	01812403          	lw	s0,24(sp)
   125f4:	02010113          	addi	sp,sp,32
   125f8:	00008067          	ret

000125fc <elf64_getSegmentInfo>:
   125fc:	fc010113          	addi	sp,sp,-64
   12600:	02112e23          	sw	ra,60(sp)
   12604:	02812c23          	sw	s0,56(sp)
   12608:	04010413          	addi	s0,sp,64
   1260c:	fca42e23          	sw	a0,-36(s0)
   12610:	fcb42c23          	sw	a1,-40(s0)
   12614:	fcc42a23          	sw	a2,-44(s0)
   12618:	fcd42823          	sw	a3,-48(s0)
   1261c:	fce42623          	sw	a4,-52(s0)
   12620:	fcf42423          	sw	a5,-56(s0)
   12624:	fd042223          	sw	a6,-60(s0)

00012628 <.LM68>:
   12628:	fdc42503          	lw	a0,-36(s0)
   1262c:	00000297          	auipc	t0,0x0
   12630:	000280e7          	jalr	t0
   12634:	fea42623          	sw	a0,-20(s0)

00012638 <.LM69>:
   12638:	fd842783          	lw	a5,-40(s0)
   1263c:	00379793          	slli	a5,a5,0x3
   12640:	00379713          	slli	a4,a5,0x3
   12644:	40f707b3          	sub	a5,a4,a5
   12648:	fec42703          	lw	a4,-20(s0)
   1264c:	00f707b3          	add	a5,a4,a5
   12650:	0107a703          	lw	a4,16(a5)
   12654:	0147a783          	lw	a5,20(a5)
   12658:	fd442683          	lw	a3,-44(s0)
   1265c:	00e6a023          	sw	a4,0(a3) # 0 <buf.1018>
   12660:	00f6a223          	sw	a5,4(a3)

00012664 <.LM70>:
   12664:	fd842783          	lw	a5,-40(s0)
   12668:	00379793          	slli	a5,a5,0x3
   1266c:	00379713          	slli	a4,a5,0x3
   12670:	40f707b3          	sub	a5,a4,a5
   12674:	fec42703          	lw	a4,-20(s0)
   12678:	00f707b3          	add	a5,a4,a5
   1267c:	0187a703          	lw	a4,24(a5)
   12680:	01c7a783          	lw	a5,28(a5)
   12684:	fd042683          	lw	a3,-48(s0)
   12688:	00e6a023          	sw	a4,0(a3)
   1268c:	00f6a223          	sw	a5,4(a3)

00012690 <.LM71>:
   12690:	fd842783          	lw	a5,-40(s0)
   12694:	00379793          	slli	a5,a5,0x3
   12698:	00379713          	slli	a4,a5,0x3
   1269c:	40f707b3          	sub	a5,a4,a5
   126a0:	fec42703          	lw	a4,-20(s0)
   126a4:	00f707b3          	add	a5,a4,a5
   126a8:	0207a703          	lw	a4,32(a5)
   126ac:	0247a783          	lw	a5,36(a5)
   126b0:	fcc42683          	lw	a3,-52(s0)
   126b4:	00e6a023          	sw	a4,0(a3)
   126b8:	00f6a223          	sw	a5,4(a3)

000126bc <.LM72>:
   126bc:	fd842783          	lw	a5,-40(s0)
   126c0:	00379793          	slli	a5,a5,0x3
   126c4:	00379713          	slli	a4,a5,0x3
   126c8:	40f707b3          	sub	a5,a4,a5
   126cc:	fec42703          	lw	a4,-20(s0)
   126d0:	00f707b3          	add	a5,a4,a5
   126d4:	0087a703          	lw	a4,8(a5)
   126d8:	00c7a783          	lw	a5,12(a5)
   126dc:	fc842683          	lw	a3,-56(s0)
   126e0:	00e6a023          	sw	a4,0(a3)
   126e4:	00f6a223          	sw	a5,4(a3)

000126e8 <.LM73>:
   126e8:	fd842783          	lw	a5,-40(s0)
   126ec:	00379793          	slli	a5,a5,0x3
   126f0:	00379713          	slli	a4,a5,0x3
   126f4:	40f707b3          	sub	a5,a4,a5
   126f8:	fec42703          	lw	a4,-20(s0)
   126fc:	00f707b3          	add	a5,a4,a5
   12700:	0287a703          	lw	a4,40(a5)
   12704:	02c7a783          	lw	a5,44(a5)
   12708:	fc442683          	lw	a3,-60(s0)
   1270c:	00e6a023          	sw	a4,0(a3)
   12710:	00f6a223          	sw	a5,4(a3)

00012714 <.LM74>:
   12714:	00000013          	nop
   12718:	03c12083          	lw	ra,60(sp)
   1271c:	03812403          	lw	s0,56(sp)
   12720:	04010113          	addi	sp,sp,64
   12724:	00008067          	ret

00012728 <elf64_getEntryPoint>:
   12728:	fe010113          	addi	sp,sp,-32
   1272c:	00812e23          	sw	s0,28(sp)
   12730:	02010413          	addi	s0,sp,32
   12734:	fea42623          	sw	a0,-20(s0)

00012738 <.LM76>:
   12738:	fec42783          	lw	a5,-20(s0)
   1273c:	0187a703          	lw	a4,24(a5)
   12740:	01c7a783          	lw	a5,28(a5)

00012744 <.LM77>:
   12744:	00070513          	mv	a0,a4
   12748:	00078593          	mv	a1,a5
   1274c:	01c12403          	lw	s0,28(sp)
   12750:	02010113          	addi	sp,sp,32
   12754:	00008067          	ret

00012758 <elf32_getSectionTable>:
   12758:	fe010113          	addi	sp,sp,-32
   1275c:	00812e23          	sw	s0,28(sp)
   12760:	02010413          	addi	s0,sp,32
   12764:	fea42623          	sw	a0,-20(s0)

00012768 <.LM2>:
   12768:	fec42783          	lw	a5,-20(s0)
   1276c:	0207a703          	lw	a4,32(a5)
   12770:	fec42783          	lw	a5,-20(s0)
   12774:	00f707b3          	add	a5,a4,a5

00012778 <.LM3>:
   12778:	00078513          	mv	a0,a5
   1277c:	01c12403          	lw	s0,28(sp)
   12780:	02010113          	addi	sp,sp,32
   12784:	00008067          	ret

00012788 <elf32_getSectionType>:
   12788:	fe010113          	addi	sp,sp,-32
   1278c:	00112e23          	sw	ra,28(sp)
   12790:	00812c23          	sw	s0,24(sp)
   12794:	02010413          	addi	s0,sp,32
   12798:	fea42623          	sw	a0,-20(s0)
   1279c:	00058793          	mv	a5,a1
   127a0:	fef41523          	sh	a5,-22(s0)

000127a4 <.LM5>:
   127a4:	fec42503          	lw	a0,-20(s0)
   127a8:	00000297          	auipc	t0,0x0
   127ac:	000280e7          	jalr	t0
   127b0:	00050693          	mv	a3,a0
   127b4:	fea45783          	lhu	a5,-22(s0)
   127b8:	00379793          	slli	a5,a5,0x3
   127bc:	00279713          	slli	a4,a5,0x2
   127c0:	00e787b3          	add	a5,a5,a4
   127c4:	00f687b3          	add	a5,a3,a5
   127c8:	0047a783          	lw	a5,4(a5)

000127cc <.LM6>:
   127cc:	00078513          	mv	a0,a5
   127d0:	01c12083          	lw	ra,28(sp)
   127d4:	01812403          	lw	s0,24(sp)
   127d8:	02010113          	addi	sp,sp,32
   127dc:	00008067          	ret

000127e0 <elf32_getSectionFlags>:
   127e0:	fe010113          	addi	sp,sp,-32
   127e4:	00112e23          	sw	ra,28(sp)
   127e8:	00812c23          	sw	s0,24(sp)
   127ec:	02010413          	addi	s0,sp,32
   127f0:	fea42623          	sw	a0,-20(s0)
   127f4:	00058793          	mv	a5,a1
   127f8:	fef41523          	sh	a5,-22(s0)

000127fc <.LM8>:
   127fc:	fec42503          	lw	a0,-20(s0)
   12800:	00000297          	auipc	t0,0x0
   12804:	000280e7          	jalr	t0
   12808:	00050693          	mv	a3,a0
   1280c:	fea45783          	lhu	a5,-22(s0)
   12810:	00379793          	slli	a5,a5,0x3
   12814:	00279713          	slli	a4,a5,0x2
   12818:	00e787b3          	add	a5,a5,a4
   1281c:	00f687b3          	add	a5,a3,a5
   12820:	0087a783          	lw	a5,8(a5)

00012824 <.LM9>:
   12824:	00078513          	mv	a0,a5
   12828:	01c12083          	lw	ra,28(sp)
   1282c:	01812403          	lw	s0,24(sp)
   12830:	02010113          	addi	sp,sp,32
   12834:	00008067          	ret

00012838 <elf32_getProgramHeaderTable>:
   12838:	fe010113          	addi	sp,sp,-32
   1283c:	00812e23          	sw	s0,28(sp)
   12840:	02010413          	addi	s0,sp,32
   12844:	fea42623          	sw	a0,-20(s0)

00012848 <.LM11>:
   12848:	fec42783          	lw	a5,-20(s0)
   1284c:	01c7a703          	lw	a4,28(a5)
   12850:	fec42783          	lw	a5,-20(s0)
   12854:	00f707b3          	add	a5,a4,a5

00012858 <.LM12>:
   12858:	00078513          	mv	a0,a5
   1285c:	01c12403          	lw	s0,28(sp)
   12860:	02010113          	addi	sp,sp,32
   12864:	00008067          	ret

00012868 <elf32_getProgramHeaderFlags>:
   12868:	fe010113          	addi	sp,sp,-32
   1286c:	00112e23          	sw	ra,28(sp)
   12870:	00812c23          	sw	s0,24(sp)
   12874:	02010413          	addi	s0,sp,32
   12878:	fea42623          	sw	a0,-20(s0)
   1287c:	00058793          	mv	a5,a1
   12880:	fef41523          	sh	a5,-22(s0)

00012884 <.LM14>:
   12884:	fec42503          	lw	a0,-20(s0)
   12888:	00000297          	auipc	t0,0x0
   1288c:	000280e7          	jalr	t0
   12890:	00050713          	mv	a4,a0
   12894:	fea45783          	lhu	a5,-22(s0)
   12898:	00579793          	slli	a5,a5,0x5
   1289c:	00f707b3          	add	a5,a4,a5
   128a0:	0187a783          	lw	a5,24(a5)

000128a4 <.LM15>:
   128a4:	00078513          	mv	a0,a5
   128a8:	01c12083          	lw	ra,28(sp)
   128ac:	01812403          	lw	s0,24(sp)
   128b0:	02010113          	addi	sp,sp,32
   128b4:	00008067          	ret

000128b8 <elf32_getProgramHeaderType>:
   128b8:	fe010113          	addi	sp,sp,-32
   128bc:	00112e23          	sw	ra,28(sp)
   128c0:	00812c23          	sw	s0,24(sp)
   128c4:	02010413          	addi	s0,sp,32
   128c8:	fea42623          	sw	a0,-20(s0)
   128cc:	00058793          	mv	a5,a1
   128d0:	fef41523          	sh	a5,-22(s0)

000128d4 <.LM17>:
   128d4:	fec42503          	lw	a0,-20(s0)
   128d8:	00000297          	auipc	t0,0x0
   128dc:	000280e7          	jalr	t0
   128e0:	00050713          	mv	a4,a0
   128e4:	fea45783          	lhu	a5,-22(s0)
   128e8:	00579793          	slli	a5,a5,0x5
   128ec:	00f707b3          	add	a5,a4,a5
   128f0:	0007a783          	lw	a5,0(a5)

000128f4 <.LM18>:
   128f4:	00078513          	mv	a0,a5
   128f8:	01c12083          	lw	ra,28(sp)
   128fc:	01812403          	lw	s0,24(sp)
   12900:	02010113          	addi	sp,sp,32
   12904:	00008067          	ret

00012908 <elf32_getProgramHeaderFileSize>:
   12908:	fe010113          	addi	sp,sp,-32
   1290c:	00112e23          	sw	ra,28(sp)
   12910:	00812c23          	sw	s0,24(sp)
   12914:	02010413          	addi	s0,sp,32
   12918:	fea42623          	sw	a0,-20(s0)
   1291c:	00058793          	mv	a5,a1
   12920:	fef41523          	sh	a5,-22(s0)

00012924 <.LM20>:
   12924:	fec42503          	lw	a0,-20(s0)
   12928:	00000297          	auipc	t0,0x0
   1292c:	000280e7          	jalr	t0
   12930:	00050713          	mv	a4,a0
   12934:	fea45783          	lhu	a5,-22(s0)
   12938:	00579793          	slli	a5,a5,0x5
   1293c:	00f707b3          	add	a5,a4,a5
   12940:	0107a783          	lw	a5,16(a5)

00012944 <.LM21>:
   12944:	00078513          	mv	a0,a5
   12948:	01c12083          	lw	ra,28(sp)
   1294c:	01812403          	lw	s0,24(sp)
   12950:	02010113          	addi	sp,sp,32
   12954:	00008067          	ret

00012958 <elf32_getProgramHeaderMemorySize>:
   12958:	fe010113          	addi	sp,sp,-32
   1295c:	00112e23          	sw	ra,28(sp)
   12960:	00812c23          	sw	s0,24(sp)
   12964:	02010413          	addi	s0,sp,32
   12968:	fea42623          	sw	a0,-20(s0)
   1296c:	00058793          	mv	a5,a1
   12970:	fef41523          	sh	a5,-22(s0)

00012974 <.LM23>:
   12974:	fec42503          	lw	a0,-20(s0)
   12978:	00000297          	auipc	t0,0x0
   1297c:	000280e7          	jalr	t0
   12980:	00050713          	mv	a4,a0
   12984:	fea45783          	lhu	a5,-22(s0)
   12988:	00579793          	slli	a5,a5,0x5
   1298c:	00f707b3          	add	a5,a4,a5
   12990:	0147a783          	lw	a5,20(a5)

00012994 <.LM24>:
   12994:	00078513          	mv	a0,a5
   12998:	01c12083          	lw	ra,28(sp)
   1299c:	01812403          	lw	s0,24(sp)
   129a0:	02010113          	addi	sp,sp,32
   129a4:	00008067          	ret

000129a8 <elf32_getProgramHeaderVaddr>:
   129a8:	fe010113          	addi	sp,sp,-32
   129ac:	00112e23          	sw	ra,28(sp)
   129b0:	00812c23          	sw	s0,24(sp)
   129b4:	02010413          	addi	s0,sp,32
   129b8:	fea42623          	sw	a0,-20(s0)
   129bc:	00058793          	mv	a5,a1
   129c0:	fef41523          	sh	a5,-22(s0)

000129c4 <.LM26>:
   129c4:	fec42503          	lw	a0,-20(s0)
   129c8:	00000297          	auipc	t0,0x0
   129cc:	000280e7          	jalr	t0
   129d0:	00050713          	mv	a4,a0
   129d4:	fea45783          	lhu	a5,-22(s0)
   129d8:	00579793          	slli	a5,a5,0x5
   129dc:	00f707b3          	add	a5,a4,a5
   129e0:	0087a783          	lw	a5,8(a5)

000129e4 <.LM27>:
   129e4:	00078513          	mv	a0,a5
   129e8:	01c12083          	lw	ra,28(sp)
   129ec:	01812403          	lw	s0,24(sp)
   129f0:	02010113          	addi	sp,sp,32
   129f4:	00008067          	ret

000129f8 <elf32_getProgramHeaderPaddr>:
   129f8:	fe010113          	addi	sp,sp,-32
   129fc:	00112e23          	sw	ra,28(sp)
   12a00:	00812c23          	sw	s0,24(sp)
   12a04:	02010413          	addi	s0,sp,32
   12a08:	fea42623          	sw	a0,-20(s0)
   12a0c:	00058793          	mv	a5,a1
   12a10:	fef41523          	sh	a5,-22(s0)

00012a14 <.LM29>:
   12a14:	fec42503          	lw	a0,-20(s0)
   12a18:	00000297          	auipc	t0,0x0
   12a1c:	000280e7          	jalr	t0
   12a20:	00050713          	mv	a4,a0
   12a24:	fea45783          	lhu	a5,-22(s0)
   12a28:	00579793          	slli	a5,a5,0x5
   12a2c:	00f707b3          	add	a5,a4,a5
   12a30:	00c7a783          	lw	a5,12(a5)

00012a34 <.LM30>:
   12a34:	00078513          	mv	a0,a5
   12a38:	01c12083          	lw	ra,28(sp)
   12a3c:	01812403          	lw	s0,24(sp)
   12a40:	02010113          	addi	sp,sp,32
   12a44:	00008067          	ret

00012a48 <elf32_getProgramHeaderOffset>:
   12a48:	fe010113          	addi	sp,sp,-32
   12a4c:	00112e23          	sw	ra,28(sp)
   12a50:	00812c23          	sw	s0,24(sp)
   12a54:	02010413          	addi	s0,sp,32
   12a58:	fea42623          	sw	a0,-20(s0)
   12a5c:	00058793          	mv	a5,a1
   12a60:	fef41523          	sh	a5,-22(s0)

00012a64 <.LM32>:
   12a64:	fec42503          	lw	a0,-20(s0)
   12a68:	00000297          	auipc	t0,0x0
   12a6c:	000280e7          	jalr	t0
   12a70:	00050713          	mv	a4,a0
   12a74:	fea45783          	lhu	a5,-22(s0)
   12a78:	00579793          	slli	a5,a5,0x5
   12a7c:	00f707b3          	add	a5,a4,a5
   12a80:	0047a783          	lw	a5,4(a5)

00012a84 <.LM33>:
   12a84:	00078513          	mv	a0,a5
   12a88:	01c12083          	lw	ra,28(sp)
   12a8c:	01812403          	lw	s0,24(sp)
   12a90:	02010113          	addi	sp,sp,32
   12a94:	00008067          	ret

00012a98 <elf64_getSectionTable>:
   12a98:	fe010113          	addi	sp,sp,-32
   12a9c:	00812e23          	sw	s0,28(sp)
   12aa0:	02010413          	addi	s0,sp,32
   12aa4:	fea42623          	sw	a0,-20(s0)

00012aa8 <.LM35>:
   12aa8:	fec42783          	lw	a5,-20(s0)
   12aac:	0287a703          	lw	a4,40(a5)
   12ab0:	02c7a783          	lw	a5,44(a5)
   12ab4:	fec42783          	lw	a5,-20(s0)
   12ab8:	00f707b3          	add	a5,a4,a5

00012abc <.LM36>:
   12abc:	00078513          	mv	a0,a5
   12ac0:	01c12403          	lw	s0,28(sp)
   12ac4:	02010113          	addi	sp,sp,32
   12ac8:	00008067          	ret

00012acc <elf64_getSectionType>:
   12acc:	fe010113          	addi	sp,sp,-32
   12ad0:	00112e23          	sw	ra,28(sp)
   12ad4:	00812c23          	sw	s0,24(sp)
   12ad8:	02010413          	addi	s0,sp,32
   12adc:	fea42623          	sw	a0,-20(s0)
   12ae0:	00058793          	mv	a5,a1
   12ae4:	fef41523          	sh	a5,-22(s0)

00012ae8 <.LM38>:
   12ae8:	fec42503          	lw	a0,-20(s0)
   12aec:	00000297          	auipc	t0,0x0
   12af0:	000280e7          	jalr	t0
   12af4:	00050713          	mv	a4,a0
   12af8:	fea45783          	lhu	a5,-22(s0)
   12afc:	00679793          	slli	a5,a5,0x6
   12b00:	00f707b3          	add	a5,a4,a5
   12b04:	0047a783          	lw	a5,4(a5)

00012b08 <.LM39>:
   12b08:	00078513          	mv	a0,a5
   12b0c:	01c12083          	lw	ra,28(sp)
   12b10:	01812403          	lw	s0,24(sp)
   12b14:	02010113          	addi	sp,sp,32
   12b18:	00008067          	ret

00012b1c <elf64_getSectionFlags>:
   12b1c:	fe010113          	addi	sp,sp,-32
   12b20:	00112e23          	sw	ra,28(sp)
   12b24:	00812c23          	sw	s0,24(sp)
   12b28:	02010413          	addi	s0,sp,32
   12b2c:	fea42623          	sw	a0,-20(s0)
   12b30:	00058793          	mv	a5,a1
   12b34:	fef41523          	sh	a5,-22(s0)

00012b38 <.LM41>:
   12b38:	fec42503          	lw	a0,-20(s0)
   12b3c:	00000297          	auipc	t0,0x0
   12b40:	000280e7          	jalr	t0
   12b44:	00050713          	mv	a4,a0
   12b48:	fea45783          	lhu	a5,-22(s0)
   12b4c:	00679793          	slli	a5,a5,0x6
   12b50:	00f707b3          	add	a5,a4,a5
   12b54:	0087a703          	lw	a4,8(a5)
   12b58:	00c7a783          	lw	a5,12(a5)
   12b5c:	00070793          	mv	a5,a4

00012b60 <.LM42>:
   12b60:	00078513          	mv	a0,a5
   12b64:	01c12083          	lw	ra,28(sp)
   12b68:	01812403          	lw	s0,24(sp)
   12b6c:	02010113          	addi	sp,sp,32
   12b70:	00008067          	ret

00012b74 <elf64_getProgramHeaderTable>:
   12b74:	fe010113          	addi	sp,sp,-32
   12b78:	00812e23          	sw	s0,28(sp)
   12b7c:	02010413          	addi	s0,sp,32
   12b80:	fea42623          	sw	a0,-20(s0)

00012b84 <.LM44>:
   12b84:	fec42783          	lw	a5,-20(s0)
   12b88:	0207a703          	lw	a4,32(a5)
   12b8c:	0247a783          	lw	a5,36(a5)
   12b90:	fec42783          	lw	a5,-20(s0)
   12b94:	00f707b3          	add	a5,a4,a5

00012b98 <.LM45>:
   12b98:	00078513          	mv	a0,a5
   12b9c:	01c12403          	lw	s0,28(sp)
   12ba0:	02010113          	addi	sp,sp,32
   12ba4:	00008067          	ret

00012ba8 <elf64_getProgramHeaderFlags>:
   12ba8:	fe010113          	addi	sp,sp,-32
   12bac:	00112e23          	sw	ra,28(sp)
   12bb0:	00812c23          	sw	s0,24(sp)
   12bb4:	02010413          	addi	s0,sp,32
   12bb8:	fea42623          	sw	a0,-20(s0)
   12bbc:	00058793          	mv	a5,a1
   12bc0:	fef41523          	sh	a5,-22(s0)

00012bc4 <.LM47>:
   12bc4:	fec42503          	lw	a0,-20(s0)
   12bc8:	00000297          	auipc	t0,0x0
   12bcc:	000280e7          	jalr	t0
   12bd0:	00050693          	mv	a3,a0
   12bd4:	fea45783          	lhu	a5,-22(s0)
   12bd8:	00379793          	slli	a5,a5,0x3
   12bdc:	00379713          	slli	a4,a5,0x3
   12be0:	40f707b3          	sub	a5,a4,a5
   12be4:	00f687b3          	add	a5,a3,a5
   12be8:	0047a783          	lw	a5,4(a5)

00012bec <.LM48>:
   12bec:	00078513          	mv	a0,a5
   12bf0:	01c12083          	lw	ra,28(sp)
   12bf4:	01812403          	lw	s0,24(sp)
   12bf8:	02010113          	addi	sp,sp,32
   12bfc:	00008067          	ret

00012c00 <elf64_getProgramHeaderType>:
   12c00:	fe010113          	addi	sp,sp,-32
   12c04:	00112e23          	sw	ra,28(sp)
   12c08:	00812c23          	sw	s0,24(sp)
   12c0c:	02010413          	addi	s0,sp,32
   12c10:	fea42623          	sw	a0,-20(s0)
   12c14:	00058793          	mv	a5,a1
   12c18:	fef41523          	sh	a5,-22(s0)

00012c1c <.LM50>:
   12c1c:	fec42503          	lw	a0,-20(s0)
   12c20:	00000297          	auipc	t0,0x0
   12c24:	000280e7          	jalr	t0
   12c28:	00050693          	mv	a3,a0
   12c2c:	fea45783          	lhu	a5,-22(s0)
   12c30:	00379793          	slli	a5,a5,0x3
   12c34:	00379713          	slli	a4,a5,0x3
   12c38:	40f707b3          	sub	a5,a4,a5
   12c3c:	00f687b3          	add	a5,a3,a5
   12c40:	0007a783          	lw	a5,0(a5)

00012c44 <.LM51>:
   12c44:	00078513          	mv	a0,a5
   12c48:	01c12083          	lw	ra,28(sp)
   12c4c:	01812403          	lw	s0,24(sp)
   12c50:	02010113          	addi	sp,sp,32
   12c54:	00008067          	ret

00012c58 <elf64_getProgramHeaderFileSize>:
   12c58:	fe010113          	addi	sp,sp,-32
   12c5c:	00112e23          	sw	ra,28(sp)
   12c60:	00812c23          	sw	s0,24(sp)
   12c64:	02010413          	addi	s0,sp,32
   12c68:	fea42623          	sw	a0,-20(s0)
   12c6c:	00058793          	mv	a5,a1
   12c70:	fef41523          	sh	a5,-22(s0)

00012c74 <.LM53>:
   12c74:	fec42503          	lw	a0,-20(s0)
   12c78:	00000297          	auipc	t0,0x0
   12c7c:	000280e7          	jalr	t0
   12c80:	00050693          	mv	a3,a0
   12c84:	fea45783          	lhu	a5,-22(s0)
   12c88:	00379793          	slli	a5,a5,0x3
   12c8c:	00379713          	slli	a4,a5,0x3
   12c90:	40f707b3          	sub	a5,a4,a5
   12c94:	00f687b3          	add	a5,a3,a5
   12c98:	0207a703          	lw	a4,32(a5)
   12c9c:	0247a783          	lw	a5,36(a5)

00012ca0 <.LM54>:
   12ca0:	00070513          	mv	a0,a4
   12ca4:	00078593          	mv	a1,a5
   12ca8:	01c12083          	lw	ra,28(sp)
   12cac:	01812403          	lw	s0,24(sp)
   12cb0:	02010113          	addi	sp,sp,32
   12cb4:	00008067          	ret

00012cb8 <elf64_getProgramHeaderMemorySize>:
   12cb8:	fe010113          	addi	sp,sp,-32
   12cbc:	00112e23          	sw	ra,28(sp)
   12cc0:	00812c23          	sw	s0,24(sp)
   12cc4:	02010413          	addi	s0,sp,32
   12cc8:	fea42623          	sw	a0,-20(s0)
   12ccc:	00058793          	mv	a5,a1
   12cd0:	fef41523          	sh	a5,-22(s0)

00012cd4 <.LM56>:
   12cd4:	fec42503          	lw	a0,-20(s0)
   12cd8:	00000297          	auipc	t0,0x0
   12cdc:	000280e7          	jalr	t0
   12ce0:	00050693          	mv	a3,a0
   12ce4:	fea45783          	lhu	a5,-22(s0)
   12ce8:	00379793          	slli	a5,a5,0x3
   12cec:	00379713          	slli	a4,a5,0x3
   12cf0:	40f707b3          	sub	a5,a4,a5
   12cf4:	00f687b3          	add	a5,a3,a5
   12cf8:	0287a703          	lw	a4,40(a5)
   12cfc:	02c7a783          	lw	a5,44(a5)

00012d00 <.LM57>:
   12d00:	00070513          	mv	a0,a4
   12d04:	00078593          	mv	a1,a5
   12d08:	01c12083          	lw	ra,28(sp)
   12d0c:	01812403          	lw	s0,24(sp)
   12d10:	02010113          	addi	sp,sp,32
   12d14:	00008067          	ret

00012d18 <elf64_getProgramHeaderVaddr>:
   12d18:	fe010113          	addi	sp,sp,-32
   12d1c:	00112e23          	sw	ra,28(sp)
   12d20:	00812c23          	sw	s0,24(sp)
   12d24:	02010413          	addi	s0,sp,32
   12d28:	fea42623          	sw	a0,-20(s0)
   12d2c:	00058793          	mv	a5,a1
   12d30:	fef41523          	sh	a5,-22(s0)

00012d34 <.LM59>:
   12d34:	fec42503          	lw	a0,-20(s0)
   12d38:	00000297          	auipc	t0,0x0
   12d3c:	000280e7          	jalr	t0
   12d40:	00050693          	mv	a3,a0
   12d44:	fea45783          	lhu	a5,-22(s0)
   12d48:	00379793          	slli	a5,a5,0x3
   12d4c:	00379713          	slli	a4,a5,0x3
   12d50:	40f707b3          	sub	a5,a4,a5
   12d54:	00f687b3          	add	a5,a3,a5
   12d58:	0107a703          	lw	a4,16(a5)
   12d5c:	0147a783          	lw	a5,20(a5)

00012d60 <.LM60>:
   12d60:	00070513          	mv	a0,a4
   12d64:	00078593          	mv	a1,a5
   12d68:	01c12083          	lw	ra,28(sp)
   12d6c:	01812403          	lw	s0,24(sp)
   12d70:	02010113          	addi	sp,sp,32
   12d74:	00008067          	ret

00012d78 <elf64_getProgramHeaderPaddr>:
   12d78:	fe010113          	addi	sp,sp,-32
   12d7c:	00112e23          	sw	ra,28(sp)
   12d80:	00812c23          	sw	s0,24(sp)
   12d84:	02010413          	addi	s0,sp,32
   12d88:	fea42623          	sw	a0,-20(s0)
   12d8c:	00058793          	mv	a5,a1
   12d90:	fef41523          	sh	a5,-22(s0)

00012d94 <.LM62>:
   12d94:	fec42503          	lw	a0,-20(s0)
   12d98:	00000297          	auipc	t0,0x0
   12d9c:	000280e7          	jalr	t0
   12da0:	00050693          	mv	a3,a0
   12da4:	fea45783          	lhu	a5,-22(s0)
   12da8:	00379793          	slli	a5,a5,0x3
   12dac:	00379713          	slli	a4,a5,0x3
   12db0:	40f707b3          	sub	a5,a4,a5
   12db4:	00f687b3          	add	a5,a3,a5
   12db8:	0187a703          	lw	a4,24(a5)
   12dbc:	01c7a783          	lw	a5,28(a5)

00012dc0 <.LM63>:
   12dc0:	00070513          	mv	a0,a4
   12dc4:	00078593          	mv	a1,a5
   12dc8:	01c12083          	lw	ra,28(sp)
   12dcc:	01812403          	lw	s0,24(sp)
   12dd0:	02010113          	addi	sp,sp,32
   12dd4:	00008067          	ret

00012dd8 <elf64_getProgramHeaderOffset>:
   12dd8:	fe010113          	addi	sp,sp,-32
   12ddc:	00112e23          	sw	ra,28(sp)
   12de0:	00812c23          	sw	s0,24(sp)
   12de4:	02010413          	addi	s0,sp,32
   12de8:	fea42623          	sw	a0,-20(s0)
   12dec:	00058793          	mv	a5,a1
   12df0:	fef41523          	sh	a5,-22(s0)

00012df4 <.LM65>:
   12df4:	fec42503          	lw	a0,-20(s0)
   12df8:	00000297          	auipc	t0,0x0
   12dfc:	000280e7          	jalr	t0
   12e00:	00050693          	mv	a3,a0
   12e04:	fea45783          	lhu	a5,-22(s0)
   12e08:	00379793          	slli	a5,a5,0x3
   12e0c:	00379713          	slli	a4,a5,0x3
   12e10:	40f707b3          	sub	a5,a4,a5
   12e14:	00f687b3          	add	a5,a3,a5
   12e18:	0087a703          	lw	a4,8(a5)
   12e1c:	00c7a783          	lw	a5,12(a5)

00012e20 <.LM66>:
   12e20:	00070513          	mv	a0,a4
   12e24:	00078593          	mv	a1,a5
   12e28:	01c12083          	lw	ra,28(sp)
   12e2c:	01812403          	lw	s0,24(sp)
   12e30:	02010113          	addi	sp,sp,32
   12e34:	00008067          	ret

00012e38 <elf_checkFile>:
   12e38:	fe010113          	addi	sp,sp,-32
   12e3c:	00112e23          	sw	ra,28(sp)
   12e40:	00812c23          	sw	s0,24(sp)
   12e44:	02010413          	addi	s0,sp,32
   12e48:	fea42623          	sw	a0,-20(s0)

00012e4c <.LM68>:
   12e4c:	fec42783          	lw	a5,-20(s0)
   12e50:	0047c703          	lbu	a4,4(a5)

00012e54 <.LM69>:
   12e54:	00100793          	li	a5,1
   12e58:	00f71c63          	bne	a4,a5,12e70 <.L46>

00012e5c <.LM70>:
   12e5c:	fec42503          	lw	a0,-20(s0)
   12e60:	00000297          	auipc	t0,0x0
   12e64:	000280e7          	jalr	t0
   12e68:	00050793          	mv	a5,a0

00012e6c <.LM71>:
   12e6c:	0140006f          	j	12e80 <.L48>

00012e70 <.L46>:
   12e70:	fec42503          	lw	a0,-20(s0)
   12e74:	00000297          	auipc	t0,0x0
   12e78:	000280e7          	jalr	t0
   12e7c:	00050793          	mv	a5,a0

00012e80 <.L48>:
   12e80:	00078513          	mv	a0,a5
   12e84:	01c12083          	lw	ra,28(sp)
   12e88:	01812403          	lw	s0,24(sp)
   12e8c:	02010113          	addi	sp,sp,32
   12e90:	00008067          	ret

00012e94 <elf_getNumProgramHeaders>:
   12e94:	fe010113          	addi	sp,sp,-32
   12e98:	00112e23          	sw	ra,28(sp)
   12e9c:	00812c23          	sw	s0,24(sp)
   12ea0:	02010413          	addi	s0,sp,32
   12ea4:	fea42623          	sw	a0,-20(s0)

00012ea8 <.LM75>:
   12ea8:	fec42783          	lw	a5,-20(s0)
   12eac:	0047c703          	lbu	a4,4(a5)
   12eb0:	00100793          	li	a5,1
   12eb4:	00f71c63          	bne	a4,a5,12ecc <.L50>

00012eb8 <.LM76>:
   12eb8:	fec42503          	lw	a0,-20(s0)
   12ebc:	00000297          	auipc	t0,0x0
   12ec0:	000280e7          	jalr	t0
   12ec4:	00050793          	mv	a5,a0
   12ec8:	0140006f          	j	12edc <.L51>

00012ecc <.L50>:
   12ecc:	fec42503          	lw	a0,-20(s0)
   12ed0:	00000297          	auipc	t0,0x0
   12ed4:	000280e7          	jalr	t0
   12ed8:	00050793          	mv	a5,a0

00012edc <.L51>:
   12edc:	00078513          	mv	a0,a5
   12ee0:	01c12083          	lw	ra,28(sp)
   12ee4:	01812403          	lw	s0,24(sp)
   12ee8:	02010113          	addi	sp,sp,32
   12eec:	00008067          	ret

00012ef0 <elf_getProgramHeaderFlags>:
   12ef0:	fe010113          	addi	sp,sp,-32
   12ef4:	00112e23          	sw	ra,28(sp)
   12ef8:	00812c23          	sw	s0,24(sp)
   12efc:	02010413          	addi	s0,sp,32
   12f00:	fea42623          	sw	a0,-20(s0)
   12f04:	00058793          	mv	a5,a1
   12f08:	fef41523          	sh	a5,-22(s0)

00012f0c <.LM80>:
   12f0c:	fec42783          	lw	a5,-20(s0)
   12f10:	0047c703          	lbu	a4,4(a5)

00012f14 <.LM81>:
   12f14:	00100793          	li	a5,1
   12f18:	02f71063          	bne	a4,a5,12f38 <.L54>

00012f1c <.LM82>:
   12f1c:	fea45783          	lhu	a5,-22(s0)
   12f20:	00078593          	mv	a1,a5
   12f24:	fec42503          	lw	a0,-20(s0)
   12f28:	00000297          	auipc	t0,0x0
   12f2c:	000280e7          	jalr	t0
   12f30:	00050793          	mv	a5,a0

00012f34 <.LM83>:
   12f34:	01c0006f          	j	12f50 <.L56>

00012f38 <.L54>:
   12f38:	fea45783          	lhu	a5,-22(s0)
   12f3c:	00078593          	mv	a1,a5
   12f40:	fec42503          	lw	a0,-20(s0)
   12f44:	00000297          	auipc	t0,0x0
   12f48:	000280e7          	jalr	t0
   12f4c:	00050793          	mv	a5,a0

00012f50 <.L56>:
   12f50:	00078513          	mv	a0,a5
   12f54:	01c12083          	lw	ra,28(sp)
   12f58:	01812403          	lw	s0,24(sp)
   12f5c:	02010113          	addi	sp,sp,32
   12f60:	00008067          	ret

00012f64 <elf_getProgramHeaderType>:
   12f64:	fe010113          	addi	sp,sp,-32
   12f68:	00112e23          	sw	ra,28(sp)
   12f6c:	00812c23          	sw	s0,24(sp)
   12f70:	02010413          	addi	s0,sp,32
   12f74:	fea42623          	sw	a0,-20(s0)
   12f78:	00058793          	mv	a5,a1
   12f7c:	fef41523          	sh	a5,-22(s0)

00012f80 <.LM87>:
   12f80:	fec42783          	lw	a5,-20(s0)
   12f84:	0047c703          	lbu	a4,4(a5)

00012f88 <.LM88>:
   12f88:	00100793          	li	a5,1
   12f8c:	02f71063          	bne	a4,a5,12fac <.L58>

00012f90 <.LM89>:
   12f90:	fea45783          	lhu	a5,-22(s0)
   12f94:	00078593          	mv	a1,a5
   12f98:	fec42503          	lw	a0,-20(s0)
   12f9c:	00000297          	auipc	t0,0x0
   12fa0:	000280e7          	jalr	t0
   12fa4:	00050793          	mv	a5,a0

00012fa8 <.LM90>:
   12fa8:	01c0006f          	j	12fc4 <.L60>

00012fac <.L58>:
   12fac:	fea45783          	lhu	a5,-22(s0)
   12fb0:	00078593          	mv	a1,a5
   12fb4:	fec42503          	lw	a0,-20(s0)
   12fb8:	00000297          	auipc	t0,0x0
   12fbc:	000280e7          	jalr	t0
   12fc0:	00050793          	mv	a5,a0

00012fc4 <.L60>:
   12fc4:	00078513          	mv	a0,a5
   12fc8:	01c12083          	lw	ra,28(sp)
   12fcc:	01812403          	lw	s0,24(sp)
   12fd0:	02010113          	addi	sp,sp,32
   12fd4:	00008067          	ret

00012fd8 <elf_getProgramHeaderPaddr>:
   12fd8:	fe010113          	addi	sp,sp,-32
   12fdc:	00112e23          	sw	ra,28(sp)
   12fe0:	00812c23          	sw	s0,24(sp)
   12fe4:	01212a23          	sw	s2,20(sp)
   12fe8:	01312823          	sw	s3,16(sp)
   12fec:	02010413          	addi	s0,sp,32
   12ff0:	fea42623          	sw	a0,-20(s0)
   12ff4:	00058793          	mv	a5,a1
   12ff8:	fef41523          	sh	a5,-22(s0)

00012ffc <.LM94>:
   12ffc:	fec42783          	lw	a5,-20(s0)
   13000:	0047c703          	lbu	a4,4(a5)

00013004 <.LM95>:
   13004:	00100793          	li	a5,1
   13008:	02f71463          	bne	a4,a5,13030 <.L62>

0001300c <.LM96>:
   1300c:	fea45783          	lhu	a5,-22(s0)
   13010:	00078593          	mv	a1,a5
   13014:	fec42503          	lw	a0,-20(s0)
   13018:	00000297          	auipc	t0,0x0
   1301c:	000280e7          	jalr	t0
   13020:	00050793          	mv	a5,a0

00013024 <.LM97>:
   13024:	00078913          	mv	s2,a5
   13028:	00000993          	li	s3,0

0001302c <.LM98>:
   1302c:	0200006f          	j	1304c <.L64>

00013030 <.L62>:
   13030:	fea45783          	lhu	a5,-22(s0)
   13034:	00078593          	mv	a1,a5
   13038:	fec42503          	lw	a0,-20(s0)
   1303c:	00000297          	auipc	t0,0x0
   13040:	000280e7          	jalr	t0
   13044:	00050913          	mv	s2,a0
   13048:	00058993          	mv	s3,a1

0001304c <.L64>:
   1304c:	00090713          	mv	a4,s2
   13050:	00098793          	mv	a5,s3

00013054 <.LM101>:
   13054:	00070513          	mv	a0,a4
   13058:	00078593          	mv	a1,a5
   1305c:	01c12083          	lw	ra,28(sp)
   13060:	01812403          	lw	s0,24(sp)
   13064:	01412903          	lw	s2,20(sp)
   13068:	01012983          	lw	s3,16(sp)
   1306c:	02010113          	addi	sp,sp,32
   13070:	00008067          	ret

00013074 <elf_getProgramHeaderVaddr>:
   13074:	fe010113          	addi	sp,sp,-32
   13078:	00112e23          	sw	ra,28(sp)
   1307c:	00812c23          	sw	s0,24(sp)
   13080:	01212a23          	sw	s2,20(sp)
   13084:	01312823          	sw	s3,16(sp)
   13088:	02010413          	addi	s0,sp,32
   1308c:	fea42623          	sw	a0,-20(s0)
   13090:	00058793          	mv	a5,a1
   13094:	fef41523          	sh	a5,-22(s0)

00013098 <.LM103>:
   13098:	fec42783          	lw	a5,-20(s0)
   1309c:	0047c703          	lbu	a4,4(a5)

000130a0 <.LM104>:
   130a0:	00100793          	li	a5,1
   130a4:	02f71463          	bne	a4,a5,130cc <.L66>

000130a8 <.LM105>:
   130a8:	fea45783          	lhu	a5,-22(s0)
   130ac:	00078593          	mv	a1,a5
   130b0:	fec42503          	lw	a0,-20(s0)
   130b4:	00000297          	auipc	t0,0x0
   130b8:	000280e7          	jalr	t0
   130bc:	00050793          	mv	a5,a0

000130c0 <.LM106>:
   130c0:	00078913          	mv	s2,a5
   130c4:	00000993          	li	s3,0

000130c8 <.LM107>:
   130c8:	0200006f          	j	130e8 <.L68>

000130cc <.L66>:
   130cc:	fea45783          	lhu	a5,-22(s0)
   130d0:	00078593          	mv	a1,a5
   130d4:	fec42503          	lw	a0,-20(s0)
   130d8:	00000297          	auipc	t0,0x0
   130dc:	000280e7          	jalr	t0
   130e0:	00050913          	mv	s2,a0
   130e4:	00058993          	mv	s3,a1

000130e8 <.L68>:
   130e8:	00090713          	mv	a4,s2
   130ec:	00098793          	mv	a5,s3

000130f0 <.LM110>:
   130f0:	00070513          	mv	a0,a4
   130f4:	00078593          	mv	a1,a5
   130f8:	01c12083          	lw	ra,28(sp)
   130fc:	01812403          	lw	s0,24(sp)
   13100:	01412903          	lw	s2,20(sp)
   13104:	01012983          	lw	s3,16(sp)
   13108:	02010113          	addi	sp,sp,32
   1310c:	00008067          	ret

00013110 <elf_getProgramHeaderMemorySize>:
   13110:	fe010113          	addi	sp,sp,-32
   13114:	00112e23          	sw	ra,28(sp)
   13118:	00812c23          	sw	s0,24(sp)
   1311c:	01212a23          	sw	s2,20(sp)
   13120:	01312823          	sw	s3,16(sp)
   13124:	02010413          	addi	s0,sp,32
   13128:	fea42623          	sw	a0,-20(s0)
   1312c:	00058793          	mv	a5,a1
   13130:	fef41523          	sh	a5,-22(s0)

00013134 <.LM112>:
   13134:	fec42783          	lw	a5,-20(s0)
   13138:	0047c703          	lbu	a4,4(a5)

0001313c <.LM113>:
   1313c:	00100793          	li	a5,1
   13140:	02f71463          	bne	a4,a5,13168 <.L70>

00013144 <.LM114>:
   13144:	fea45783          	lhu	a5,-22(s0)
   13148:	00078593          	mv	a1,a5
   1314c:	fec42503          	lw	a0,-20(s0)
   13150:	00000297          	auipc	t0,0x0
   13154:	000280e7          	jalr	t0
   13158:	00050793          	mv	a5,a0

0001315c <.LM115>:
   1315c:	00078913          	mv	s2,a5
   13160:	00000993          	li	s3,0

00013164 <.LM116>:
   13164:	0200006f          	j	13184 <.L72>

00013168 <.L70>:
   13168:	fea45783          	lhu	a5,-22(s0)
   1316c:	00078593          	mv	a1,a5
   13170:	fec42503          	lw	a0,-20(s0)
   13174:	00000297          	auipc	t0,0x0
   13178:	000280e7          	jalr	t0
   1317c:	00050913          	mv	s2,a0
   13180:	00058993          	mv	s3,a1

00013184 <.L72>:
   13184:	00090713          	mv	a4,s2
   13188:	00098793          	mv	a5,s3

0001318c <.LM119>:
   1318c:	00070513          	mv	a0,a4
   13190:	00078593          	mv	a1,a5
   13194:	01c12083          	lw	ra,28(sp)
   13198:	01812403          	lw	s0,24(sp)
   1319c:	01412903          	lw	s2,20(sp)
   131a0:	01012983          	lw	s3,16(sp)
   131a4:	02010113          	addi	sp,sp,32
   131a8:	00008067          	ret

000131ac <elf_getProgramHeaderFileSize>:
   131ac:	fe010113          	addi	sp,sp,-32
   131b0:	00112e23          	sw	ra,28(sp)
   131b4:	00812c23          	sw	s0,24(sp)
   131b8:	01212a23          	sw	s2,20(sp)
   131bc:	01312823          	sw	s3,16(sp)
   131c0:	02010413          	addi	s0,sp,32
   131c4:	fea42623          	sw	a0,-20(s0)
   131c8:	00058793          	mv	a5,a1
   131cc:	fef41523          	sh	a5,-22(s0)

000131d0 <.LM121>:
   131d0:	fec42783          	lw	a5,-20(s0)
   131d4:	0047c703          	lbu	a4,4(a5)

000131d8 <.LM122>:
   131d8:	00100793          	li	a5,1
   131dc:	02f71463          	bne	a4,a5,13204 <.L74>

000131e0 <.LM123>:
   131e0:	fea45783          	lhu	a5,-22(s0)
   131e4:	00078593          	mv	a1,a5
   131e8:	fec42503          	lw	a0,-20(s0)
   131ec:	00000297          	auipc	t0,0x0
   131f0:	000280e7          	jalr	t0
   131f4:	00050793          	mv	a5,a0

000131f8 <.LM124>:
   131f8:	00078913          	mv	s2,a5
   131fc:	00000993          	li	s3,0

00013200 <.LM125>:
   13200:	0200006f          	j	13220 <.L76>

00013204 <.L74>:
   13204:	fea45783          	lhu	a5,-22(s0)
   13208:	00078593          	mv	a1,a5
   1320c:	fec42503          	lw	a0,-20(s0)
   13210:	00000297          	auipc	t0,0x0
   13214:	000280e7          	jalr	t0
   13218:	00050913          	mv	s2,a0
   1321c:	00058993          	mv	s3,a1

00013220 <.L76>:
   13220:	00090713          	mv	a4,s2
   13224:	00098793          	mv	a5,s3

00013228 <.LM128>:
   13228:	00070513          	mv	a0,a4
   1322c:	00078593          	mv	a1,a5
   13230:	01c12083          	lw	ra,28(sp)
   13234:	01812403          	lw	s0,24(sp)
   13238:	01412903          	lw	s2,20(sp)
   1323c:	01012983          	lw	s3,16(sp)
   13240:	02010113          	addi	sp,sp,32
   13244:	00008067          	ret

00013248 <elf_getProgramHeaderOffset>:
   13248:	fe010113          	addi	sp,sp,-32
   1324c:	00112e23          	sw	ra,28(sp)
   13250:	00812c23          	sw	s0,24(sp)
   13254:	01212a23          	sw	s2,20(sp)
   13258:	01312823          	sw	s3,16(sp)
   1325c:	02010413          	addi	s0,sp,32
   13260:	fea42623          	sw	a0,-20(s0)
   13264:	00058793          	mv	a5,a1
   13268:	fef41523          	sh	a5,-22(s0)

0001326c <.LM130>:
   1326c:	fec42783          	lw	a5,-20(s0)
   13270:	0047c703          	lbu	a4,4(a5)

00013274 <.LM131>:
   13274:	00100793          	li	a5,1
   13278:	02f71463          	bne	a4,a5,132a0 <.L78>

0001327c <.LM132>:
   1327c:	fea45783          	lhu	a5,-22(s0)
   13280:	00078593          	mv	a1,a5
   13284:	fec42503          	lw	a0,-20(s0)
   13288:	00000297          	auipc	t0,0x0
   1328c:	000280e7          	jalr	t0
   13290:	00050793          	mv	a5,a0

00013294 <.LM133>:
   13294:	00078913          	mv	s2,a5
   13298:	00000993          	li	s3,0

0001329c <.LM134>:
   1329c:	0200006f          	j	132bc <.L80>

000132a0 <.L78>:
   132a0:	fea45783          	lhu	a5,-22(s0)
   132a4:	00078593          	mv	a1,a5
   132a8:	fec42503          	lw	a0,-20(s0)
   132ac:	00000297          	auipc	t0,0x0
   132b0:	000280e7          	jalr	t0
   132b4:	00050913          	mv	s2,a0
   132b8:	00058993          	mv	s3,a1

000132bc <.L80>:
   132bc:	00090713          	mv	a4,s2
   132c0:	00098793          	mv	a5,s3

000132c4 <.LM137>:
   132c4:	00070513          	mv	a0,a4
   132c8:	00078593          	mv	a1,a5
   132cc:	01c12083          	lw	ra,28(sp)
   132d0:	01812403          	lw	s0,24(sp)
   132d4:	01412903          	lw	s2,20(sp)
   132d8:	01012983          	lw	s3,16(sp)
   132dc:	02010113          	addi	sp,sp,32
   132e0:	00008067          	ret

000132e4 <elf_getSegmentStringTable>:
   132e4:	fe010113          	addi	sp,sp,-32
   132e8:	00112e23          	sw	ra,28(sp)
   132ec:	00812c23          	sw	s0,24(sp)
   132f0:	02010413          	addi	s0,sp,32
   132f4:	fea42623          	sw	a0,-20(s0)

000132f8 <.LM139>:
   132f8:	fec42783          	lw	a5,-20(s0)
   132fc:	0047c703          	lbu	a4,4(a5)

00013300 <.LM140>:
   13300:	00100793          	li	a5,1
   13304:	00f71c63          	bne	a4,a5,1331c <.L82>

00013308 <.LM141>:
   13308:	fec42503          	lw	a0,-20(s0)
   1330c:	00000297          	auipc	t0,0x0
   13310:	000280e7          	jalr	t0
   13314:	00050793          	mv	a5,a0

00013318 <.LM142>:
   13318:	0140006f          	j	1332c <.L84>

0001331c <.L82>:
   1331c:	fec42503          	lw	a0,-20(s0)
   13320:	00000297          	auipc	t0,0x0
   13324:	000280e7          	jalr	t0
   13328:	00050793          	mv	a5,a0

0001332c <.L84>:
   1332c:	00078513          	mv	a0,a5
   13330:	01c12083          	lw	ra,28(sp)
   13334:	01812403          	lw	s0,24(sp)
   13338:	02010113          	addi	sp,sp,32
   1333c:	00008067          	ret

00013340 <elf_getStringTable>:
   13340:	fe010113          	addi	sp,sp,-32
   13344:	00112e23          	sw	ra,28(sp)
   13348:	00812c23          	sw	s0,24(sp)
   1334c:	02010413          	addi	s0,sp,32
   13350:	fea42623          	sw	a0,-20(s0)
   13354:	feb42423          	sw	a1,-24(s0)

00013358 <.LM146>:
   13358:	fec42783          	lw	a5,-20(s0)
   1335c:	0047c703          	lbu	a4,4(a5)

00013360 <.LM147>:
   13360:	00100793          	li	a5,1
   13364:	00f71c63          	bne	a4,a5,1337c <.L86>

00013368 <.LM148>:
   13368:	fec42503          	lw	a0,-20(s0)
   1336c:	00000297          	auipc	t0,0x0
   13370:	000280e7          	jalr	t0
   13374:	00050793          	mv	a5,a0

00013378 <.LM149>:
   13378:	0180006f          	j	13390 <.L88>

0001337c <.L86>:
   1337c:	fe842583          	lw	a1,-24(s0)
   13380:	fec42503          	lw	a0,-20(s0)
   13384:	00000297          	auipc	t0,0x0
   13388:	000280e7          	jalr	t0
   1338c:	00050793          	mv	a5,a0

00013390 <.L88>:
   13390:	00078513          	mv	a0,a5
   13394:	01c12083          	lw	ra,28(sp)
   13398:	01812403          	lw	s0,24(sp)
   1339c:	02010113          	addi	sp,sp,32
   133a0:	00008067          	ret

000133a4 <elf_getNumSections>:
   133a4:	fe010113          	addi	sp,sp,-32
   133a8:	00112e23          	sw	ra,28(sp)
   133ac:	00812c23          	sw	s0,24(sp)
   133b0:	02010413          	addi	s0,sp,32
   133b4:	fea42623          	sw	a0,-20(s0)

000133b8 <.LM153>:
   133b8:	fec42783          	lw	a5,-20(s0)
   133bc:	0047c703          	lbu	a4,4(a5)

000133c0 <.LM154>:
   133c0:	00100793          	li	a5,1
   133c4:	00f71c63          	bne	a4,a5,133dc <.L90>

000133c8 <.LM155>:
   133c8:	fec42503          	lw	a0,-20(s0)
   133cc:	00000297          	auipc	t0,0x0
   133d0:	000280e7          	jalr	t0
   133d4:	00050793          	mv	a5,a0

000133d8 <.LM156>:
   133d8:	0140006f          	j	133ec <.L92>

000133dc <.L90>:
   133dc:	fec42503          	lw	a0,-20(s0)
   133e0:	00000297          	auipc	t0,0x0
   133e4:	000280e7          	jalr	t0
   133e8:	00050793          	mv	a5,a0

000133ec <.L92>:
   133ec:	00078513          	mv	a0,a5
   133f0:	01c12083          	lw	ra,28(sp)
   133f4:	01812403          	lw	s0,24(sp)
   133f8:	02010113          	addi	sp,sp,32
   133fc:	00008067          	ret

00013400 <elf_getSectionName>:
   13400:	fe010113          	addi	sp,sp,-32
   13404:	00112e23          	sw	ra,28(sp)
   13408:	00812c23          	sw	s0,24(sp)
   1340c:	02010413          	addi	s0,sp,32
   13410:	fea42623          	sw	a0,-20(s0)
   13414:	feb42423          	sw	a1,-24(s0)

00013418 <.LM160>:
   13418:	fec42783          	lw	a5,-20(s0)
   1341c:	0047c703          	lbu	a4,4(a5)

00013420 <.LM161>:
   13420:	00100793          	li	a5,1
   13424:	00f71e63          	bne	a4,a5,13440 <.L94>

00013428 <.LM162>:
   13428:	fe842583          	lw	a1,-24(s0)
   1342c:	fec42503          	lw	a0,-20(s0)
   13430:	00000297          	auipc	t0,0x0
   13434:	000280e7          	jalr	t0
   13438:	00050793          	mv	a5,a0

0001343c <.LM163>:
   1343c:	0180006f          	j	13454 <.L96>

00013440 <.L94>:
   13440:	fe842583          	lw	a1,-24(s0)
   13444:	fec42503          	lw	a0,-20(s0)
   13448:	00000297          	auipc	t0,0x0
   1344c:	000280e7          	jalr	t0
   13450:	00050793          	mv	a5,a0

00013454 <.L96>:
   13454:	00078513          	mv	a0,a5
   13458:	01c12083          	lw	ra,28(sp)
   1345c:	01812403          	lw	s0,24(sp)
   13460:	02010113          	addi	sp,sp,32
   13464:	00008067          	ret

00013468 <elf_getSectionFlags>:
   13468:	fe010113          	addi	sp,sp,-32
   1346c:	00112e23          	sw	ra,28(sp)
   13470:	00812c23          	sw	s0,24(sp)
   13474:	02010413          	addi	s0,sp,32
   13478:	fea42623          	sw	a0,-20(s0)
   1347c:	feb42423          	sw	a1,-24(s0)

00013480 <.LM167>:
   13480:	fec42783          	lw	a5,-20(s0)
   13484:	0047c703          	lbu	a4,4(a5)

00013488 <.LM168>:
   13488:	00100793          	li	a5,1
   1348c:	02f71463          	bne	a4,a5,134b4 <.L98>

00013490 <.LM169>:
   13490:	fe842783          	lw	a5,-24(s0)
   13494:	01079793          	slli	a5,a5,0x10
   13498:	0107d793          	srli	a5,a5,0x10

0001349c <.LM170>:
   1349c:	00078593          	mv	a1,a5
   134a0:	fec42503          	lw	a0,-20(s0)
   134a4:	00000297          	auipc	t0,0x0
   134a8:	000280e7          	jalr	t0
   134ac:	00050793          	mv	a5,a0

000134b0 <.LM171>:
   134b0:	0240006f          	j	134d4 <.L100>

000134b4 <.L98>:
   134b4:	fe842783          	lw	a5,-24(s0)
   134b8:	01079793          	slli	a5,a5,0x10
   134bc:	0107d793          	srli	a5,a5,0x10
   134c0:	00078593          	mv	a1,a5
   134c4:	fec42503          	lw	a0,-20(s0)
   134c8:	00000297          	auipc	t0,0x0
   134cc:	000280e7          	jalr	t0
   134d0:	00050793          	mv	a5,a0

000134d4 <.L100>:
   134d4:	00078513          	mv	a0,a5
   134d8:	01c12083          	lw	ra,28(sp)
   134dc:	01812403          	lw	s0,24(sp)
   134e0:	02010113          	addi	sp,sp,32
   134e4:	00008067          	ret

000134e8 <elf_getSectionType>:
   134e8:	fe010113          	addi	sp,sp,-32
   134ec:	00112e23          	sw	ra,28(sp)
   134f0:	00812c23          	sw	s0,24(sp)
   134f4:	02010413          	addi	s0,sp,32
   134f8:	fea42623          	sw	a0,-20(s0)
   134fc:	feb42423          	sw	a1,-24(s0)

00013500 <.LM175>:
   13500:	fec42783          	lw	a5,-20(s0)
   13504:	0047c703          	lbu	a4,4(a5)

00013508 <.LM176>:
   13508:	00100793          	li	a5,1
   1350c:	02f71463          	bne	a4,a5,13534 <.L102>

00013510 <.LM177>:
   13510:	fe842783          	lw	a5,-24(s0)
   13514:	01079793          	slli	a5,a5,0x10
   13518:	0107d793          	srli	a5,a5,0x10

0001351c <.LM178>:
   1351c:	00078593          	mv	a1,a5
   13520:	fec42503          	lw	a0,-20(s0)
   13524:	00000297          	auipc	t0,0x0
   13528:	000280e7          	jalr	t0
   1352c:	00050793          	mv	a5,a0

00013530 <.LM179>:
   13530:	0240006f          	j	13554 <.L104>

00013534 <.L102>:
   13534:	fe842783          	lw	a5,-24(s0)
   13538:	01079793          	slli	a5,a5,0x10
   1353c:	0107d793          	srli	a5,a5,0x10
   13540:	00078593          	mv	a1,a5
   13544:	fec42503          	lw	a0,-20(s0)
   13548:	00000297          	auipc	t0,0x0
   1354c:	000280e7          	jalr	t0
   13550:	00050793          	mv	a5,a0

00013554 <.L104>:
   13554:	00078513          	mv	a0,a5
   13558:	01c12083          	lw	ra,28(sp)
   1355c:	01812403          	lw	s0,24(sp)
   13560:	02010113          	addi	sp,sp,32
   13564:	00008067          	ret

00013568 <elf_getSectionSize>:
   13568:	fe010113          	addi	sp,sp,-32
   1356c:	00112e23          	sw	ra,28(sp)
   13570:	00812c23          	sw	s0,24(sp)
   13574:	01212a23          	sw	s2,20(sp)
   13578:	01312823          	sw	s3,16(sp)
   1357c:	02010413          	addi	s0,sp,32
   13580:	fea42623          	sw	a0,-20(s0)
   13584:	feb42423          	sw	a1,-24(s0)

00013588 <.LM183>:
   13588:	fec42783          	lw	a5,-20(s0)
   1358c:	0047c703          	lbu	a4,4(a5)

00013590 <.LM184>:
   13590:	00100793          	li	a5,1
   13594:	02f71263          	bne	a4,a5,135b8 <.L106>

00013598 <.LM185>:
   13598:	fe842583          	lw	a1,-24(s0)
   1359c:	fec42503          	lw	a0,-20(s0)
   135a0:	00000297          	auipc	t0,0x0
   135a4:	000280e7          	jalr	t0
   135a8:	00050793          	mv	a5,a0

000135ac <.LM186>:
   135ac:	00078913          	mv	s2,a5
   135b0:	00000993          	li	s3,0

000135b4 <.LM187>:
   135b4:	01c0006f          	j	135d0 <.L108>

000135b8 <.L106>:
   135b8:	fe842583          	lw	a1,-24(s0)
   135bc:	fec42503          	lw	a0,-20(s0)
   135c0:	00000297          	auipc	t0,0x0
   135c4:	000280e7          	jalr	t0
   135c8:	00050913          	mv	s2,a0
   135cc:	00058993          	mv	s3,a1

000135d0 <.L108>:
   135d0:	00090713          	mv	a4,s2
   135d4:	00098793          	mv	a5,s3

000135d8 <.LM190>:
   135d8:	00070513          	mv	a0,a4
   135dc:	00078593          	mv	a1,a5
   135e0:	01c12083          	lw	ra,28(sp)
   135e4:	01812403          	lw	s0,24(sp)
   135e8:	01412903          	lw	s2,20(sp)
   135ec:	01012983          	lw	s3,16(sp)
   135f0:	02010113          	addi	sp,sp,32
   135f4:	00008067          	ret

000135f8 <elf_getSectionAddr>:
   135f8:	fe010113          	addi	sp,sp,-32
   135fc:	00112e23          	sw	ra,28(sp)
   13600:	00812c23          	sw	s0,24(sp)
   13604:	01212a23          	sw	s2,20(sp)
   13608:	01312823          	sw	s3,16(sp)
   1360c:	02010413          	addi	s0,sp,32
   13610:	fea42623          	sw	a0,-20(s0)
   13614:	feb42423          	sw	a1,-24(s0)

00013618 <.LM192>:
   13618:	fec42783          	lw	a5,-20(s0)
   1361c:	0047c703          	lbu	a4,4(a5)

00013620 <.LM193>:
   13620:	00100793          	li	a5,1
   13624:	02f71263          	bne	a4,a5,13648 <.L110>

00013628 <.LM194>:
   13628:	fe842583          	lw	a1,-24(s0)
   1362c:	fec42503          	lw	a0,-20(s0)
   13630:	00000297          	auipc	t0,0x0
   13634:	000280e7          	jalr	t0
   13638:	00050793          	mv	a5,a0

0001363c <.LM195>:
   1363c:	00078913          	mv	s2,a5
   13640:	00000993          	li	s3,0

00013644 <.LM196>:
   13644:	01c0006f          	j	13660 <.L112>

00013648 <.L110>:
   13648:	fe842583          	lw	a1,-24(s0)
   1364c:	fec42503          	lw	a0,-20(s0)
   13650:	00000297          	auipc	t0,0x0
   13654:	000280e7          	jalr	t0
   13658:	00050913          	mv	s2,a0
   1365c:	00058993          	mv	s3,a1

00013660 <.L112>:
   13660:	00090713          	mv	a4,s2
   13664:	00098793          	mv	a5,s3

00013668 <.LM199>:
   13668:	00070513          	mv	a0,a4
   1366c:	00078593          	mv	a1,a5
   13670:	01c12083          	lw	ra,28(sp)
   13674:	01812403          	lw	s0,24(sp)
   13678:	01412903          	lw	s2,20(sp)
   1367c:	01012983          	lw	s3,16(sp)
   13680:	02010113          	addi	sp,sp,32
   13684:	00008067          	ret

00013688 <elf_getSection>:
   13688:	fe010113          	addi	sp,sp,-32
   1368c:	00112e23          	sw	ra,28(sp)
   13690:	00812c23          	sw	s0,24(sp)
   13694:	02010413          	addi	s0,sp,32
   13698:	fea42623          	sw	a0,-20(s0)
   1369c:	feb42423          	sw	a1,-24(s0)

000136a0 <.LM201>:
   136a0:	fec42783          	lw	a5,-20(s0)
   136a4:	0047c703          	lbu	a4,4(a5)

000136a8 <.LM202>:
   136a8:	00100793          	li	a5,1
   136ac:	00f71e63          	bne	a4,a5,136c8 <.L114>

000136b0 <.LM203>:
   136b0:	fe842583          	lw	a1,-24(s0)
   136b4:	fec42503          	lw	a0,-20(s0)
   136b8:	00000297          	auipc	t0,0x0
   136bc:	000280e7          	jalr	t0
   136c0:	00050793          	mv	a5,a0

000136c4 <.LM204>:
   136c4:	0180006f          	j	136dc <.L116>

000136c8 <.L114>:
   136c8:	fe842583          	lw	a1,-24(s0)
   136cc:	fec42503          	lw	a0,-20(s0)
   136d0:	00000297          	auipc	t0,0x0
   136d4:	000280e7          	jalr	t0
   136d8:	00050793          	mv	a5,a0

000136dc <.L116>:
   136dc:	00078513          	mv	a0,a5
   136e0:	01c12083          	lw	ra,28(sp)
   136e4:	01812403          	lw	s0,24(sp)
   136e8:	02010113          	addi	sp,sp,32
   136ec:	00008067          	ret

000136f0 <elf_getSectionNamed>:
   136f0:	fe010113          	addi	sp,sp,-32
   136f4:	00112e23          	sw	ra,28(sp)
   136f8:	00812c23          	sw	s0,24(sp)
   136fc:	02010413          	addi	s0,sp,32
   13700:	fea42623          	sw	a0,-20(s0)
   13704:	feb42423          	sw	a1,-24(s0)

00013708 <.LM208>:
   13708:	fec42783          	lw	a5,-20(s0)
   1370c:	0047c703          	lbu	a4,4(a5)

00013710 <.LM209>:
   13710:	00100793          	li	a5,1
   13714:	00f71e63          	bne	a4,a5,13730 <.L118>

00013718 <.LM210>:
   13718:	fe842583          	lw	a1,-24(s0)
   1371c:	fec42503          	lw	a0,-20(s0)
   13720:	00000297          	auipc	t0,0x0
   13724:	000280e7          	jalr	t0
   13728:	00050793          	mv	a5,a0

0001372c <.LM211>:
   1372c:	0180006f          	j	13744 <.L120>

00013730 <.L118>:
   13730:	fe842583          	lw	a1,-24(s0)
   13734:	fec42503          	lw	a0,-20(s0)
   13738:	00000297          	auipc	t0,0x0
   1373c:	000280e7          	jalr	t0
   13740:	00050793          	mv	a5,a0

00013744 <.L120>:
   13744:	00078513          	mv	a0,a5
   13748:	01c12083          	lw	ra,28(sp)
   1374c:	01812403          	lw	s0,24(sp)
   13750:	02010113          	addi	sp,sp,32
   13754:	00008067          	ret

00013758 <elf_getProgramHeaderInfo>:
   13758:	fd010113          	addi	sp,sp,-48
   1375c:	02112623          	sw	ra,44(sp)
   13760:	02812423          	sw	s0,40(sp)
   13764:	03010413          	addi	s0,sp,48
   13768:	fea42623          	sw	a0,-20(s0)
   1376c:	fec42223          	sw	a2,-28(s0)
   13770:	fed42023          	sw	a3,-32(s0)
   13774:	fce42e23          	sw	a4,-36(s0)
   13778:	fcf42c23          	sw	a5,-40(s0)
   1377c:	fd042a23          	sw	a6,-44(s0)
   13780:	feb41523          	sh	a1,-22(s0)

00013784 <.LM215>:
   13784:	fea45783          	lhu	a5,-22(s0)
   13788:	00078593          	mv	a1,a5
   1378c:	fec42503          	lw	a0,-20(s0)
   13790:	00000297          	auipc	t0,0x0
   13794:	000280e7          	jalr	t0
   13798:	00050713          	mv	a4,a0
   1379c:	00058793          	mv	a5,a1
   137a0:	fe442683          	lw	a3,-28(s0)
   137a4:	00e6a023          	sw	a4,0(a3)
   137a8:	00f6a223          	sw	a5,4(a3)

000137ac <.LM216>:
   137ac:	fea45783          	lhu	a5,-22(s0)
   137b0:	00078593          	mv	a1,a5
   137b4:	fec42503          	lw	a0,-20(s0)
   137b8:	00000297          	auipc	t0,0x0
   137bc:	000280e7          	jalr	t0
   137c0:	00050713          	mv	a4,a0
   137c4:	00058793          	mv	a5,a1
   137c8:	fe042683          	lw	a3,-32(s0)
   137cc:	00e6a023          	sw	a4,0(a3)
   137d0:	00f6a223          	sw	a5,4(a3)

000137d4 <.LM217>:
   137d4:	fea45783          	lhu	a5,-22(s0)
   137d8:	00078593          	mv	a1,a5
   137dc:	fec42503          	lw	a0,-20(s0)
   137e0:	00000297          	auipc	t0,0x0
   137e4:	000280e7          	jalr	t0
   137e8:	00050713          	mv	a4,a0
   137ec:	00058793          	mv	a5,a1
   137f0:	fdc42683          	lw	a3,-36(s0)
   137f4:	00e6a023          	sw	a4,0(a3)
   137f8:	00f6a223          	sw	a5,4(a3)

000137fc <.LM218>:
   137fc:	fea45783          	lhu	a5,-22(s0)
   13800:	00078593          	mv	a1,a5
   13804:	fec42503          	lw	a0,-20(s0)
   13808:	00000297          	auipc	t0,0x0
   1380c:	000280e7          	jalr	t0
   13810:	00050713          	mv	a4,a0
   13814:	00058793          	mv	a5,a1
   13818:	fd842683          	lw	a3,-40(s0)
   1381c:	00e6a023          	sw	a4,0(a3)
   13820:	00f6a223          	sw	a5,4(a3)

00013824 <.LM219>:
   13824:	fea45783          	lhu	a5,-22(s0)
   13828:	00078593          	mv	a1,a5
   1382c:	fec42503          	lw	a0,-20(s0)
   13830:	00000297          	auipc	t0,0x0
   13834:	000280e7          	jalr	t0
   13838:	00050713          	mv	a4,a0
   1383c:	00058793          	mv	a5,a1
   13840:	fd442683          	lw	a3,-44(s0)
   13844:	00e6a023          	sw	a4,0(a3)
   13848:	00f6a223          	sw	a5,4(a3)

0001384c <.LM220>:
   1384c:	00000013          	nop
   13850:	02c12083          	lw	ra,44(sp)
   13854:	02812403          	lw	s0,40(sp)
   13858:	03010113          	addi	sp,sp,48
   1385c:	00008067          	ret

00013860 <elf_getEntryPoint>:
   13860:	fe010113          	addi	sp,sp,-32
   13864:	00112e23          	sw	ra,28(sp)
   13868:	00812c23          	sw	s0,24(sp)
   1386c:	01212a23          	sw	s2,20(sp)
   13870:	01312823          	sw	s3,16(sp)
   13874:	02010413          	addi	s0,sp,32
   13878:	fea42623          	sw	a0,-20(s0)

0001387c <.LM222>:
   1387c:	fec42783          	lw	a5,-20(s0)
   13880:	0047c703          	lbu	a4,4(a5)

00013884 <.LM223>:
   13884:	00100793          	li	a5,1
   13888:	02f71063          	bne	a4,a5,138a8 <.L123>

0001388c <.LM224>:
   1388c:	fec42503          	lw	a0,-20(s0)
   13890:	00000297          	auipc	t0,0x0
   13894:	000280e7          	jalr	t0
   13898:	00050793          	mv	a5,a0

0001389c <.LM225>:
   1389c:	00078913          	mv	s2,a5
   138a0:	00000993          	li	s3,0

000138a4 <.LM226>:
   138a4:	0180006f          	j	138bc <.L125>

000138a8 <.L123>:
   138a8:	fec42503          	lw	a0,-20(s0)
   138ac:	00000297          	auipc	t0,0x0
   138b0:	000280e7          	jalr	t0
   138b4:	00050913          	mv	s2,a0
   138b8:	00058993          	mv	s3,a1

000138bc <.L125>:
   138bc:	00090713          	mv	a4,s2
   138c0:	00098793          	mv	a5,s3

000138c4 <.LM229>:
   138c4:	00070513          	mv	a0,a4
   138c8:	00078593          	mv	a1,a5
   138cc:	01c12083          	lw	ra,28(sp)
   138d0:	01812403          	lw	s0,24(sp)
   138d4:	01412903          	lw	s2,20(sp)
   138d8:	01012983          	lw	s3,16(sp)
   138dc:	02010113          	addi	sp,sp,32
   138e0:	00008067          	ret

000138e4 <elf_getMemoryBounds>:
   138e4:	fb010113          	addi	sp,sp,-80
   138e8:	04112623          	sw	ra,76(sp)
   138ec:	04812423          	sw	s0,72(sp)
   138f0:	05010413          	addi	s0,sp,80
   138f4:	faa42e23          	sw	a0,-68(s0)
   138f8:	fab42c23          	sw	a1,-72(s0)
   138fc:	fac42a23          	sw	a2,-76(s0)
   13900:	fad42823          	sw	a3,-80(s0)

00013904 <.LM231>:
   13904:	fff00713          	li	a4,-1
   13908:	fff00793          	li	a5,-1
   1390c:	fee42423          	sw	a4,-24(s0)
   13910:	fef42623          	sw	a5,-20(s0)

00013914 <.LM232>:
   13914:	00000713          	li	a4,0
   13918:	00000793          	li	a5,0
   1391c:	fee42023          	sw	a4,-32(s0)
   13920:	fef42223          	sw	a5,-28(s0)

00013924 <.LM233>:
   13924:	fbc42503          	lw	a0,-68(s0)
   13928:	00000297          	auipc	t0,0x0
   1392c:	000280e7          	jalr	t0
   13930:	00050793          	mv	a5,a0
   13934:	00078663          	beqz	a5,13940 <.L127>

00013938 <.LM234>:
   13938:	00000793          	li	a5,0
   1393c:	19c0006f          	j	13ad8 <.L128>

00013940 <.L127>:
   13940:	fc042e23          	sw	zero,-36(s0)
   13944:	14c0006f          	j	13a90 <.L129>

00013948 <.L137>:
   13948:	fdc42783          	lw	a5,-36(s0)
   1394c:	01079793          	slli	a5,a5,0x10
   13950:	0107d793          	srli	a5,a5,0x10
   13954:	00078593          	mv	a1,a5
   13958:	fbc42503          	lw	a0,-68(s0)
   1395c:	00000297          	auipc	t0,0x0
   13960:	000280e7          	jalr	t0
   13964:	00050613          	mv	a2,a0
   13968:	00058693          	mv	a3,a1
   1396c:	00060793          	mv	a5,a2
   13970:	00d7e7b3          	or	a5,a5,a3
   13974:	10078663          	beqz	a5,13a80 <.L140>

00013978 <.LM237>:
   13978:	fb842783          	lw	a5,-72(s0)
   1397c:	02078663          	beqz	a5,139a8 <.L132>

00013980 <.LM238>:
   13980:	fdc42783          	lw	a5,-36(s0)
   13984:	01079793          	slli	a5,a5,0x10
   13988:	0107d793          	srli	a5,a5,0x10
   1398c:	00078593          	mv	a1,a5
   13990:	fbc42503          	lw	a0,-68(s0)
   13994:	00000297          	auipc	t0,0x0
   13998:	000280e7          	jalr	t0
   1399c:	fca42823          	sw	a0,-48(s0)
   139a0:	fcb42a23          	sw	a1,-44(s0)
   139a4:	0280006f          	j	139cc <.L133>

000139a8 <.L132>:
   139a8:	fdc42783          	lw	a5,-36(s0)
   139ac:	01079793          	slli	a5,a5,0x10
   139b0:	0107d793          	srli	a5,a5,0x10
   139b4:	00078593          	mv	a1,a5
   139b8:	fbc42503          	lw	a0,-68(s0)
   139bc:	00000297          	auipc	t0,0x0
   139c0:	000280e7          	jalr	t0
   139c4:	fca42823          	sw	a0,-48(s0)
   139c8:	fcb42a23          	sw	a1,-44(s0)

000139cc <.L133>:
   139cc:	fdc42783          	lw	a5,-36(s0)
   139d0:	01079793          	slli	a5,a5,0x10
   139d4:	0107d793          	srli	a5,a5,0x10
   139d8:	00078593          	mv	a1,a5
   139dc:	fbc42503          	lw	a0,-68(s0)
   139e0:	00000297          	auipc	t0,0x0
   139e4:	000280e7          	jalr	t0
   139e8:	00050613          	mv	a2,a0
   139ec:	00058693          	mv	a3,a1
   139f0:	fd042503          	lw	a0,-48(s0)
   139f4:	fd442583          	lw	a1,-44(s0)
   139f8:	00a60733          	add	a4,a2,a0
   139fc:	00c73833          	sltu	a6,a4,a2
   13a00:	00b687b3          	add	a5,a3,a1
   13a04:	00f806b3          	add	a3,a6,a5
   13a08:	00068793          	mv	a5,a3
   13a0c:	fce42423          	sw	a4,-56(s0)
   13a10:	fcf42623          	sw	a5,-52(s0)

00013a14 <.LM241>:
   13a14:	fcc42703          	lw	a4,-52(s0)
   13a18:	fe442783          	lw	a5,-28(s0)
   13a1c:	00e7ee63          	bltu	a5,a4,13a38 <.L138>
   13a20:	fcc42703          	lw	a4,-52(s0)
   13a24:	fe442783          	lw	a5,-28(s0)
   13a28:	02f71063          	bne	a4,a5,13a48 <.L134>
   13a2c:	fc842703          	lw	a4,-56(s0)
   13a30:	fe042783          	lw	a5,-32(s0)
   13a34:	00e7fa63          	bleu	a4,a5,13a48 <.L134>

00013a38 <.L138>:
   13a38:	fc842703          	lw	a4,-56(s0)
   13a3c:	fcc42783          	lw	a5,-52(s0)
   13a40:	fee42023          	sw	a4,-32(s0)
   13a44:	fef42223          	sw	a5,-28(s0)

00013a48 <.L134>:
   13a48:	fec42703          	lw	a4,-20(s0)
   13a4c:	fd442783          	lw	a5,-44(s0)
   13a50:	00e7ee63          	bltu	a5,a4,13a6c <.L139>
   13a54:	fec42703          	lw	a4,-20(s0)
   13a58:	fd442783          	lw	a5,-44(s0)
   13a5c:	02f71463          	bne	a4,a5,13a84 <.L131>
   13a60:	fe842703          	lw	a4,-24(s0)
   13a64:	fd042783          	lw	a5,-48(s0)
   13a68:	00e7fe63          	bleu	a4,a5,13a84 <.L131>

00013a6c <.L139>:
   13a6c:	fd042703          	lw	a4,-48(s0)
   13a70:	fd442783          	lw	a5,-44(s0)
   13a74:	fee42423          	sw	a4,-24(s0)
   13a78:	fef42623          	sw	a5,-20(s0)
   13a7c:	0080006f          	j	13a84 <.L131>

00013a80 <.L140>:
   13a80:	00000013          	nop

00013a84 <.L131>:
   13a84:	fdc42783          	lw	a5,-36(s0)
   13a88:	00178793          	addi	a5,a5,1
   13a8c:	fcf42e23          	sw	a5,-36(s0)

00013a90 <.L129>:
   13a90:	fbc42503          	lw	a0,-68(s0)
   13a94:	00000297          	auipc	t0,0x0
   13a98:	000280e7          	jalr	t0
   13a9c:	00050793          	mv	a5,a0
   13aa0:	00078713          	mv	a4,a5
   13aa4:	fdc42783          	lw	a5,-36(s0)
   13aa8:	eae7c0e3          	blt	a5,a4,13948 <.L137>

00013aac <.LM248>:
   13aac:	fb442683          	lw	a3,-76(s0)
   13ab0:	fe842703          	lw	a4,-24(s0)
   13ab4:	fec42783          	lw	a5,-20(s0)
   13ab8:	00e6a023          	sw	a4,0(a3)
   13abc:	00f6a223          	sw	a5,4(a3)

00013ac0 <.LM249>:
   13ac0:	fb042683          	lw	a3,-80(s0)
   13ac4:	fe042703          	lw	a4,-32(s0)
   13ac8:	fe442783          	lw	a5,-28(s0)
   13acc:	00e6a023          	sw	a4,0(a3)
   13ad0:	00f6a223          	sw	a5,4(a3)

00013ad4 <.LM250>:
   13ad4:	00100793          	li	a5,1

00013ad8 <.L128>:
   13ad8:	00078513          	mv	a0,a5
   13adc:	04c12083          	lw	ra,76(sp)
   13ae0:	04812403          	lw	s0,72(sp)
   13ae4:	05010113          	addi	sp,sp,80
   13ae8:	00008067          	ret

00013aec <elf_vaddrInProgramHeader>:
   13aec:	fd010113          	addi	sp,sp,-48
   13af0:	02112623          	sw	ra,44(sp)
   13af4:	02812423          	sw	s0,40(sp)
   13af8:	03010413          	addi	s0,sp,48
   13afc:	fca42e23          	sw	a0,-36(s0)
   13b00:	00058793          	mv	a5,a1
   13b04:	fcc42823          	sw	a2,-48(s0)
   13b08:	fcd42a23          	sw	a3,-44(s0)
   13b0c:	fcf41d23          	sh	a5,-38(s0)

00013b10 <.LM253>:
   13b10:	fda45783          	lhu	a5,-38(s0)
   13b14:	00078593          	mv	a1,a5
   13b18:	fdc42503          	lw	a0,-36(s0)
   13b1c:	00000297          	auipc	t0,0x0
   13b20:	000280e7          	jalr	t0
   13b24:	fea42423          	sw	a0,-24(s0)
   13b28:	feb42623          	sw	a1,-20(s0)

00013b2c <.LM254>:
   13b2c:	fda45783          	lhu	a5,-38(s0)
   13b30:	00078593          	mv	a1,a5
   13b34:	fdc42503          	lw	a0,-36(s0)
   13b38:	00000297          	auipc	t0,0x0
   13b3c:	000280e7          	jalr	t0
   13b40:	00050613          	mv	a2,a0
   13b44:	00058693          	mv	a3,a1
   13b48:	fe842503          	lw	a0,-24(s0)
   13b4c:	fec42583          	lw	a1,-20(s0)
   13b50:	00a60733          	add	a4,a2,a0
   13b54:	00c73833          	sltu	a6,a4,a2
   13b58:	00b687b3          	add	a5,a3,a1
   13b5c:	00f806b3          	add	a3,a6,a5
   13b60:	00068793          	mv	a5,a3
   13b64:	fee42023          	sw	a4,-32(s0)
   13b68:	fef42223          	sw	a5,-28(s0)

00013b6c <.LM255>:
   13b6c:	fec42703          	lw	a4,-20(s0)
   13b70:	fd442783          	lw	a5,-44(s0)
   13b74:	04e7e463          	bltu	a5,a4,13bbc <.L142>
   13b78:	fec42703          	lw	a4,-20(s0)
   13b7c:	fd442783          	lw	a5,-44(s0)
   13b80:	00f71863          	bne	a4,a5,13b90 <.L146>
   13b84:	fe842703          	lw	a4,-24(s0)
   13b88:	fd042783          	lw	a5,-48(s0)
   13b8c:	02e7e863          	bltu	a5,a4,13bbc <.L142>

00013b90 <.L146>:
   13b90:	fe442703          	lw	a4,-28(s0)
   13b94:	fd442783          	lw	a5,-44(s0)
   13b98:	00e7ee63          	bltu	a5,a4,13bb4 <.L147>
   13b9c:	fe442703          	lw	a4,-28(s0)
   13ba0:	fd442783          	lw	a5,-44(s0)
   13ba4:	00f71c63          	bne	a4,a5,13bbc <.L142>
   13ba8:	fe042703          	lw	a4,-32(s0)
   13bac:	fd042783          	lw	a5,-48(s0)
   13bb0:	00e7f663          	bleu	a4,a5,13bbc <.L142>

00013bb4 <.L147>:
   13bb4:	00100793          	li	a5,1
   13bb8:	0080006f          	j	13bc0 <.L145>

00013bbc <.L142>:
   13bbc:	00000793          	li	a5,0

00013bc0 <.L145>:
   13bc0:	00078513          	mv	a0,a5
   13bc4:	02c12083          	lw	ra,44(sp)
   13bc8:	02812403          	lw	s0,40(sp)
   13bcc:	03010113          	addi	sp,sp,48
   13bd0:	00008067          	ret

00013bd4 <elf_vtopProgramHeader>:
   13bd4:	fc010113          	addi	sp,sp,-64
   13bd8:	02112e23          	sw	ra,60(sp)
   13bdc:	02812c23          	sw	s0,56(sp)
   13be0:	04010413          	addi	s0,sp,64
   13be4:	fca42623          	sw	a0,-52(s0)
   13be8:	00058793          	mv	a5,a1
   13bec:	fcc42023          	sw	a2,-64(s0)
   13bf0:	fcd42223          	sw	a3,-60(s0)
   13bf4:	fcf41523          	sh	a5,-54(s0)

00013bf8 <.LM261>:
   13bf8:	fca45783          	lhu	a5,-54(s0)
   13bfc:	00078593          	mv	a1,a5
   13c00:	fcc42503          	lw	a0,-52(s0)
   13c04:	00000297          	auipc	t0,0x0
   13c08:	000280e7          	jalr	t0
   13c0c:	fea42423          	sw	a0,-24(s0)
   13c10:	feb42623          	sw	a1,-20(s0)

00013c14 <.LM262>:
   13c14:	fca45783          	lhu	a5,-54(s0)
   13c18:	00078593          	mv	a1,a5
   13c1c:	fcc42503          	lw	a0,-52(s0)
   13c20:	00000297          	auipc	t0,0x0
   13c24:	000280e7          	jalr	t0
   13c28:	fea42023          	sw	a0,-32(s0)
   13c2c:	feb42223          	sw	a1,-28(s0)

00013c30 <.LM263>:
   13c30:	fc042603          	lw	a2,-64(s0)
   13c34:	fc442683          	lw	a3,-60(s0)
   13c38:	fe042503          	lw	a0,-32(s0)
   13c3c:	fe442583          	lw	a1,-28(s0)
   13c40:	40a60733          	sub	a4,a2,a0
   13c44:	00e63833          	sltu	a6,a2,a4
   13c48:	40b687b3          	sub	a5,a3,a1
   13c4c:	410786b3          	sub	a3,a5,a6
   13c50:	00068793          	mv	a5,a3
   13c54:	00070613          	mv	a2,a4
   13c58:	00078693          	mv	a3,a5
   13c5c:	fe842503          	lw	a0,-24(s0)
   13c60:	fec42583          	lw	a1,-20(s0)
   13c64:	00a60733          	add	a4,a2,a0
   13c68:	00c73833          	sltu	a6,a4,a2
   13c6c:	00b687b3          	add	a5,a3,a1
   13c70:	00f806b3          	add	a3,a6,a5
   13c74:	00068793          	mv	a5,a3
   13c78:	fce42c23          	sw	a4,-40(s0)
   13c7c:	fcf42e23          	sw	a5,-36(s0)

00013c80 <.LM264>:
   13c80:	fd842703          	lw	a4,-40(s0)
   13c84:	fdc42783          	lw	a5,-36(s0)

00013c88 <.LM265>:
   13c88:	00070513          	mv	a0,a4
   13c8c:	00078593          	mv	a1,a5
   13c90:	03c12083          	lw	ra,60(sp)
   13c94:	03812403          	lw	s0,56(sp)
   13c98:	04010113          	addi	sp,sp,64
   13c9c:	00008067          	ret

00013ca0 <elf_loadFile>:
   13ca0:	fb010113          	addi	sp,sp,-80
   13ca4:	04112623          	sw	ra,76(sp)
   13ca8:	04812423          	sw	s0,72(sp)
   13cac:	04912223          	sw	s1,68(sp)
   13cb0:	05212023          	sw	s2,64(sp)
   13cb4:	03312e23          	sw	s3,60(sp)
   13cb8:	03412c23          	sw	s4,56(sp)
   13cbc:	03512a23          	sw	s5,52(sp)
   13cc0:	05010413          	addi	s0,sp,80
   13cc4:	faa42e23          	sw	a0,-68(s0)
   13cc8:	fab42c23          	sw	a1,-72(s0)

00013ccc <.LM267>:
   13ccc:	fbc42503          	lw	a0,-68(s0)
   13cd0:	00000297          	auipc	t0,0x0
   13cd4:	000280e7          	jalr	t0
   13cd8:	00050793          	mv	a5,a0
   13cdc:	00078663          	beqz	a5,13ce8 <.L151>

00013ce0 <.LM268>:
   13ce0:	00000793          	li	a5,0
   13ce4:	1980006f          	j	13e7c <.L152>

00013ce8 <.L151>:
   13ce8:	fc042e23          	sw	zero,-36(s0)
   13cec:	1700006f          	j	13e5c <.L153>

00013cf0 <.L156>:
   13cf0:	fb842783          	lw	a5,-72(s0)
   13cf4:	02078663          	beqz	a5,13d20 <.L154>

00013cf8 <.LM271>:
   13cf8:	fdc42783          	lw	a5,-36(s0)
   13cfc:	01079793          	slli	a5,a5,0x10
   13d00:	0107d793          	srli	a5,a5,0x10
   13d04:	00078593          	mv	a1,a5
   13d08:	fbc42503          	lw	a0,-68(s0)
   13d0c:	00000297          	auipc	t0,0x0
   13d10:	000280e7          	jalr	t0
   13d14:	fca42823          	sw	a0,-48(s0)
   13d18:	fcb42a23          	sw	a1,-44(s0)
   13d1c:	0280006f          	j	13d44 <.L155>

00013d20 <.L154>:
   13d20:	fdc42783          	lw	a5,-36(s0)
   13d24:	01079793          	slli	a5,a5,0x10
   13d28:	0107d793          	srli	a5,a5,0x10
   13d2c:	00078593          	mv	a1,a5
   13d30:	fbc42503          	lw	a0,-68(s0)
   13d34:	00000297          	auipc	t0,0x0
   13d38:	000280e7          	jalr	t0
   13d3c:	fca42823          	sw	a0,-48(s0)
   13d40:	fcb42a23          	sw	a1,-44(s0)

00013d44 <.L155>:
   13d44:	fdc42783          	lw	a5,-36(s0)
   13d48:	01079793          	slli	a5,a5,0x10
   13d4c:	0107d793          	srli	a5,a5,0x10
   13d50:	00078593          	mv	a1,a5
   13d54:	fbc42503          	lw	a0,-68(s0)
   13d58:	00000297          	auipc	t0,0x0
   13d5c:	000280e7          	jalr	t0
   13d60:	00050713          	mv	a4,a0
   13d64:	00058793          	mv	a5,a1
   13d68:	fce42623          	sw	a4,-52(s0)

00013d6c <.LM274>:
   13d6c:	fbc42783          	lw	a5,-68(s0)
   13d70:	00078913          	mv	s2,a5
   13d74:	00000993          	li	s3,0
   13d78:	fdc42783          	lw	a5,-36(s0)
   13d7c:	01079793          	slli	a5,a5,0x10
   13d80:	0107d793          	srli	a5,a5,0x10
   13d84:	00078593          	mv	a1,a5
   13d88:	fbc42503          	lw	a0,-68(s0)
   13d8c:	00000297          	auipc	t0,0x0
   13d90:	000280e7          	jalr	t0
   13d94:	00050613          	mv	a2,a0
   13d98:	00058693          	mv	a3,a1
   13d9c:	00c90733          	add	a4,s2,a2
   13da0:	012735b3          	sltu	a1,a4,s2
   13da4:	00d987b3          	add	a5,s3,a3
   13da8:	00f586b3          	add	a3,a1,a5
   13dac:	00068793          	mv	a5,a3
   13db0:	fce42023          	sw	a4,-64(s0)
   13db4:	fcf42223          	sw	a5,-60(s0)

00013db8 <.LM275>:
   13db8:	fd042783          	lw	a5,-48(s0)
   13dbc:	00078713          	mv	a4,a5
   13dc0:	fc042783          	lw	a5,-64(s0)
   13dc4:	fcc42603          	lw	a2,-52(s0)
   13dc8:	00078593          	mv	a1,a5
   13dcc:	00070513          	mv	a0,a4
   13dd0:	00000297          	auipc	t0,0x0
   13dd4:	000280e7          	jalr	t0

00013dd8 <.LM276>:
   13dd8:	fcc42783          	lw	a5,-52(s0)
   13ddc:	00078a13          	mv	s4,a5
   13de0:	00000a93          	li	s5,0
   13de4:	fd042603          	lw	a2,-48(s0)
   13de8:	fd442683          	lw	a3,-44(s0)
   13dec:	01460733          	add	a4,a2,s4
   13df0:	00c735b3          	sltu	a1,a4,a2
   13df4:	015687b3          	add	a5,a3,s5
   13df8:	00f586b3          	add	a3,a1,a5
   13dfc:	00068793          	mv	a5,a3
   13e00:	fce42823          	sw	a4,-48(s0)
   13e04:	fcf42a23          	sw	a5,-44(s0)

00013e08 <.LM277>:
   13e08:	fd042783          	lw	a5,-48(s0)
   13e0c:	00078493          	mv	s1,a5
   13e10:	fdc42783          	lw	a5,-36(s0)
   13e14:	01079793          	slli	a5,a5,0x10
   13e18:	0107d793          	srli	a5,a5,0x10
   13e1c:	00078593          	mv	a1,a5
   13e20:	fbc42503          	lw	a0,-68(s0)
   13e24:	00000297          	auipc	t0,0x0
   13e28:	000280e7          	jalr	t0
   13e2c:	00050713          	mv	a4,a0
   13e30:	00058793          	mv	a5,a1
   13e34:	fcc42783          	lw	a5,-52(s0)
   13e38:	40f707b3          	sub	a5,a4,a5
   13e3c:	00078613          	mv	a2,a5
   13e40:	00000593          	li	a1,0
   13e44:	00048513          	mv	a0,s1
   13e48:	00000297          	auipc	t0,0x0
   13e4c:	000280e7          	jalr	t0

00013e50 <.LBE3>:
   13e50:	fdc42783          	lw	a5,-36(s0)
   13e54:	00178793          	addi	a5,a5,1
   13e58:	fcf42e23          	sw	a5,-36(s0)

00013e5c <.L153>:
   13e5c:	fbc42503          	lw	a0,-68(s0)
   13e60:	00000297          	auipc	t0,0x0
   13e64:	000280e7          	jalr	t0
   13e68:	00050793          	mv	a5,a0
   13e6c:	00078713          	mv	a4,a5
   13e70:	fdc42783          	lw	a5,-36(s0)
   13e74:	e6e7cee3          	blt	a5,a4,13cf0 <.L156>

00013e78 <.LM280>:
   13e78:	00100793          	li	a5,1

00013e7c <.L152>:
   13e7c:	00078513          	mv	a0,a5
   13e80:	04c12083          	lw	ra,76(sp)
   13e84:	04812403          	lw	s0,72(sp)
   13e88:	04412483          	lw	s1,68(sp)
   13e8c:	04012903          	lw	s2,64(sp)
   13e90:	03c12983          	lw	s3,60(sp)
   13e94:	03812a03          	lw	s4,56(sp)
   13e98:	03412a83          	lw	s5,52(sp)
   13e9c:	05010113          	addi	sp,sp,80
   13ea0:	00008067          	ret

00013ea4 <parse_hex_str.constprop.0>:
   13ea4:	00850893          	addi	a7,a0,8 # 1000008 <.L0 +0xfebd58>

00013ea8 <.LM2>:
   13ea8:	00000793          	li	a5,0

00013eac <.LM3>:
   13eac:	00900813          	li	a6,9

00013eb0 <.LM4>:
   13eb0:	00500293          	li	t0,5
   13eb4:	0280006f          	j	13edc <.L6>

00013eb8 <.L11>:
   13eb8:	fbf70693          	addi	a3,a4,-65
   13ebc:	fa978593          	addi	a1,a5,-87
   13ec0:	0ff6f693          	andi	a3,a3,255

00013ec4 <.LM6>:
   13ec4:	02c2fc63          	bleu	a2,t0,13efc <.L9>
   13ec8:	fc978613          	addi	a2,a5,-55

00013ecc <.LM7>:
   13ecc:	02d2ee63          	bltu	t0,a3,13f08 <.L7>
   13ed0:	00150513          	addi	a0,a0,1

00013ed4 <.LM8>:
   13ed4:	00c707b3          	add	a5,a4,a2

00013ed8 <.LM9>:
   13ed8:	03150863          	beq	a0,a7,13f08 <.L7>

00013edc <.L6>:
   13edc:	00054703          	lbu	a4,0(a0)

00013ee0 <.LM11>:
   13ee0:	00479793          	slli	a5,a5,0x4
   13ee4:	fd078593          	addi	a1,a5,-48

00013ee8 <.LM12>:
   13ee8:	fd070693          	addi	a3,a4,-48

00013eec <.LM13>:
   13eec:	f9f70613          	addi	a2,a4,-97

00013ef0 <.LM14>:
   13ef0:	0ff6f693          	andi	a3,a3,255

00013ef4 <.LM15>:
   13ef4:	0ff67613          	andi	a2,a2,255

00013ef8 <.LM16>:
   13ef8:	fcd860e3          	bltu	a6,a3,13eb8 <.L11>

00013efc <.L9>:
   13efc:	00150513          	addi	a0,a0,1

00013f00 <.LM17>:
   13f00:	00b707b3          	add	a5,a4,a1

00013f04 <.LM18>:
   13f04:	fd151ce3          	bne	a0,a7,13edc <.L6>

00013f08 <.L7>:
   13f08:	00078513          	mv	a0,a5

00013f0c <.LM20>:
   13f0c:	00008067          	ret

00013f10 <cpio_parse_header>:
   13f10:	fe010113          	addi	sp,sp,-32
   13f14:	000007b7          	lui	a5,0x0
   13f18:	00000337          	lui	t1,0x0
   13f1c:	00112e23          	sw	ra,28(sp)
   13f20:	00812c23          	sw	s0,24(sp)
   13f24:	00912a23          	sw	s1,20(sp)
   13f28:	01212823          	sw	s2,16(sp)
   13f2c:	01312623          	sw	s3,12(sp)
   13f30:	01412423          	sw	s4,8(sp)
   13f34:	01512223          	sw	s5,4(sp)
   13f38:	00050813          	mv	a6,a0
   13f3c:	00078793          	mv	a5,a5
   13f40:	00030313          	mv	t1,t1

00013f44 <.L15>:
   13f44:	00084883          	lbu	a7,0(a6)
   13f48:	0007c283          	lbu	t0,0(a5) # 0 <buf.1018>
   13f4c:	00180813          	addi	a6,a6,1

00013f50 <.LVL10>:
   13f50:	00178793          	addi	a5,a5,1
   13f54:	0c589263          	bne	a7,t0,14018 <.L19>

00013f58 <.LM23>:
   13f58:	00088463          	beqz	a7,13f60 <.L14>

00013f5c <.LM24>:
   13f5c:	fe6794e3          	bne	a5,t1,13f44 <.L15>

00013f60 <.L14>:
   13f60:	00050413          	mv	s0,a0

00013f64 <.LBE17>:
   13f64:	03650513          	addi	a0,a0,54

00013f68 <.LVL11>:
   13f68:	00058a13          	mv	s4,a1
   13f6c:	00070913          	mv	s2,a4
   13f70:	00068993          	mv	s3,a3
   13f74:	00060493          	mv	s1,a2
   13f78:	00000297          	auipc	t0,0x0
   13f7c:	000280e7          	jalr	t0

00013f80 <.LM26>:
   13f80:	06e40793          	addi	a5,s0,110
   13f84:	000005b7          	lui	a1,0x0

00013f88 <.LM27>:
   13f88:	00050a93          	mv	s5,a0

00013f8c <.LM28>:
   13f8c:	00fa2023          	sw	a5,0(s4)

00013f90 <.LVL14>:
   13f90:	00058593          	mv	a1,a1
   13f94:	07940713          	addi	a4,s0,121

00013f98 <.L18>:
   13f98:	0005c803          	lbu	a6,0(a1) # 0 <buf.1018>
   13f9c:	0007c883          	lbu	a7,0(a5)
   13fa0:	00158593          	addi	a1,a1,1
   13fa4:	00178793          	addi	a5,a5,1

00013fa8 <.LVL16>:
   13fa8:	03181a63          	bne	a6,a7,13fdc <.L28>

00013fac <.LM30>:
   13fac:	00080463          	beqz	a6,13fb4 <.L20>

00013fb0 <.LM31>:
   13fb0:	fee794e3          	bne	a5,a4,13f98 <.L18>

00013fb4 <.L20>:
   13fb4:	00100513          	li	a0,1

00013fb8 <.L13>:
   13fb8:	01c12083          	lw	ra,28(sp)
   13fbc:	01812403          	lw	s0,24(sp)
   13fc0:	01412483          	lw	s1,20(sp)
   13fc4:	01012903          	lw	s2,16(sp)
   13fc8:	00c12983          	lw	s3,12(sp)
   13fcc:	00812a03          	lw	s4,8(sp)
   13fd0:	00412a83          	lw	s5,4(sp)
   13fd4:	02010113          	addi	sp,sp,32
   13fd8:	00008067          	ret

00013fdc <.L28>:
   13fdc:	05e40513          	addi	a0,s0,94

00013fe0 <.LVL19>:
   13fe0:	00000297          	auipc	t0,0x0
   13fe4:	000280e7          	jalr	t0

00013fe8 <.LBB21>:
   13fe8:	07140413          	addi	s0,s0,113

00013fec <.LVL21>:
   13fec:	00a40533          	add	a0,s0,a0

00013ff0 <.LVL22>:
   13ff0:	ffc57513          	andi	a0,a0,-4

00013ff4 <.LBE21>:
   13ff4:	003a8793          	addi	a5,s5,3
   13ff8:	00a787b3          	add	a5,a5,a0
   13ffc:	ffc7f793          	andi	a5,a5,-4

00014000 <.LM37>:
   14000:	00a9a023          	sw	a0,0(s3)

00014004 <.LM38>:
   14004:	00f92023          	sw	a5,0(s2)

00014008 <.LM39>:
   14008:	00048463          	beqz	s1,14010 <.L27>

0001400c <.LM40>:
   1400c:	0154a023          	sw	s5,0(s1)

00014010 <.L27>:
   14010:	00000513          	li	a0,0
   14014:	fa5ff06f          	j	13fb8 <.L13>

00014018 <.L19>:
   14018:	fff00513          	li	a0,-1

0001401c <.LVL26>:
   1401c:	f9dff06f          	j	13fb8 <.L13>

00014020 <cpio_get_entry>:
   14020:	fd010113          	addi	sp,sp,-48
   14024:	02112623          	sw	ra,44(sp)
   14028:	02812423          	sw	s0,40(sp)
   1402c:	02912223          	sw	s1,36(sp)
   14030:	03212023          	sw	s2,32(sp)
   14034:	01312e23          	sw	s3,28(sp)

00014038 <.LM44>:
   14038:	00012423          	sw	zero,8(sp)

0001403c <.LM45>:
   1403c:	0405c063          	bltz	a1,1407c <.L34>
   14040:	00058493          	mv	s1,a1
   14044:	00060913          	mv	s2,a2
   14048:	00068993          	mv	s3,a3
   1404c:	00000413          	li	s0,0
   14050:	00c0006f          	j	1405c <.L33>

00014054 <.L38>:
   14054:	00c12503          	lw	a0,12(sp)

00014058 <.LBE23>:
   14058:	0484c263          	blt	s1,s0,1409c <.L37>

0001405c <.L33>:
   1405c:	00c10713          	addi	a4,sp,12
   14060:	00810693          	addi	a3,sp,8
   14064:	00098613          	mv	a2,s3
   14068:	00090593          	mv	a1,s2
   1406c:	00000297          	auipc	t0,0x0
   14070:	000280e7          	jalr	t0

00014074 <.LBE24>:
   14074:	00140413          	addi	s0,s0,1

00014078 <.LBB25>:
   14078:	fc050ee3          	beqz	a0,14054 <.L38>

0001407c <.L34>:
   1407c:	00000513          	li	a0,0

00014080 <.L32>:
   14080:	02c12083          	lw	ra,44(sp)
   14084:	02812403          	lw	s0,40(sp)
   14088:	02412483          	lw	s1,36(sp)
   1408c:	02012903          	lw	s2,32(sp)
   14090:	01c12983          	lw	s3,28(sp)
   14094:	03010113          	addi	sp,sp,48
   14098:	00008067          	ret

0001409c <.L37>:
   1409c:	00812503          	lw	a0,8(sp)

000140a0 <.LVL36>:
   140a0:	fe1ff06f          	j	14080 <.L32>

000140a4 <cpio_get_file>:
   140a4:	fe010113          	addi	sp,sp,-32
   140a8:	00812c23          	sw	s0,24(sp)
   140ac:	00060413          	mv	s0,a2
   140b0:	00912a23          	sw	s1,20(sp)

000140b4 <.LBB26>:
   140b4:	00410713          	addi	a4,sp,4

000140b8 <.LBE26>:
   140b8:	00058493          	mv	s1,a1

000140bc <.LBB29>:
   140bc:	00810693          	addi	a3,sp,8
   140c0:	00040613          	mv	a2,s0

000140c4 <.LVL38>:
   140c4:	00c10593          	addi	a1,sp,12

000140c8 <.LBE29>:
   140c8:	00112e23          	sw	ra,28(sp)

000140cc <.LBB30>:
   140cc:	00000297          	auipc	t0,0x0
   140d0:	000280e7          	jalr	t0

000140d4 <.LM59>:
   140d4:	04051863          	bnez	a0,14124 <.L45>

000140d8 <.L51>:
   140d8:	00c12783          	lw	a5,12(sp)

000140dc <.LVL42>:
   140dc:	00048713          	mv	a4,s1
   140e0:	fff78593          	addi	a1,a5,-1
   140e4:	00c0006f          	j	140f0 <.L44>

000140e8 <.L41>:
   140e8:	04068a63          	beqz	a3,1413c <.L43>

000140ec <.LM62>:
   140ec:	04b78863          	beq	a5,a1,1413c <.L43>

000140f0 <.L44>:
   140f0:	00074683          	lbu	a3,0(a4)
   140f4:	0007c603          	lbu	a2,0(a5)
   140f8:	00170713          	addi	a4,a4,1
   140fc:	00178793          	addi	a5,a5,1

00014100 <.LVL45>:
   14100:	fec684e3          	beq	a3,a2,140e8 <.L41>

00014104 <.LBE27>:
   14104:	00412503          	lw	a0,4(sp)

00014108 <.LM65>:
   14108:	00410713          	addi	a4,sp,4
   1410c:	00810693          	addi	a3,sp,8
   14110:	00040613          	mv	a2,s0
   14114:	00c10593          	addi	a1,sp,12

00014118 <.LVL47>:
   14118:	00000297          	auipc	t0,0x0
   1411c:	000280e7          	jalr	t0

00014120 <.LM66>:
   14120:	fa050ce3          	beqz	a0,140d8 <.L51>

00014124 <.L45>:
   14124:	01c12083          	lw	ra,28(sp)

00014128 <.LBB31>:
   14128:	00000513          	li	a0,0

0001412c <.LBE31>:
   1412c:	01812403          	lw	s0,24(sp)

00014130 <.LVL51>:
   14130:	01412483          	lw	s1,20(sp)

00014134 <.LVL52>:
   14134:	02010113          	addi	sp,sp,32
   14138:	00008067          	ret

0001413c <.L43>:
   1413c:	01c12083          	lw	ra,28(sp)

00014140 <.LBB32>:
   14140:	00812503          	lw	a0,8(sp)

00014144 <.LBE32>:
   14144:	01812403          	lw	s0,24(sp)

00014148 <.LVL55>:
   14148:	01412483          	lw	s1,20(sp)

0001414c <.LVL56>:
   1414c:	02010113          	addi	sp,sp,32
   14150:	00008067          	ret

00014154 <cpio_info>:
   14154:	0c058463          	beqz	a1,1421c <.L57>

00014158 <.LM74>:
   14158:	fe010113          	addi	sp,sp,-32
   1415c:	00812c23          	sw	s0,24(sp)
   14160:	00912a23          	sw	s1,20(sp)
   14164:	01212823          	sw	s2,16(sp)
   14168:	00112e23          	sw	ra,28(sp)
   1416c:	00058413          	mv	s0,a1

00014170 <.LM75>:
   14170:	0005a023          	sw	zero,0(a1)

00014174 <.LM76>:
   14174:	0005a223          	sw	zero,4(a1)

00014178 <.LM77>:
   14178:	fff00493          	li	s1,-1

0001417c <.LM78>:
   1417c:	00100913          	li	s2,1

00014180 <.L54>:
   14180:	00010713          	mv	a4,sp
   14184:	00810693          	addi	a3,sp,8
   14188:	00c10613          	addi	a2,sp,12
   1418c:	00410593          	addi	a1,sp,4
   14190:	00000297          	auipc	t0,0x0
   14194:	000280e7          	jalr	t0

00014198 <.LM80>:
   14198:	06950063          	beq	a0,s1,141f8 <.L58>

0001419c <.L65>:
   1419c:	07250c63          	beq	a0,s2,14214 <.L59>

000141a0 <.LM82>:
   141a0:	00042703          	lw	a4,0(s0)

000141a4 <.LM83>:
   141a4:	00412683          	lw	a3,4(sp)

000141a8 <.LM84>:
   141a8:	00012503          	lw	a0,0(sp)

000141ac <.LM85>:
   141ac:	00170713          	addi	a4,a4,1
   141b0:	00e42023          	sw	a4,0(s0)

000141b4 <.LBB33>:
   141b4:	0006c783          	lbu	a5,0(a3)
   141b8:	fc0784e3          	beqz	a5,14180 <.L54>
   141bc:	00068793          	mv	a5,a3

000141c0 <.L56>:
   141c0:	00178793          	addi	a5,a5,1
   141c4:	0007c703          	lbu	a4,0(a5)
   141c8:	fe071ce3          	bnez	a4,141c0 <.L56>

000141cc <.LBE33>:
   141cc:	00442703          	lw	a4,4(s0)
   141d0:	40d787b3          	sub	a5,a5,a3

000141d4 <.LVL64>:
   141d4:	faf776e3          	bleu	a5,a4,14180 <.L54>

000141d8 <.LM88>:
   141d8:	00f42223          	sw	a5,4(s0)

000141dc <.LM89>:
   141dc:	00010713          	mv	a4,sp
   141e0:	00810693          	addi	a3,sp,8

000141e4 <.LVL65>:
   141e4:	00c10613          	addi	a2,sp,12
   141e8:	00410593          	addi	a1,sp,4

000141ec <.LVL66>:
   141ec:	00000297          	auipc	t0,0x0
   141f0:	000280e7          	jalr	t0

000141f4 <.LM90>:
   141f4:	fa9514e3          	bne	a0,s1,1419c <.L65>

000141f8 <.L58>:
   141f8:	00048513          	mv	a0,s1

000141fc <.L53>:
   141fc:	01c12083          	lw	ra,28(sp)
   14200:	01812403          	lw	s0,24(sp)

00014204 <.LVL69>:
   14204:	01412483          	lw	s1,20(sp)
   14208:	01012903          	lw	s2,16(sp)
   1420c:	02010113          	addi	sp,sp,32
   14210:	00008067          	ret

00014214 <.L59>:
   14214:	00000513          	li	a0,0

00014218 <.LVL71>:
   14218:	fe5ff06f          	j	141fc <.L53>

0001421c <.L57>:
   1421c:	00100513          	li	a0,1

00014220 <.LM94>:
   14220:	00008067          	ret

00014224 <cpio_ls>:
   14224:	08060463          	beqz	a2,142ac <.L78>

00014228 <.LM97>:
   14228:	fe010113          	addi	sp,sp,-32
   1422c:	00812c23          	sw	s0,24(sp)
   14230:	00912a23          	sw	s1,20(sp)
   14234:	01212823          	sw	s2,16(sp)
   14238:	00112e23          	sw	ra,28(sp)
   1423c:	00060913          	mv	s2,a2
   14240:	00058413          	mv	s0,a1

00014244 <.LM98>:
   14244:	00000493          	li	s1,0

00014248 <.L70>:
   14248:	00410713          	addi	a4,sp,4
   1424c:	00810693          	addi	a3,sp,8
   14250:	00c10613          	addi	a2,sp,12
   14254:	00010593          	mv	a1,sp
   14258:	00000297          	auipc	t0,0x0
   1425c:	000280e7          	jalr	t0

00014260 <.LM100>:
   14260:	02051c63          	bnez	a0,14298 <.L66>

00014264 <.LM101>:
   14264:	00012703          	lw	a4,0(sp)
   14268:	00042683          	lw	a3,0(s0)

0001426c <.LBB35>:
   1426c:	00074783          	lbu	a5,0(a4)
   14270:	00078c63          	beqz	a5,14288 <.L72>

00014274 <.L73>:
   14274:	00f68023          	sb	a5,0(a3)

00014278 <.LM104>:
   14278:	00170713          	addi	a4,a4,1

0001427c <.LM105>:
   1427c:	00074783          	lbu	a5,0(a4)

00014280 <.LM106>:
   14280:	00168693          	addi	a3,a3,1

00014284 <.LM107>:
   14284:	fe0798e3          	bnez	a5,14274 <.L73>

00014288 <.L72>:
   14288:	00148493          	addi	s1,s1,1

0001428c <.LM109>:
   1428c:	00412503          	lw	a0,4(sp)
   14290:	00440413          	addi	s0,s0,4

00014294 <.LM110>:
   14294:	fa991ae3          	bne	s2,s1,14248 <.L70>

00014298 <.L66>:
   14298:	01c12083          	lw	ra,28(sp)
   1429c:	01812403          	lw	s0,24(sp)
   142a0:	01412483          	lw	s1,20(sp)
   142a4:	01012903          	lw	s2,16(sp)
   142a8:	02010113          	addi	sp,sp,32

000142ac <.L78>:
   142ac:	00008067          	ret

Disassembly of section .vector:

00000000 <.L0 -0x40>:
   0:	30500073          	mrts
   4:	00000013          	nop
   8:	00000013          	nop
   c:	00000013          	nop
  10:	00000013          	nop
  14:	00000013          	nop
  18:	00000013          	nop
  1c:	00000013          	nop
  20:	00000013          	nop
  24:	00000013          	nop
  28:	00000013          	nop
  2c:	00000013          	nop
  30:	00000013          	nop
  34:	00000013          	nop
  38:	00000013          	nop
  3c:	00000013          	nop

00000040 <.L0 >:
  40:	00000417          	auipc	s0,0x0
  44:	00040413          	mv	s0,s0
  48:	00040067          	jr	s0
  4c:	00000013          	nop
  50:	00000013          	nop
  54:	00000013          	nop
  58:	00000013          	nop
  5c:	00000013          	nop
  60:	00000013          	nop
  64:	00000013          	nop
  68:	00000013          	nop
  6c:	00000013          	nop
  70:	00000013          	nop
  74:	00000013          	nop
  78:	00000013          	nop
  7c:	00000013          	nop
  80:	00000013          	nop
  84:	00000013          	nop

00000088 <.L0 >:
  88:	00000417          	auipc	s0,0x0
  8c:	00040413          	mv	s0,s0
  90:	00040067          	jr	s0
  94:	00000013          	nop
  98:	00000013          	nop
  9c:	00000013          	nop
  a0:	00000013          	nop
  a4:	00000013          	nop
  a8:	00000013          	nop
  ac:	00000013          	nop
  b0:	00000013          	nop
  b4:	00000013          	nop
  b8:	00000013          	nop
  bc:	00000013          	nop
  c0:	00000013          	nop
  c4:	00000013          	nop
  c8:	00000013          	nop
  cc:	00000013          	nop

000000d0 <.L0 >:
  d0:	00000417          	auipc	s0,0x0
  d4:	00040413          	mv	s0,s0
  d8:	00040067          	jr	s0
  dc:	00000013          	nop
  e0:	00000013          	nop
  e4:	00000013          	nop
  e8:	00000013          	nop
  ec:	00000013          	nop
  f0:	00000013          	nop
  f4:	00000013          	nop
  f8:	00000013          	nop
  fc:	00000013          	nop
 100:	00000013          	nop
 104:	00000013          	nop
 108:	00000013          	nop
 10c:	00000013          	nop
 110:	00000013          	nop
 114:	00000013          	nop

00000118 <.L0 >:
 118:	00000417          	auipc	s0,0x0
 11c:	00040413          	mv	s0,s0

00000120 <.L0 >:
 120:	00000417          	auipc	s0,0x0
 124:	00040413          	mv	s0,s0
 128:	00040067          	jr	s0

Disassembly of section .rodata:

0000012c <.LC0>:
 12c:	6870                	0x6870
 12e:	7379                	bltz	a4,4c <.LASF16+0x1>
 130:	3d20                	srai	s10,s10,0x28
 132:	2520                	srai	a0,a0,0x8
 134:	2064                	0x2064
 136:	000a                	j	138 <.LC1>

00000138 <.LC1>:
 138:	6e72654b          	0x6e72654b
 13c:	6c65                	bltz	s0,234 <.LC7+0x14>
 13e:	6c20                	srl	s0,s0,s0
 140:	2064616f          	jal	sp,46346 <.L0 +0x32096>
 144:	6461                	bltz	s0,19c <.LC3+0x20>
 146:	7264                	0x7264
 148:	7365                	bltz	a4,80 <.LASF32>
 14a:	6f772073          	csrs	0x6f7,a4
 14e:	6c75                	bltz	s0,24a <.LC8+0x12>
 150:	2064                	0x2064
 152:	7265766f          	jal	a2,57878 <.L0 +0x435c8>
 156:	616c                	0x616c
 158:	2070                	0x2070
 15a:	4c45                	sw	a7,24(sp)
 15c:	2d46                	jal	80c <.LASF8+0x2>
 15e:	6f6c                	sltu	a1,a4,a1
 160:	6461                	bltz	s0,1b8 <.LC5>
 162:	7265                	bltz	a2,9a <.LASF47+0xb>
 164:	0a21                	slli	s4,s4,0x8
	...

00000168 <.LC2>:
 168:	6d69                	bltz	a0,242 <.LC8+0xa>
 16a:	6761                	bltz	a4,1c2 <.LC5+0xa>
 16c:	5f65                	sw	s9,188(sp)
 16e:	657a6973          	csrrs	s2,0x657,20
 172:	3d20                	srai	s10,s10,0x28
 174:	3020                	0x3020
 176:	2578                	srai	a0,a0,0x1e
 178:	0a78                	mv	s4,t5
	...

0000017c <.LC3>:
 17c:	696d                	bltz	a0,236 <.LC7+0x16>
 17e:	5f6e                	beqz	a4,178 <.LC2+0x10>
 180:	6176                	bnez	a0,1bc <.LC5+0x4>
 182:	6464                	sltu	s0,s0,s1
 184:	2072                	jal	1a0 <.LC4>
 186:	203d                	0x203d
 188:	7830                	0x7830
 18a:	7825                	bltz	s0,132 <.LC0+0x6>
 18c:	6d0a                	bnez	a0,24e <.LC9+0x2>
 18e:	7861                	bltz	s0,126 <.L0 +0x6>
 190:	765f 6461 7264      	0x72646461765f
 196:	3d20                	srai	s10,s10,0x28
 198:	3020                	0x3020
 19a:	2578                	srai	a0,a0,0x1e
 19c:	0a78                	mv	s4,t5
	...

000001a0 <.LC4>:
 1a0:	6564                	sltu	a0,a0,s1
 1a2:	61207473          	csrrc	s0,0x612,0
 1a6:	6464                	sltu	s0,s0,s1
 1a8:	6572                	bnez	a0,204 <.LC6+0x14>
 1aa:	3d207373          	csrrc	t1,0x3d2,0
 1ae:	3020                	0x3020
 1b0:	2578                	srai	a0,a0,0x1e
 1b2:	2078                	0x2078
 1b4:	000a                	j	1b6 <.LC4+0x16>
	...

000001b8 <.LC5>:
 1b8:	7441                	bltz	s0,108 <.LASF63+0x6>
 1ba:	6574                	sltu	a0,a0,a3
 1bc:	706d                	bltz	s0,f6 <.LASF31+0x3>
 1be:	6974                	0x6974
 1c0:	676e                	bnez	a4,23a <.LC8+0x2>
 1c2:	7420                	0x7420
 1c4:	6f6c206f          	j	c28ba <.L0 +0xae60a>
 1c8:	6461                	bltz	s0,220 <.LC7>
 1ca:	4520                	sw	s0,72(a0)
 1cc:	464c                	sw	a1,12(a2)
 1ce:	6120                	sra	a0,a0,s0
 1d0:	2074                	0x2074
 1d2:	6e75                	bltz	a2,2ce <.LC13+0x1e>
 1d4:	6c61                	bltz	s0,2ac <.LC12+0x28>
 1d6:	6769                	bltz	a4,230 <.LC7+0x10>
 1d8:	656e                	bnez	a0,252 <.LC9+0x6>
 1da:	2064                	0x2064
 1dc:	6870                	0x6870
 1de:	7379                	bltz	a4,fc <.LASF29+0x1>
 1e0:	6369                	bltz	a4,1fa <.LC6+0xa>
 1e2:	6c61                	bltz	s0,2ba <.LC13+0xa>
 1e4:	6120                	sra	a0,a0,s0
 1e6:	6464                	sltu	s0,s0,s1
 1e8:	6572                	bnez	a0,244 <.LC8+0xc>
 1ea:	0a217373          	csrrc	t1,0xa2,2
	...

000001f0 <.LC6>:
 1f0:	6e49                	bltz	a2,2c2 <.LC13+0x12>
 1f2:	7570                	0x7570
 1f4:	2074                	0x2074
 1f6:	4c45                	sw	a7,24(sp)
 1f8:	2046                	jal	228 <.LC7+0x8>
 1fa:	6966                	bnez	a0,2b2 <.LC13+0x2>
 1fc:	656c                	sltu	a0,a0,a1
 1fe:	6e20                	srl	s0,a2,s0
 200:	3420746f          	jal	s0,7542 <.Ldebug_info0+0x49b5>
 204:	622d                	bltz	a2,22e <.LC7+0xe>
 206:	7479                	bltz	s0,164 <.LC1+0x2c>
 208:	2065                	0x2065
 20a:	6c61                	bltz	s0,2e2 <.LC14+0xa>
 20c:	6769                	bltz	a4,266 <.LC10+0xa>
 20e:	656e                	bnez	a0,288 <.LC12+0x4>
 210:	2064                	0x2064
 212:	6e69                	bltz	a2,2ec <.LC14+0x14>
 214:	6d20                	srl	s0,a0,s0
 216:	6d65                	bltz	a0,30e <.LC16+0xe>
 218:	2179726f          	jal	tp,97c2e <.L0 +0x8397e>
 21c:	000a                	j	21e <.LC6+0x2e>
	...

00000220 <.LC7>:
 220:	4c45                	sw	a7,24(sp)
 222:	2d46                	jal	8d2 <.L0 +0x2>
 224:	6f6c                	sltu	a1,a4,a1
 226:	6461                	bltz	s0,27e <.LC11+0xe>
 228:	6e69                	bltz	a2,302 <.LC16+0x2>
 22a:	6d692067          	0x6d692067
 22e:	6761                	bltz	a4,286 <.LC12+0x2>
 230:	2065                	0x2065
 232:	27732527          	fsw	fs7,618(t1) # 26a <.LC10+0xe>
 236:	000a                	j	238 <.LC8>

00000238 <.LC8>:
 238:	2020                	0x2020
 23a:	6170                	0x6170
 23c:	6464                	sltu	s0,s0,s1
 23e:	3d72                	jal	da <.LASF82+0x3>
 240:	2e78255b          	custom2	10,a6,7,23
 244:	252e                	jal	4ee <.LC33+0xa>
 246:	5d78                	sw	a4,124(a0)
 248:	000a                	j	24a <.LC8+0x12>
	...

0000024c <.LC9>:
 24c:	6176                	bnez	a0,288 <.LC12+0x4>
 24e:	6464                	sltu	s0,s0,s1
 250:	2072                	jal	26c <.LC10+0x10>
 252:	203d                	0x203d
 254:	7830                	0x7830
 256:	7825                	bltz	s0,1fe <.LC6+0xe>
 258:	000a                	j	25a <.LC9+0xe>
	...

0000025c <.LC10>:
 25c:	2020                	0x2020
 25e:	6176                	bnez	a0,29a <.LC12+0x16>
 260:	6464                	sltu	s0,s0,s1
 262:	3d72                	jal	fe <.LASF29+0x3>
 264:	2e78255b          	custom2	10,a6,7,23
 268:	252e                	jal	512 <.LC34+0xe>
 26a:	5d78                	sw	a4,124(a0)
 26c:	000a                	j	26e <.LC10+0x12>
	...

00000270 <.LC11>:
 270:	2020                	0x2020
 272:	6976                	bnez	a0,32e <.LC17+0x6>
 274:	7472                	bnez	s0,1d0 <.LC5+0x18>
 276:	655f 746e 7972      	0x7972746e655f
 27c:	253d                	srli	a0,a0,0xf
 27e:	0a78                	mv	s4,t5
 280:	0000                	unimp
	...

00000284 <.LC12>:
 284:	7441                	bltz	s0,1d4 <.LC5+0x1c>
 286:	6574                	sltu	a0,a0,a3
 288:	706d                	bltz	s0,1c2 <.LC5+0xa>
 28a:	6974                	0x6974
 28c:	676e                	bnez	a4,306 <.LC16+0x6>
 28e:	7420                	0x7420
 290:	6f6c206f          	j	c2986 <.L0 +0xae6d6>
 294:	6461                	bltz	s0,2ec <.LC14+0x14>
 296:	6920                	0x6920
 298:	766e                	bnez	a2,212 <.LC6+0x22>
 29a:	6c61                	bltz	s0,372 <.LC19+0x1e>
 29c:	6469                	bltz	s0,2f6 <.LC15+0x2>
 29e:	4520                	sw	s0,72(a0)
 2a0:	464c                	sw	a1,12(a2)
 2a2:	6620                	srl	a2,a2,s0
 2a4:	6c69                	bltz	s0,37e <.LC19+0x2a>
 2a6:	2065                	0x2065
 2a8:	27732527          	fsw	fs7,618(t1)
 2ac:	0a2e                	j	7d6 <.Ldebug_abbrev0+0xa>
	...

000002b0 <.LC13>:
 2b0:	72617453          	0x72617453
 2b4:	2074                	0x2074
 2b6:	6920666f          	jal	a2,6948 <.Ldebug_info0+0x3dbb>
 2ba:	616d                	bltz	a0,2f4 <.LC15>
 2bc:	27206567          	0x27206567
 2c0:	7325                	bltz	a4,1e8 <.LC5+0x30>
 2c2:	73692027          	fsw	fs6,1824(s2)
 2c6:	6e20                	srl	s0,a2,s0
 2c8:	3420746f          	jal	s0,760a <.Ldebug_info0+0x4a7d>
 2cc:	6c612d4b          	0x6c612d4b
 2d0:	6769                	bltz	a4,32a <.LC17+0x2>
 2d2:	656e                	bnez	a0,34c <.LC18>
 2d4:	2164                	srai	sp,sp,0x19
 2d6:	000a                	j	2d8 <.LC14>

000002d8 <.LC14>:
 2d8:	6e69                	bltz	a2,3b2 <.LC22+0x2>
 2da:	6f66                	bnez	a4,3d2 <.LC23+0x16>
 2dc:	3e2d                	srli	t3,t3,0x2b
 2de:	6976                	bnez	a0,39a <.LC20+0x1a>
 2e0:	7472                	bnez	s0,23c <.LC8+0x4>
 2e2:	655f 746e 7972      	0x7972746e655f
 2e8:	3d20                	srai	s10,s10,0x28
 2ea:	3020                	0x3020
 2ec:	2578                	srai	a0,a0,0x1e
 2ee:	0a78                	mv	s4,t5
 2f0:	0000                	unimp
	...

000002f4 <.LC15>:
 2f4:	6e72656b          	0x6e72656b
 2f8:	6c65                	bltz	s0,3f0 <.LC24+0x10>
 2fa:	652e                	bnez	a0,364 <.LC19+0x10>
 2fc:	666c                	sltu	a2,a2,a1
	...

00000300 <.LC16>:
 300:	6f4e                	bnez	a4,3f2 <.LC24+0x12>
 302:	6b20                	0x6b20
 304:	7265                	bltz	a2,23c <.LC8+0x4>
 306:	656e                	bnez	a0,380 <.LC20>
 308:	206c                	0x206c
 30a:	6d69                	bltz	a0,3e4 <.LC24+0x4>
 30c:	6761                	bltz	a4,364 <.LC19+0x10>
 30e:	2065                	0x2065
 310:	7270                	0x7270
 312:	7365                	bltz	a4,24a <.LC8+0x12>
 314:	6e65                	bltz	a2,40c <.LC25+0x4>
 316:	2074                	0x2074
 318:	6e69                	bltz	a2,3f2 <.LC24+0x12>
 31a:	6120                	sra	a0,a0,s0
 31c:	6372                	bnez	a4,338 <.LC17+0x10>
 31e:	6968                	0x6968
 320:	6576                	bnez	a0,39c <.LC20+0x1c>
 322:	0a21                	slli	s4,s4,0x8
 324:	0000                	unimp
	...

00000328 <.LC17>:
 328:	6e72654b          	0x6e72654b
 32c:	6c65                	bltz	s0,424 <.LC26+0x14>
 32e:	6920                	0x6920
 330:	616d                	bltz	a0,36a <.LC19+0x16>
 332:	6e206567          	0x6e206567
 336:	6120746f          	jal	s0,7948 <.Ldebug_info0+0x4dbb>
 33a:	7620                	0x7620
 33c:	6c61                	bltz	s0,414 <.LC26+0x4>
 33e:	6469                	bltz	s0,398 <.LC20+0x18>
 340:	4520                	sw	s0,72(a0)
 342:	464c                	sw	a1,12(a2)
 344:	6620                	srl	a2,a2,s0
 346:	6c69                	bltz	s0,420 <.LC26+0x10>
 348:	2165                	srli	sp,sp,0x19
 34a:	000a                	j	34c <.LC18>

0000034c <.LC18>:
 34c:	6e72656b          	0x6e72656b
 350:	6c65                	bltz	s0,448 <.LC27+0xc>
	...

00000354 <.LC19>:
 354:	6e72654b          	0x6e72654b
 358:	6c65                	bltz	s0,450 <.LC28>
 35a:	6920                	0x6920
 35c:	616d                	bltz	a0,396 <.LC20+0x16>
 35e:	6e206567          	0x6e206567
 362:	6620746f          	jal	s0,79c4 <.Ldebug_info0+0x4e37>
 366:	7269                	bltz	a2,280 <.LC11+0x10>
 368:	69207473          	csrrc	s0,0x692,0
 36c:	616d                	bltz	a0,3a6 <.LC21+0x2>
 36e:	69206567          	0x69206567
 372:	206e                	jal	3ac <.LC21+0x8>
 374:	7261                	bltz	a2,28c <.LC12+0x8>
 376:	76696863          	bltu	s2,t1,ae6 <.L0 +0xa>
 37a:	2e65                	srli	t3,t3,0x19
 37c:	000a                	j	37e <.LC19+0x2a>
	...

00000380 <.LC20>:
 380:	6f636553          	0x6f636553
 384:	646e                	bnez	s0,3fe <.LC24+0x1e>
 386:	7261                	bltz	a2,29e <.LC12+0x1a>
 388:	2079                	0x2079
 38a:	7250                	0x7250
 38c:	7365636f          	jal	t1,56ac2 <.L0 +0x42812>
 390:	20726f73          	csrrs	t5,0x207,4
 394:	2c642523          	sw	t1,714(s0) # 3ea <.LC24+0xa>
 398:	6220                	sra	a2,a2,s0
 39a:	69746f6f          	jal	t5,47230 <.L0 +0x32f80>
 39e:	676e                	bnez	a4,418 <.LC26+0x8>
 3a0:	0a20                	mv	s4,s0
	...

000003a4 <.LC21>:
 3a4:	6568                	sltu	a0,a0,a0
 3a6:	6c6c                	sltu	a1,s0,a1
 3a8:	78652e6f          	jal	t3,52b2e <.L0 +0x3e87e>
 3ac:	0065                	0x65
	...

000003b0 <.LC22>:
 3b0:	6568                	sltu	a0,a0,a0
 3b2:	6c6c                	sltu	a1,s0,a1
 3b4:	652e316f          	jal	sp,e3a06 <.L0 +0xcf756>
 3b8:	6578                	sltu	a0,a0,a4
	...

000003bc <.LC23>:
 3bc:	6f636573          	csrrs	a0,0x6f6,6
 3c0:	646e                	bnez	s0,43a <.LC26+0x2a>
 3c2:	7261                	bltz	a2,2da <.LC14+0x2>
 3c4:	2079                	0x2079
 3c6:	7270                	0x7270
 3c8:	7365636f          	jal	t1,56afe <.L0 +0x4284e>
 3cc:	20726f73          	csrrs	t5,0x207,4
 3d0:	68746977          	0x68746977
 3d4:	7020                	0x7020
 3d6:	2064                	0x2064
 3d8:	203d                	0x203d
 3da:	7830                	0x7830
 3dc:	7825                	bltz	s0,384 <.LC20+0x4>
 3de:	000a                	j	3e0 <.LC24>

000003e0 <.LC24>:
 3e0:	6f636573          	csrrs	a0,0x6f6,6
 3e4:	646e                	bnez	s0,45e <.LC28+0xe>
 3e6:	7261                	bltz	a2,2fe <.LC15+0xa>
 3e8:	2079                	0x2079
 3ea:	7270                	0x7270
 3ec:	7365636f          	jal	t1,56b22 <.L0 +0x42872>
 3f0:	20726f73          	csrrs	t5,0x207,4
 3f4:	6e72656b          	0x6e72656b
 3f8:	6c65                	bltz	s0,4f0 <.LC33+0xc>
 3fa:	7020                	0x7020
 3fc:	7968                	0x7968
 3fe:	203d2073          	csrs	0x203,s10
 402:	7830                	0x7830
 404:	7825                	bltz	s0,3ac <.LC21+0x8>
 406:	000a                	j	408 <.LC25>

00000408 <.LC25>:
 408:	5452                	beqz	s0,35c <.LC19+0x8>
 40a:	4d45                	sw	a7,152(sp)
 40c:	00000053          	fadd.s	ft0,ft0,ft0,rne

00000410 <.LC26>:
 410:	6f636573          	csrrs	a0,0x6f6,6
 414:	646e                	bnez	s0,48e <.LC29+0xe>
 416:	7261                	bltz	a2,32e <.LC17+0x6>
 418:	2079                	0x2079
 41a:	7270                	0x7270
 41c:	7365636f          	jal	t1,56b52 <.L0 +0x428a2>
 420:	20726f73          	csrrs	t5,0x207,4
 424:	656e                	bnez	a0,49e <.LC30+0x6>
 426:	7478                	0x7478
 428:	705f 7968 5f73      	0x5f737968705f
 42e:	6461                	bltz	s0,486 <.LC29+0x6>
 430:	7264                	0x7264
 432:	3d20                	srai	s10,s10,0x28
 434:	3020                	0x3020
 436:	2578                	srai	a0,a0,0x1e
 438:	0a78                	mv	s4,t5
	...

0000043c <.LC27>:
 43c:	6e72654b          	0x6e72654b
 440:	6c65                	bltz	s0,538 <.LC35+0x4>
 442:	6c20                	srl	s0,s0,s0
 444:	6564616f          	jal	sp,46a9a <.L0 +0x327ea>
 448:	2164                	srai	sp,sp,0x19
 44a:	0a20                	mv	s4,s0
 44c:	0000                	unimp
	...

00000450 <.LC28>:
 450:	754a                	bnez	a0,3a2 <.LC20+0x22>
 452:	706d                	bltz	s0,38c <.LC20+0xc>
 454:	6e69                	bltz	a2,52e <.LC34+0x2a>
 456:	6f742067          	0x6f742067
 45a:	6b20                	0x6b20
 45c:	7265                	bltz	a2,394 <.LC20+0x14>
 45e:	656e                	bnez	a0,4d8 <.LC32+0x14>
 460:	206c                	0x206c
 462:	7266                	bnez	a2,39a <.LC20+0x1a>
 464:	73206d6f          	jal	s10,6b96 <.Ldebug_info0+0x4009>
 468:	6365                	bltz	a4,4a0 <.LC30+0x8>
 46a:	61646e6f          	jal	t3,46a80 <.L0 +0x327d0>
 46e:	7972                	bnez	a0,40a <.LC25+0x2>
 470:	7020                	0x7020
 472:	6f72                	bnez	a4,54e <.LC35+0x1a>
 474:	73736563          	bltu	t1,s7,b9e <.LASF2+0x1>
 478:	0a20726f          	jal	tp,751a <.Ldebug_info0+0x498d>
 47c:	0000                	unimp
	...

00000480 <.LC29>:
 480:	450a                	beqz	a0,4c2 <.LC31+0x16>
 482:	464c                	sw	a1,12(a2)
 484:	6c2d                	bltz	s0,56e <.LC36+0xe>
 486:	6564616f          	jal	sp,46adc <.L0 +0x3282c>
 48a:	2072                	jal	4a6 <.LC30+0xe>
 48c:	72617473          	csrrc	s0,0x726,2
 490:	6574                	sltu	a0,a0,a3
 492:	2064                	0x2064
 494:	00206e6f          	jal	t3,6496 <.Ldebug_info0+0x3909>

00000498 <.LC30>:
 498:	2020                	0x2020
 49a:	6170                	0x6170
 49c:	6464                	sltu	s0,s0,s1
 49e:	3d72                	jal	33a <.LC17+0x12>
 4a0:	2e70255b          	custom2	10,zero,7,23
 4a4:	252e                	jal	74e <.L0 +0x2>
 4a6:	5d70                	sw	a2,124(a0)
 4a8:	000a                	j	4aa <.LC30+0x12>
	...

000004ac <.LC31>:
 4ac:	6f4e                	bnez	a4,59e <.LC0+0x12>
 4ae:	7520                	0x7520
 4b0:	20726573          	csrrs	a0,0x207,4
 4b4:	6d69                	bltz	a0,58e <.LC0+0x2>
 4b6:	6761                	bltz	a4,50e <.LC34+0xa>
 4b8:	7365                	bltz	a4,3f0 <.LC24+0x10>
 4ba:	6c20                	srl	s0,s0,s0
 4bc:	6564616f          	jal	sp,46b12 <.L0 +0x32862>
 4c0:	2164                	srai	sp,sp,0x19
 4c2:	000a                	j	4c4 <.LC32>

000004c4 <.LC32>:
 4c4:	6c65                	bltz	s0,5bc <.L18+0x18>
 4c6:	6c66                	bnez	s0,5be <.L18+0x1a>
 4c8:	6564616f          	jal	sp,46b1e <.L0 +0x3286e>
 4cc:	3a72                	jal	1e8 <.LC5+0x30>
 4ce:	6b20                	0x6b20
 4d0:	7265                	bltz	a2,408 <.LC25>
 4d2:	656e                	bnez	a0,54c <.LC35+0x18>
 4d4:	5f6c                	sw	a1,124(a4)
 4d6:	6c65                	bltz	s0,5ce <.L18+0x2a>
 4d8:	2066                	jal	510 <.LC34+0xc>
 4da:	203d                	0x203d
 4dc:	7830                	0x7830
 4de:	7825                	bltz	s0,486 <.LC29+0x6>
 4e0:	000a                	j	4e2 <.LC32+0x1e>
	...

000004e4 <.LC33>:
 4e4:	3a31                	srli	s4,s4,0x2c
 4e6:	4b20                	sw	s0,80(a4)
 4e8:	7265                	bltz	a2,420 <.LC26+0x10>
 4ea:	656e                	bnez	a0,564 <.LC36+0x4>
 4ec:	206c                	0x206c
 4ee:	6e65                	bltz	a2,5e6 <.L18+0x42>
 4f0:	7274                	0x7274
 4f2:	2079                	0x2079
 4f4:	6f70                	sltu	a2,a4,a2
 4f6:	6e69                	bltz	a2,5d0 <.L18+0x2c>
 4f8:	2074                	0x2074
 4fa:	7369                	bltz	a4,414 <.LC26+0x4>
 4fc:	3020                	0x3020
 4fe:	2578                	srai	a0,a0,0x1e
 500:	0a78                	mv	s4,t5
	...

00000504 <.LC34>:
 504:	6c65                	bltz	s0,5fc <.L18+0x58>
 506:	6c66                	bnez	s0,5fe <.L18+0x5a>
 508:	6564616f          	jal	sp,46b5e <.L0 +0x328ae>
 50c:	3a72                	jal	228 <.LC7+0x8>
 50e:	7520                	0x7520
 510:	5f726573          	csrrs	a0,0x5f7,4
 514:	6e69                	bltz	a2,5ee <.L18+0x4a>
 516:	6f66                	bnez	a4,60e <.L18+0x6a>
 518:	702e                	bnez	s0,442 <.LC27+0x6>
 51a:	7968                	0x7968
 51c:	69765f73          	csrrw	t5,0x697,12
 520:	7472                	bnez	s0,47c <.LC28+0x2c>
 522:	6f5f 6666 6573      	0x657366666f5f
 528:	2074                	0x2074
 52a:	203d                	0x203d
 52c:	7830                	0x7830
 52e:	7825                	bltz	s0,4d6 <.LC32+0x12>
 530:	000a                	j	532 <.LC34+0x2e>
	...

00000534 <.LC35>:
 534:	754a                	bnez	a0,486 <.LC29+0x6>
 536:	706d                	bltz	s0,470 <.LC28+0x20>
 538:	6e69                	bltz	a2,612 <.L18+0x6e>
 53a:	6f742067          	0x6f742067
 53e:	6b20                	0x6b20
 540:	7265                	bltz	a2,478 <.LC28+0x28>
 542:	656e                	bnez	a0,5bc <.L18+0x18>
 544:	2d6c                	srai	s10,s10,0x1b
 546:	6d69                	bltz	a0,620 <.L18+0x7c>
 548:	6761                	bltz	a4,5a0 <.LC0>
 54a:	2065                	0x2065
 54c:	6e65                	bltz	a2,644 <.L18+0xa0>
 54e:	7274                	0x7274
 550:	2079                	0x2079
 552:	6f70                	sltu	a2,a4,a2
 554:	6e69                	bltz	a2,62e <.L18+0x8a>
 556:	2e74                	srai	t3,t3,0x1d
 558:	2e2e                	jal	c82 <.L0 +0x6>
 55a:	0a0a                	j	a5c <.L0 +0x14>
 55c:	0000                	unimp
	...

00000560 <.LC36>:
 560:	6e72654b          	0x6e72654b
 564:	6c65                	bltz	s0,65c <.L18+0xb8>
 566:	7220                	0x7220
 568:	7465                	bltz	s0,4e0 <.LC32+0x1c>
 56a:	7275                	bltz	a2,4a6 <.LC30+0xe>
 56c:	656e                	bnez	a0,5e6 <.L18+0x42>
 56e:	2064                	0x2064
 570:	6162                	bnez	a0,588 <.LC36+0x28>
 572:	74206b63          	bltu	zero,sp,cc8 <.LASF46>
 576:	6874206f          	j	433fc <.L0 +0x2f14c>
 57a:	2065                	0x2065
 57c:	6c65                	bltz	s0,674 <.L18+0xd0>
 57e:	2d66                	jal	c36 <.LASF19+0x5>
 580:	6f6c                	sltu	a1,a4,a1
 582:	6461                	bltz	s0,5da <.L18+0x36>
 584:	7265                	bltz	a2,4bc <.LC31+0x10>
 586:	0a2e                	j	ab0 <.LASF4+0x2>
 588:	0000                	unimp
	...

0000058c <.LC0>:
 58c:	6261                	bltz	a2,5a4 <.L18>
 58e:	2874726f          	jal	tp,48014 <.L0 +0x33d64>
 592:	2029                	0x2029
 594:	6c6c6163          	bltu	s8,t1,c56 <.Ldebug_info0+0x1>
 598:	6465                	bltz	s0,610 <.L18+0x6c>
 59a:	0a2e                	j	ac4 <.LASF28+0x3>
 59c:	0000                	unimp
	...

000005a0 <.LC0>:
 5a0:	0030                	0x30
	...

000005a4 <.L18>:
	...

000006d4 <hex.1005>:
 6d4:	3130                	srai	sp,sp,0x2c
 6d6:	3332                	jal	62 <user_info+0x2>
 6d8:	3534                	srai	a0,a0,0x2d
 6da:	3736                	jal	286 <.LC12+0x2>
 6dc:	3938                	srai	s2,s2,0x2e
 6de:	6261                	bltz	a2,6f6 <.LC0+0x2>
 6e0:	66656463          	bltu	a0,t1,d48 <.L0 +0x4>
 6e4:	0000                	unimp
	...

000006e8 <.LC0>:
 6e8:	633c                	sra	a4,a4,a5
 6ea:	7572726f          	jal	tp,28640 <.L0 +0x14390>
 6ee:	7470                	0x7470
 6f0:	6465                	bltz	s0,768 <.LASF28+0x18>
 6f2:	003e                	j	720 <_etext+0xd>

000006f4 <.LC0>:
 6f4:	633c                	sra	a4,a4,a5
 6f6:	7572726f          	jal	tp,2864c <.L0 +0x1439c>
 6fa:	7470                	0x7470
 6fc:	6465                	bltz	s0,774 <.L0 +0x8>
 6fe:	003e                	j	72c <.LASF30+0x5>

00000700 <.LC0>:
 700:	3730                	srai	a4,a4,0x2c
 702:	3730                	srai	a4,a4,0x2c
 704:	3130                	srai	sp,sp,0x2c
	...

00000708 <.LC1>:
 708:	5254                	sw	a3,36(a2)
 70a:	4941                	sw	a6,144(sp)
 70c:	454c                	sw	a1,12(a0)
 70e:	2152                	jal	7a2 <.L0 +0x16>
 710:	2121                	srli	sp,sp,0x8
	...

Disassembly of section .eh_frame:

00000714 <.L0 -0x1c>:
     714:	0010                	0x10
     716:	0000                	unimp
     718:	0000                	unimp
     71a:	0000                	unimp
     71c:	7a01                	bltz	a2,69c <.Ldebug_abbrev0+0x7>
     71e:	0052                	j	732 <.L0 +0x2>
     720:	0401                	slli	s0,s0,0x0
     722:	0101                	slli	sp,sp,0x0
     724:	00020d1b          	0x20d1b
     728:	0018                	0x18
     72a:	0000                	unimp
     72c:	0018                	0x18
	...

00000730 <.L0 >:
	...
     738:	4400                	sw	s0,8(s0)
     73a:	200e                	jal	75c <.L0 +0x10>
     73c:	1144                	add	sp,sp,a7
     73e:	7f08                	0x7f08
     740:	0e44                	mv	t3,a7
     742:	0040                	0x40
     744:	001c                	0x1c
     746:	0000                	unimp
     748:	0034                	0x34
	...

0000074c <.L0 >:
	...
     754:	4400                	sw	s0,8(s0)
     756:	200e                	jal	778 <.L0 +0xc>
     758:	1148                	add	sp,sp,s2
     75a:	7f01                	bltz	a4,71a <.L0 -0x16>
     75c:	0811                	slli	a6,a6,0x4
     75e:	447e                	beqz	s0,7dc <.L0 +0x14>
     760:	400e                	beqz	s0,782 <.L0 +0x16>
     762:	0000                	unimp
     764:	001c                	0x1c
     766:	0000                	unimp
     768:	0054                	0x54
	...

0000076c <.L0 >:
	...
     774:	4400                	sw	s0,8(s0)
     776:	400e                	beqz	s0,798 <.L0 +0xc>
     778:	1148                	add	sp,sp,s2
     77a:	7f01                	bltz	a4,73a <.L0 +0xa>
     77c:	0811                	slli	a6,a6,0x4
     77e:	447e                	beqz	s0,7fc <.L0 +0x14>
     780:	800e                	0x800e
     782:	0001                	0x1
     784:	0018                	0x18
     786:	0000                	unimp
     788:	0074                	0x74
	...

0000078c <.L0 >:
	...
     794:	4400                	sw	s0,8(s0)
     796:	200e                	jal	7b8 <.L0 +0x10>
     798:	1144                	add	sp,sp,a7
     79a:	7f08                	0x7f08
     79c:	0e44                	mv	t3,a7
     79e:	0040                	0x40
     7a0:	001c                	0x1c
     7a2:	0000                	unimp
     7a4:	0090                	mv	ra,tp
	...

000007a8 <.L0 >:
	...
     7b0:	4400                	sw	s0,8(s0)
     7b2:	200e                	jal	7d4 <.L0 +0xc>
     7b4:	1148                	add	sp,sp,s2
     7b6:	7f01                	bltz	a4,776 <.L0 +0xa>
     7b8:	0811                	slli	a6,a6,0x4
     7ba:	447e                	beqz	s0,838 <.L0 +0x1c>
     7bc:	400e                	beqz	s0,7de <.L0 +0x16>
     7be:	0000                	unimp
     7c0:	001c                	0x1c
     7c2:	0000                	unimp
     7c4:	00b0                	mv	ra,a2
	...

000007c8 <.L0 >:
	...
     7d0:	4400                	sw	s0,8(s0)
     7d2:	500e                	beqz	s0,6f4 <.LC0>
     7d4:	1148                	add	sp,sp,s2
     7d6:	7f01                	bltz	a4,796 <.L0 +0xa>
     7d8:	0811                	slli	a6,a6,0x4
     7da:	447e                	beqz	s0,858 <.L0 +0x1c>
     7dc:	a00e                	0xa00e
     7de:	0001                	0x1
     7e0:	0030                	0x30
     7e2:	0000                	unimp
     7e4:	00d0                	mv	ra,s4
	...

000007e8 <.L0 >:
	...
     7f0:	4400                	sw	s0,8(s0)
     7f2:	500e                	beqz	s0,714 <.L0 -0x1c>
     7f4:	1160                	add	sp,sp,s8
     7f6:	7f01                	bltz	a4,7b6 <.L0 +0xe>
     7f8:	0811                	slli	a6,a6,0x4
     7fa:	117e                	j	b8 <.LASF21+0x4>
     7fc:	7d12                	bnez	a0,7c0 <.L0 +0x18>
     7fe:	1311                	slli	t1,t1,0x24
     800:	117c                	add	sp,sp,t6
     802:	7b14                	0x7b14
     804:	1511                	slli	a0,a0,0x24
     806:	117a                	j	a4 <.LASF19+0x7>
     808:	7916                	bnez	a0,7ac <.L0 +0x4>
     80a:	1711                	slli	a4,a4,0x24
     80c:	4478                	sw	a4,76(s0)
     80e:	a00e                	0xa00e
     810:	0001                	0x1
     812:	0000                	unimp
     814:	001c                	0x1c
     816:	0000                	unimp
     818:	0104                	mv	sp,ra
	...

0000081c <.L0 >:
	...
     824:	4400                	sw	s0,8(s0)
     826:	500e                	beqz	s0,748 <.L0 +0x18>
     828:	1148                	add	sp,sp,s2
     82a:	7f01                	bltz	a4,7ea <.L0 +0x2>
     82c:	0811                	slli	a6,a6,0x4
     82e:	447e                	beqz	s0,8ac <.L0 +0x10>
     830:	a00e                	0xa00e
     832:	0001                	0x1
     834:	0028                	0x28
     836:	0000                	unimp
     838:	0124                	mv	sp,s1
	...

0000083c <.L0 >:
	...
     844:	4400                	sw	s0,8(s0)
     846:	900e                	0x900e
     848:	5801                	sw	zero,48(sp)
     84a:	0111                	slli	sp,sp,0x4
     84c:	117f                	0x117f
     84e:	7e08                	0x7e08
     850:	1211                	slli	tp,tp,0x24
     852:	117d                	slli	sp,sp,0x3f
     854:	14117c13          	andi	s8,sp,321
     858:	7a15117b          	0x7a15117b
     85c:	0e44                	mv	t3,a7
     85e:	02a0                	mv	t0,s0
     860:	001c                	0x1c
     862:	0000                	unimp
     864:	0150                	mv	sp,s4
	...

00000868 <.L0 >:
	...
     870:	4400                	sw	s0,8(s0)
     872:	200e                	jal	894 <.L0 +0x2c>
     874:	1148                	add	sp,sp,s2
     876:	7f01                	bltz	a4,836 <.L0 +0x1a>
     878:	0811                	slli	a6,a6,0x4
     87a:	447e                	beqz	s0,8f8 <.L0 +0x8>
     87c:	400e                	beqz	s0,89e <.L0 +0x2>
     87e:	0000                	unimp
     880:	0010                	0x10
     882:	0000                	unimp
     884:	0000                	unimp
     886:	0000                	unimp
     888:	7a01                	bltz	a2,808 <.L0 +0x20>
     88a:	0052                	j	89e <.L0 +0x2>
     88c:	0401                	slli	s0,s0,0x0
     88e:	0101                	slli	sp,sp,0x0
     890:	00020d1b          	0x20d1b
     894:	001c                	0x1c
     896:	0000                	unimp
     898:	0018                	0x18
	...

0000089c <.L0 >:
	...
     8a4:	4400                	sw	s0,8(s0)
     8a6:	100e                	j	c8 <.LASF55+0x8>
     8a8:	1148                	add	sp,sp,s2
     8aa:	7f01                	bltz	a4,86a <.L0 +0x2>
     8ac:	0811                	slli	a6,a6,0x4
     8ae:	447e                	beqz	s0,92c <.L0 +0x1c>
     8b0:	200e                	jal	8d2 <.L0 +0x2>
     8b2:	0000                	unimp
     8b4:	0010                	0x10
     8b6:	0000                	unimp
     8b8:	0000                	unimp
     8ba:	0000                	unimp
     8bc:	7a01                	bltz	a2,83c <.L0 >
     8be:	0052                	j	8d2 <.L0 +0x2>
     8c0:	0401                	slli	s0,s0,0x0
     8c2:	0101                	slli	sp,sp,0x0
     8c4:	00020d1b          	0x20d1b
     8c8:	001c                	0x1c
     8ca:	0000                	unimp
     8cc:	0018                	0x18
	...

000008d0 <.L0 >:
	...
     8d8:	4400                	sw	s0,8(s0)
     8da:	300e                	jal	fc <.LASF29+0x1>
     8dc:	1148                	add	sp,sp,s2
     8de:	7f01                	bltz	a4,89e <.L0 +0x2>
     8e0:	0811                	slli	a6,a6,0x4
     8e2:	447e                	beqz	s0,960 <.L0 +0x10>
     8e4:	600e                	bnez	s0,906 <.L0 +0x16>
     8e6:	0000                	unimp
     8e8:	001c                	0x1c
     8ea:	0000                	unimp
     8ec:	0038                	0x38
	...

000008f0 <.L0 >:
	...
     8f8:	4400                	sw	s0,8(s0)
     8fa:	800e                	0x800e
     8fc:	4801                	sw	zero,16(sp)
     8fe:	0111                	slli	sp,sp,0x4
     900:	117f                	0x117f
     902:	7e08                	0x7e08
     904:	0e44                	mv	t3,a7
     906:	0280                	li	t0,0
     908:	001c                	0x1c
     90a:	0000                	unimp
     90c:	0058                	0x58
	...

00000910 <.L0 >:
	...
     918:	4400                	sw	s0,8(s0)
     91a:	400e                	beqz	s0,93c <.L0 +0xc>
     91c:	1148                	add	sp,sp,s2
     91e:	7f01                	bltz	a4,8de <.L0 +0xe>
     920:	0811                	slli	a6,a6,0x4
     922:	447e                	beqz	s0,9a0 <.L0 +0x10>
     924:	800e                	0x800e
     926:	0001                	0x1
     928:	001c                	0x1c
     92a:	0000                	unimp
     92c:	0078                	0x78
	...

00000930 <.L0 >:
	...
     938:	4400                	sw	s0,8(s0)
     93a:	300e                	jal	15c <.LASF99+0x17>
     93c:	1148                	add	sp,sp,s2
     93e:	7f01                	bltz	a4,8fe <.L0 +0xe>
     940:	0811                	slli	a6,a6,0x4
     942:	447e                	beqz	s0,9c0 <.L0 +0x14>
     944:	600e                	bnez	s0,966 <.L0 +0x16>
     946:	0000                	unimp
     948:	001c                	0x1c
     94a:	0000                	unimp
     94c:	0098                	mv	ra,t1
	...

00000950 <.L0 >:
	...
     958:	4400                	sw	s0,8(s0)
     95a:	500e                	beqz	s0,87c <.L0 +0x14>
     95c:	1148                	add	sp,sp,s2
     95e:	7701                	bltz	a4,89e <.L0 +0x2>
     960:	0811                	slli	a6,a6,0x4
     962:	4476                	beqz	s0,9de <.L0 +0x32>
     964:	a00e                	0xa00e
     966:	0001                	0x1
     968:	001c                	0x1c
     96a:	0000                	unimp
     96c:	00b8                	mv	ra,a4
	...

00000970 <.L0 >:
	...
     978:	4400                	sw	s0,8(s0)
     97a:	300e                	jal	19c <.LASF13+0x1>
     97c:	1148                	add	sp,sp,s2
     97e:	7f01                	bltz	a4,93e <.L0 +0xe>
     980:	0811                	slli	a6,a6,0x4
     982:	447e                	beqz	s0,a00 <.L0 +0x4>
     984:	600e                	bnez	s0,9a6 <.L0 +0x16>
     986:	0000                	unimp
     988:	0018                	0x18
     98a:	0000                	unimp
     98c:	00d8                	mv	ra,s6
	...

00000990 <.L0 >:
	...
     998:	4400                	sw	s0,8(s0)
     99a:	300e                	jal	1bc <.LC5+0x4>
     99c:	1144                	add	sp,sp,a7
     99e:	7f08                	0x7f08
     9a0:	0e44                	mv	t3,a7
     9a2:	0060                	0x60
     9a4:	001c                	0x1c
     9a6:	0000                	unimp
     9a8:	00f4                	mv	ra,t4
	...

000009ac <.L0 >:
	...
     9b4:	4400                	sw	s0,8(s0)
     9b6:	500e                	beqz	s0,8d8 <.L0 +0x8>
     9b8:	1148                	add	sp,sp,s2
     9ba:	7701                	bltz	a4,8fa <.L0 +0xa>
     9bc:	0811                	slli	a6,a6,0x4
     9be:	4476                	beqz	s0,a3a <.L0 +0x22>
     9c0:	a00e                	0xa00e
     9c2:	0001                	0x1
     9c4:	0010                	0x10
     9c6:	0000                	unimp
     9c8:	0000                	unimp
     9ca:	0000                	unimp
     9cc:	7a01                	bltz	a2,94c <.L0 +0x1c>
     9ce:	0052                	j	9e2 <.L0 +0x2>
     9d0:	0401                	slli	s0,s0,0x0
     9d2:	0101                	slli	sp,sp,0x0
     9d4:	00020d1b          	0x20d1b
     9d8:	0018                	0x18
     9da:	0000                	unimp
     9dc:	0018                	0x18
	...

000009e0 <.L0 >:
	...
     9e8:	4400                	sw	s0,8(s0)
     9ea:	200e                	jal	a0c <.L0 +0x10>
     9ec:	1144                	add	sp,sp,a7
     9ee:	7f08                	0x7f08
     9f0:	0e44                	mv	t3,a7
     9f2:	0040                	0x40
     9f4:	0018                	0x18
     9f6:	0000                	unimp
     9f8:	0034                	0x34
	...

000009fc <.L0 >:
	...
     a04:	4400                	sw	s0,8(s0)
     a06:	300e                	jal	228 <.LC7+0x8>
     a08:	1144                	add	sp,sp,a7
     a0a:	7f08                	0x7f08
     a0c:	0e44                	mv	t3,a7
     a0e:	0060                	0x60
     a10:	0018                	0x18
     a12:	0000                	unimp
     a14:	0050                	0x50
	...

00000a18 <.L0 >:
	...
     a20:	4400                	sw	s0,8(s0)
     a22:	300e                	jal	244 <.LASF72+0x1>
     a24:	1144                	add	sp,sp,a7
     a26:	7f08                	0x7f08
     a28:	0e44                	mv	t3,a7
     a2a:	0060                	0x60
     a2c:	0010                	0x10
     a2e:	0000                	unimp
     a30:	0000                	unimp
     a32:	0000                	unimp
     a34:	7a01                	bltz	a2,9b4 <.L0 +0x8>
     a36:	0052                	j	a4a <.L0 +0x2>
     a38:	0401                	slli	s0,s0,0x0
     a3a:	0101                	slli	sp,sp,0x0
     a3c:	00020d1b          	0x20d1b
     a40:	0018                	0x18
     a42:	0000                	unimp
     a44:	0018                	0x18
	...

00000a48 <.L0 >:
	...
     a50:	4400                	sw	s0,8(s0)
     a52:	100e                	j	274 <.LC11+0x4>
     a54:	1144                	add	sp,sp,a7
     a56:	7f08                	0x7f08
     a58:	0e44                	mv	t3,a7
     a5a:	0020                	0x20
     a5c:	0010                	0x10
     a5e:	0000                	unimp
     a60:	0000                	unimp
     a62:	0000                	unimp
     a64:	7a01                	bltz	a2,9e4 <.L0 +0x4>
     a66:	0052                	j	a7a <.L0 +0x2>
     a68:	0401                	slli	s0,s0,0x0
     a6a:	0101                	slli	sp,sp,0x0
     a6c:	00020d1b          	0x20d1b
     a70:	0018                	0x18
     a72:	0000                	unimp
     a74:	0018                	0x18
	...

00000a78 <.L0 >:
	...
     a80:	4400                	sw	s0,8(s0)
     a82:	200e                	jal	aa4 <.L0 +0x10>
     a84:	1144                	add	sp,sp,a7
     a86:	7f08                	0x7f08
     a88:	0e44                	mv	t3,a7
     a8a:	0040                	0x40
     a8c:	0020                	0x20
     a8e:	0000                	unimp
     a90:	0034                	0x34
	...

00000a94 <.L0 >:
	...
     a9c:	4400                	sw	s0,8(s0)
     a9e:	300e                	jal	2c0 <.LASF60+0x9>
     aa0:	114c                	add	sp,sp,s3
     aa2:	7f08                	0x7f08
     aa4:	1211                	slli	tp,tp,0x24
     aa6:	117e                	j	364 <.LASF46+0x4>
     aa8:	0e447d13          	andi	s10,s0,228
     aac:	0060                	0x60
     aae:	0000                	unimp
     ab0:	0020                	0x20
     ab2:	0000                	unimp
     ab4:	0058                	0x58
	...

00000ab8 <.L0 >:
	...
     ac0:	4400                	sw	s0,8(s0)
     ac2:	300e                	jal	2e4 <.LASF10+0x2>
     ac4:	1150                	add	sp,sp,s4
     ac6:	7f01                	bltz	a4,a86 <.L0 +0xe>
     ac8:	0811                	slli	a6,a6,0x4
     aca:	117e                	j	388 <.LASF80+0x4>
     acc:	7d12                	bnez	a0,a90 <.L0 +0x18>
     ace:	1311                	slli	t1,t1,0x24
     ad0:	447c                	sw	a5,76(s0)
     ad2:	600e                	bnez	s0,af4 <.L0 +0x18>
     ad4:	001c                	0x1c
     ad6:	0000                	unimp
     ad8:	007c                	0x7c
	...

00000adc <.L0 >:
	...
     ae4:	4400                	sw	s0,8(s0)
     ae6:	200e                	jal	b08 <.L0 +0x2c>
     ae8:	1148                	add	sp,sp,s2
     aea:	7f01                	bltz	a4,aaa <.L0 +0x16>
     aec:	0811                	slli	a6,a6,0x4
     aee:	447e                	beqz	s0,b6c <.L0 +0x8>
     af0:	400e                	beqz	s0,b12 <.L0 +0x2>
     af2:	0000                	unimp
     af4:	0010                	0x10
     af6:	0000                	unimp
     af8:	0000                	unimp
     afa:	0000                	unimp
     afc:	7a01                	bltz	a2,a7c <.L0 +0x4>
     afe:	0052                	j	b12 <.L0 +0x2>
     b00:	0401                	slli	s0,s0,0x0
     b02:	0101                	slli	sp,sp,0x0
     b04:	00020d1b          	0x20d1b
     b08:	0018                	0x18
     b0a:	0000                	unimp
     b0c:	0018                	0x18
	...

00000b10 <.L0 >:
	...
     b18:	4400                	sw	s0,8(s0)
     b1a:	200e                	jal	b3c <.L0 +0x10>
     b1c:	1144                	add	sp,sp,a7
     b1e:	7f08                	0x7f08
     b20:	0e44                	mv	t3,a7
     b22:	0040                	0x40
     b24:	0018                	0x18
     b26:	0000                	unimp
     b28:	0034                	0x34
	...

00000b2c <.L0 >:
	...
     b34:	4400                	sw	s0,8(s0)
     b36:	200e                	jal	b58 <.L0 +0x10>
     b38:	1144                	add	sp,sp,a7
     b3a:	7f08                	0x7f08
     b3c:	0e44                	mv	t3,a7
     b3e:	0040                	0x40
     b40:	0018                	0x18
     b42:	0000                	unimp
     b44:	0050                	0x50
	...

00000b48 <.L0 >:
	...
     b50:	4400                	sw	s0,8(s0)
     b52:	200e                	jal	b74 <.L0 +0x10>
     b54:	1144                	add	sp,sp,a7
     b56:	7f08                	0x7f08
     b58:	0e44                	mv	t3,a7
     b5a:	0040                	0x40
     b5c:	001c                	0x1c
     b5e:	0000                	unimp
     b60:	006c                	0x6c
	...

00000b64 <.L0 >:
	...
     b6c:	4400                	sw	s0,8(s0)
     b6e:	300e                	jal	390 <.LLST15>
     b70:	1148                	add	sp,sp,s2
     b72:	7f01                	bltz	a4,b32 <.L0 +0x6>
     b74:	0811                	slli	a6,a6,0x4
     b76:	447e                	beqz	s0,bf4 <.L0 +0x18>
     b78:	600e                	bnez	s0,b9a <.L0 +0x16>
     b7a:	0000                	unimp
     b7c:	0018                	0x18
     b7e:	0000                	unimp
     b80:	008c                	mv	ra,gp
	...

00000b84 <.L0 >:
	...
     b8c:	4400                	sw	s0,8(s0)
     b8e:	300e                	jal	3b0 <.LC22>
     b90:	1144                	add	sp,sp,a7
     b92:	7f08                	0x7f08
     b94:	0e44                	mv	t3,a7
     b96:	0060                	0x60
     b98:	0018                	0x18
     b9a:	0000                	unimp
     b9c:	00a8                	mv	ra,a0
	...

00000ba0 <.L0 >:
	...
     ba8:	4400                	sw	s0,8(s0)
     baa:	300e                	jal	3cc <.LASF79+0xe>
     bac:	1144                	add	sp,sp,a7
     bae:	7f08                	0x7f08
     bb0:	0e44                	mv	t3,a7
     bb2:	0060                	0x60
     bb4:	001c                	0x1c
     bb6:	0000                	unimp
     bb8:	00c4                	mv	ra,a7
	...

00000bbc <.L0 >:
	...
     bc4:	4400                	sw	s0,8(s0)
     bc6:	300e                	jal	3e8 <.LC24+0x8>
     bc8:	1148                	add	sp,sp,s2
     bca:	7f01                	bltz	a4,b8a <.L0 +0x6>
     bcc:	0811                	slli	a6,a6,0x4
     bce:	447e                	beqz	s0,c4c <.L0 +0x10>
     bd0:	600e                	bnez	s0,bf2 <.L0 +0x16>
     bd2:	0000                	unimp
     bd4:	001c                	0x1c
     bd6:	0000                	unimp
     bd8:	00e4                	mv	ra,s9
	...

00000bdc <.L0 >:
	...
     be4:	4400                	sw	s0,8(s0)
     be6:	300e                	jal	408 <.LC25>
     be8:	1148                	add	sp,sp,s2
     bea:	7f01                	bltz	a4,baa <.L0 +0xa>
     bec:	0811                	slli	a6,a6,0x4
     bee:	447e                	beqz	s0,c6c <.L0 +0x10>
     bf0:	600e                	bnez	s0,c12 <.L0 +0x16>
     bf2:	0000                	unimp
     bf4:	001c                	0x1c
     bf6:	0000                	unimp
     bf8:	0104                	mv	sp,ra
	...

00000bfc <.L0 >:
	...
     c04:	4400                	sw	s0,8(s0)
     c06:	300e                	jal	428 <.LASF39+0x2>
     c08:	1148                	add	sp,sp,s2
     c0a:	7f01                	bltz	a4,bca <.L0 +0xe>
     c0c:	0811                	slli	a6,a6,0x4
     c0e:	447e                	beqz	s0,c8c <.L0 +0x10>
     c10:	600e                	bnez	s0,c32 <.L0 +0x16>
     c12:	0000                	unimp
     c14:	001c                	0x1c
     c16:	0000                	unimp
     c18:	0124                	mv	sp,s1
	...

00000c1c <.L0 >:
	...
     c24:	4400                	sw	s0,8(s0)
     c26:	300e                	jal	448 <.LASF75+0x6>
     c28:	1148                	add	sp,sp,s2
     c2a:	7f01                	bltz	a4,bea <.L0 +0xe>
     c2c:	0811                	slli	a6,a6,0x4
     c2e:	447e                	beqz	s0,cac <.L0 +0x10>
     c30:	600e                	bnez	s0,c52 <.L0 +0x16>
     c32:	0000                	unimp
     c34:	001c                	0x1c
     c36:	0000                	unimp
     c38:	0144                	mv	sp,a7
	...

00000c3c <.L0 >:
	...
     c44:	4400                	sw	s0,8(s0)
     c46:	300e                	jal	468 <.LASF45+0x2>
     c48:	1148                	add	sp,sp,s2
     c4a:	7f01                	bltz	a4,c0a <.L0 +0xe>
     c4c:	0811                	slli	a6,a6,0x4
     c4e:	447e                	beqz	s0,ccc <.L0 +0x30>
     c50:	600e                	bnez	s0,c72 <.L0 +0x16>
     c52:	0000                	unimp
     c54:	001c                	0x1c
     c56:	0000                	unimp
     c58:	0164                	mv	sp,s9
	...

00000c5c <.L0 >:
	...
     c64:	4400                	sw	s0,8(s0)
     c66:	300e                	jal	488 <.LC29+0x8>
     c68:	1148                	add	sp,sp,s2
     c6a:	7f01                	bltz	a4,c2a <.L0 +0xe>
     c6c:	0811                	slli	a6,a6,0x4
     c6e:	447e                	beqz	s0,cec <.L0 +0x10>
     c70:	600e                	bnez	s0,c92 <.L0 +0x16>
     c72:	0000                	unimp
     c74:	001c                	0x1c
     c76:	0000                	unimp
     c78:	0184                	mv	gp,ra
	...

00000c7c <.L0 >:
	...
     c84:	4400                	sw	s0,8(s0)
     c86:	200e                	jal	ca8 <.L0 +0xc>
     c88:	1148                	add	sp,sp,s2
     c8a:	7f01                	bltz	a4,c4a <.L0 +0xe>
     c8c:	0811                	slli	a6,a6,0x4
     c8e:	447e                	beqz	s0,d0c <.L0 >
     c90:	400e                	beqz	s0,cb2 <.L0 +0x16>
     c92:	0000                	unimp
     c94:	003c                	0x3c
     c96:	0000                	unimp
     c98:	01a4                	mv	gp,s1
	...

00000c9c <.L0 >:
	...
     ca4:	4400                	sw	s0,8(s0)
     ca6:	600e                	bnez	s0,cc8 <.L0 +0x2c>
     ca8:	1170                	add	sp,sp,t3
     caa:	7f01                	bltz	a4,c6a <.L0 +0xe>
     cac:	0811                	slli	a6,a6,0x4
     cae:	117e                	j	56c <.LC36+0xc>
     cb0:	7d12                	bnez	a0,c74 <.L0 +0x18>
     cb2:	1311                	slli	t1,t1,0x24
     cb4:	117c                	add	sp,sp,t6
     cb6:	7b14                	0x7b14
     cb8:	1511                	slli	a0,a0,0x24
     cba:	117a                	j	558 <.LASF1+0x1b>
     cbc:	7916                	bnez	a0,c60 <.L0 +0x4>
     cbe:	1711                	slli	a4,a4,0x24
     cc0:	1178                	add	sp,sp,t5
     cc2:	7718                	0x7718
     cc4:	1911                	slli	s2,s2,0x24
     cc6:	1176                	j	582 <.LLST25+0x7>
     cc8:	751a                	bnez	a0,c0e <.L0 +0x12>
     cca:	1b11                	slli	s6,s6,0x24
     ccc:	4474                	sw	a3,76(s0)
     cce:	c00e                	addi	sp,sp,192
     cd0:	0001                	0x1
     cd2:	0000                	unimp
     cd4:	0018                	0x18
     cd6:	0000                	unimp
     cd8:	01e4                	mv	gp,s9
	...

00000cdc <.L0 >:
	...
     ce4:	4400                	sw	s0,8(s0)
     ce6:	200e                	jal	d08 <.L0 +0x2c>
     ce8:	1144                	add	sp,sp,a7
     cea:	7f08                	0x7f08
     cec:	0e44                	mv	t3,a7
     cee:	0040                	0x40
     cf0:	0010                	0x10
     cf2:	0000                	unimp
     cf4:	0000                	unimp
     cf6:	0000                	unimp
     cf8:	7a01                	bltz	a2,c78 <.L0 +0x1c>
     cfa:	0052                	j	d0e <.L0 +0x2>
     cfc:	0401                	slli	s0,s0,0x0
     cfe:	0101                	slli	sp,sp,0x0
     d00:	00020d1b          	0x20d1b
     d04:	0018                	0x18
     d06:	0000                	unimp
     d08:	0018                	0x18
	...

00000d0c <.L0 >:
	...
     d14:	4400                	sw	s0,8(s0)
     d16:	200e                	jal	d38 <.L0 +0x10>
     d18:	1144                	add	sp,sp,a7
     d1a:	7f08                	0x7f08
     d1c:	0e44                	mv	t3,a7
     d1e:	0040                	0x40
     d20:	0018                	0x18
     d22:	0000                	unimp
     d24:	0034                	0x34
	...

00000d28 <.L0 >:
	...
     d30:	4400                	sw	s0,8(s0)
     d32:	300e                	jal	554 <.LASF1+0x17>
     d34:	1144                	add	sp,sp,a7
     d36:	7f08                	0x7f08
     d38:	0e44                	mv	t3,a7
     d3a:	0060                	0x60
     d3c:	0018                	0x18
     d3e:	0000                	unimp
     d40:	0050                	0x50
	...

00000d44 <.L0 >:
	...
     d4c:	4400                	sw	s0,8(s0)
     d4e:	300e                	jal	570 <.LC36+0x10>
     d50:	1144                	add	sp,sp,a7
     d52:	7f08                	0x7f08
     d54:	0e44                	mv	t3,a7
     d56:	0060                	0x60
     d58:	0018                	0x18
     d5a:	0000                	unimp
     d5c:	006c                	0x6c
	...

00000d60 <.L0 >:
	...
     d68:	4400                	sw	s0,8(s0)
     d6a:	300e                	jal	58c <.LC0>
     d6c:	1144                	add	sp,sp,a7
     d6e:	7f08                	0x7f08
     d70:	0e44                	mv	t3,a7
     d72:	0060                	0x60
     d74:	001c                	0x1c
     d76:	0000                	unimp
     d78:	0088                	mv	ra,sp
	...

00000d7c <.L0 >:
	...
     d84:	4400                	sw	s0,8(s0)
     d86:	300e                	jal	5a8 <.LASF23>
     d88:	1148                	add	sp,sp,s2
     d8a:	7f01                	bltz	a4,d4a <.L0 +0x6>
     d8c:	0811                	slli	a6,a6,0x4
     d8e:	447e                	beqz	s0,e0c <.L0 +0x10>
     d90:	600e                	bnez	s0,db2 <.L0 +0x16>
     d92:	0000                	unimp
     d94:	001c                	0x1c
     d96:	0000                	unimp
     d98:	00a8                	mv	ra,a0
	...

00000d9c <.L0 >:
	...
     da4:	4400                	sw	s0,8(s0)
     da6:	300e                	jal	5c8 <.LASF29+0xe>
     da8:	1148                	add	sp,sp,s2
     daa:	7f01                	bltz	a4,d6a <.L0 +0xa>
     dac:	0811                	slli	a6,a6,0x4
     dae:	447e                	beqz	s0,e2c <.L0 +0x10>
     db0:	600e                	bnez	s0,dd2 <.L0 +0x16>
     db2:	0000                	unimp
     db4:	001c                	0x1c
     db6:	0000                	unimp
     db8:	00c8                	mv	ra,s2
	...

00000dbc <.L0 >:
	...
     dc4:	4400                	sw	s0,8(s0)
     dc6:	300e                	jal	5e8 <.LLST27+0x7>
     dc8:	1148                	add	sp,sp,s2
     dca:	7f01                	bltz	a4,d8a <.L0 +0xe>
     dcc:	0811                	slli	a6,a6,0x4
     dce:	447e                	beqz	s0,e4c <.L0 +0x10>
     dd0:	600e                	bnez	s0,df2 <.L0 +0x16>
     dd2:	0000                	unimp
     dd4:	001c                	0x1c
     dd6:	0000                	unimp
     dd8:	00e8                	mv	ra,s10
	...

00000ddc <.L0 >:
	...
     de4:	4400                	sw	s0,8(s0)
     de6:	300e                	jal	608 <.LASF27+0x1e>
     de8:	1148                	add	sp,sp,s2
     dea:	7f01                	bltz	a4,daa <.L0 +0xe>
     dec:	0811                	slli	a6,a6,0x4
     dee:	447e                	beqz	s0,e6c <.L0 +0x10>
     df0:	600e                	bnez	s0,e12 <.L0 +0x16>
     df2:	0000                	unimp
     df4:	001c                	0x1c
     df6:	0000                	unimp
     df8:	0108                	mv	sp,sp
	...

00000dfc <.L0 >:
	...
     e04:	4400                	sw	s0,8(s0)
     e06:	300e                	jal	628 <.LLST28+0x2>
     e08:	1148                	add	sp,sp,s2
     e0a:	7f01                	bltz	a4,dca <.L0 +0xe>
     e0c:	0811                	slli	a6,a6,0x4
     e0e:	447e                	beqz	s0,e8c <.L0 +0x14>
     e10:	600e                	bnez	s0,e32 <.L0 +0x16>
     e12:	0000                	unimp
     e14:	001c                	0x1c
     e16:	0000                	unimp
     e18:	0128                	mv	sp,a0
	...

00000e1c <.L0 >:
	...
     e24:	4400                	sw	s0,8(s0)
     e26:	300e                	jal	648 <.LASF13+0x9>
     e28:	1148                	add	sp,sp,s2
     e2a:	7f01                	bltz	a4,dea <.L0 +0xe>
     e2c:	0811                	slli	a6,a6,0x4
     e2e:	447e                	beqz	s0,eac <.L0 +0x14>
     e30:	600e                	bnez	s0,e52 <.L0 +0x16>
     e32:	0000                	unimp
     e34:	001c                	0x1c
     e36:	0000                	unimp
     e38:	0148                	mv	sp,s2
	...

00000e3c <.L0 >:
	...
     e44:	4400                	sw	s0,8(s0)
     e46:	300e                	jal	668 <.LASF4+0x1>
     e48:	1148                	add	sp,sp,s2
     e4a:	7f01                	bltz	a4,e0a <.L0 +0xe>
     e4c:	0811                	slli	a6,a6,0x4
     e4e:	447e                	beqz	s0,ecc <.L0 +0x14>
     e50:	600e                	bnez	s0,e72 <.L0 +0x16>
     e52:	0000                	unimp
     e54:	0018                	0x18
     e56:	0000                	unimp
     e58:	0168                	mv	sp,s10
	...

00000e5c <.L0 >:
	...
     e64:	4400                	sw	s0,8(s0)
     e66:	200e                	jal	e88 <.L0 +0x10>
     e68:	1144                	add	sp,sp,a7
     e6a:	7f08                	0x7f08
     e6c:	0e44                	mv	t3,a7
     e6e:	0040                	0x40
     e70:	001c                	0x1c
     e72:	0000                	unimp
     e74:	0184                	mv	gp,ra
	...

00000e78 <.L0 >:
	...
     e80:	4400                	sw	s0,8(s0)
     e82:	200e                	jal	ea4 <.L0 +0xc>
     e84:	1148                	add	sp,sp,s2
     e86:	7f01                	bltz	a4,e46 <.L0 +0xa>
     e88:	0811                	slli	a6,a6,0x4
     e8a:	447e                	beqz	s0,f08 <.L0 +0x4>
     e8c:	400e                	beqz	s0,eae <.L0 +0x16>
     e8e:	0000                	unimp
     e90:	001c                	0x1c
     e92:	0000                	unimp
     e94:	01a4                	mv	gp,s1
	...

00000e98 <.L0 >:
	...
     ea0:	4400                	sw	s0,8(s0)
     ea2:	400e                	beqz	s0,ec4 <.L0 +0xc>
     ea4:	1148                	add	sp,sp,s2
     ea6:	7f01                	bltz	a4,e66 <.L0 +0xa>
     ea8:	0811                	slli	a6,a6,0x4
     eaa:	447e                	beqz	s0,f28 <.L0 +0x4>
     eac:	800e                	0x800e
     eae:	0001                	0x1
     eb0:	0018                	0x18
     eb2:	0000                	unimp
     eb4:	01c4                	mv	gp,a7
	...

00000eb8 <.L0 >:
	...
     ec0:	4400                	sw	s0,8(s0)
     ec2:	200e                	jal	ee4 <.L0 +0x2c>
     ec4:	1144                	add	sp,sp,a7
     ec6:	7f08                	0x7f08
     ec8:	0e44                	mv	t3,a7
     eca:	0040                	0x40
     ecc:	0010                	0x10
     ece:	0000                	unimp
     ed0:	0000                	unimp
     ed2:	0000                	unimp
     ed4:	7a01                	bltz	a2,e54 <.L0 +0x18>
     ed6:	0052                	j	eea <.L0 +0x2>
     ed8:	0401                	slli	s0,s0,0x0
     eda:	0101                	slli	sp,sp,0x0
     edc:	00020d1b          	0x20d1b
     ee0:	0018                	0x18
     ee2:	0000                	unimp
     ee4:	0018                	0x18
	...

00000ee8 <.L0 >:
	...
     ef0:	4400                	sw	s0,8(s0)
     ef2:	200e                	jal	f14 <.L0 +0x10>
     ef4:	1144                	add	sp,sp,a7
     ef6:	7f08                	0x7f08
     ef8:	0e44                	mv	t3,a7
     efa:	0040                	0x40
     efc:	001c                	0x1c
     efe:	0000                	unimp
     f00:	0034                	0x34
	...

00000f04 <.L0 >:
	...
     f0c:	4400                	sw	s0,8(s0)
     f0e:	200e                	jal	f30 <.L0 +0xc>
     f10:	1148                	add	sp,sp,s2
     f12:	7f01                	bltz	a4,ed2 <.L0 +0x1a>
     f14:	0811                	slli	a6,a6,0x4
     f16:	447e                	beqz	s0,f94 <.L0 +0x14>
     f18:	400e                	beqz	s0,f3a <.L0 +0x16>
     f1a:	0000                	unimp
     f1c:	001c                	0x1c
     f1e:	0000                	unimp
     f20:	0054                	0x54
	...

00000f24 <.L0 >:
	...
     f2c:	4400                	sw	s0,8(s0)
     f2e:	200e                	jal	f50 <.L0 +0xc>
     f30:	1148                	add	sp,sp,s2
     f32:	7f01                	bltz	a4,ef2 <.L0 +0xa>
     f34:	0811                	slli	a6,a6,0x4
     f36:	447e                	beqz	s0,fb4 <.L0 +0x14>
     f38:	400e                	beqz	s0,f5a <.L0 +0x16>
     f3a:	0000                	unimp
     f3c:	0018                	0x18
     f3e:	0000                	unimp
     f40:	0074                	0x74
	...

00000f44 <.L0 >:
	...
     f4c:	4400                	sw	s0,8(s0)
     f4e:	200e                	jal	f70 <.L0 +0x10>
     f50:	1144                	add	sp,sp,a7
     f52:	7f08                	0x7f08
     f54:	0e44                	mv	t3,a7
     f56:	0040                	0x40
     f58:	001c                	0x1c
     f5a:	0000                	unimp
     f5c:	0090                	mv	ra,tp
	...

00000f60 <.L0 >:
	...
     f68:	4400                	sw	s0,8(s0)
     f6a:	200e                	jal	f8c <.L0 +0xc>
     f6c:	1148                	add	sp,sp,s2
     f6e:	7f01                	bltz	a4,f2e <.L0 +0xa>
     f70:	0811                	slli	a6,a6,0x4
     f72:	447e                	beqz	s0,ff0 <.L0 +0x10>
     f74:	400e                	beqz	s0,f96 <.L0 +0x16>
     f76:	0000                	unimp
     f78:	001c                	0x1c
     f7a:	0000                	unimp
     f7c:	00b0                	mv	ra,a2
	...

00000f80 <.L0 >:
	...
     f88:	4400                	sw	s0,8(s0)
     f8a:	200e                	jal	fac <.L0 +0xc>
     f8c:	1148                	add	sp,sp,s2
     f8e:	7f01                	bltz	a4,f4e <.L0 +0xa>
     f90:	0811                	slli	a6,a6,0x4
     f92:	447e                	beqz	s0,1010 <.L0 +0x10>
     f94:	400e                	beqz	s0,fb6 <.L0 +0x16>
     f96:	0000                	unimp
     f98:	001c                	0x1c
     f9a:	0000                	unimp
     f9c:	00d0                	mv	ra,s4
	...

00000fa0 <.L0 >:
	...
     fa8:	4400                	sw	s0,8(s0)
     faa:	200e                	jal	fcc <.L0 +0xc>
     fac:	1148                	add	sp,sp,s2
     fae:	7f01                	bltz	a4,f6e <.L0 +0xe>
     fb0:	0811                	slli	a6,a6,0x4
     fb2:	447e                	beqz	s0,1030 <.L0 +0x10>
     fb4:	400e                	beqz	s0,fd6 <.L0 +0x16>
     fb6:	0000                	unimp
     fb8:	001c                	0x1c
     fba:	0000                	unimp
     fbc:	00f0                	mv	ra,t3
	...

00000fc0 <.L0 >:
	...
     fc8:	4400                	sw	s0,8(s0)
     fca:	200e                	jal	fec <.L0 +0xc>
     fcc:	1148                	add	sp,sp,s2
     fce:	7f01                	bltz	a4,f8e <.L0 +0xe>
     fd0:	0811                	slli	a6,a6,0x4
     fd2:	447e                	beqz	s0,1050 <.L0 +0x10>
     fd4:	400e                	beqz	s0,ff6 <.L0 +0x16>
     fd6:	0000                	unimp
     fd8:	001c                	0x1c
     fda:	0000                	unimp
     fdc:	0110                	mv	sp,tp
	...

00000fe0 <.L0 >:
	...
     fe8:	4400                	sw	s0,8(s0)
     fea:	200e                	jal	100c <.L0 +0xc>
     fec:	1148                	add	sp,sp,s2
     fee:	7f01                	bltz	a4,fae <.L0 +0xe>
     ff0:	0811                	slli	a6,a6,0x4
     ff2:	447e                	beqz	s0,1070 <.L0 +0x14>
     ff4:	400e                	beqz	s0,1016 <.L0 +0x16>
     ff6:	0000                	unimp
     ff8:	001c                	0x1c
     ffa:	0000                	unimp
     ffc:	0130                	mv	sp,a2
	...

00001000 <.L0 >:
	...
    1008:	4400                	sw	s0,8(s0)
    100a:	200e                	jal	102c <.L0 +0xc>
    100c:	1148                	add	sp,sp,s2
    100e:	7f01                	bltz	a4,fce <.L0 +0xe>
    1010:	0811                	slli	a6,a6,0x4
    1012:	447e                	beqz	s0,1090 <.L0 +0x14>
    1014:	400e                	beqz	s0,1036 <.L0 +0x16>
    1016:	0000                	unimp
    1018:	001c                	0x1c
    101a:	0000                	unimp
    101c:	0150                	mv	sp,s4
	...

00001020 <.L0 >:
	...
    1028:	4400                	sw	s0,8(s0)
    102a:	200e                	jal	104c <.L0 +0xc>
    102c:	1148                	add	sp,sp,s2
    102e:	7f01                	bltz	a4,fee <.L0 +0xe>
    1030:	0811                	slli	a6,a6,0x4
    1032:	447e                	beqz	s0,10b0 <.L0 +0x14>
    1034:	400e                	beqz	s0,1056 <.L0 +0x16>
    1036:	0000                	unimp
    1038:	0018                	0x18
    103a:	0000                	unimp
    103c:	0170                	mv	sp,t3
	...

00001040 <.L0 >:
	...
    1048:	4400                	sw	s0,8(s0)
    104a:	200e                	jal	106c <.L0 +0x10>
    104c:	1144                	add	sp,sp,a7
    104e:	7f08                	0x7f08
    1050:	0e44                	mv	t3,a7
    1052:	0040                	0x40
    1054:	001c                	0x1c
    1056:	0000                	unimp
    1058:	018c                	mv	gp,gp
	...

0000105c <.L0 >:
	...
    1064:	4400                	sw	s0,8(s0)
    1066:	200e                	jal	1088 <.L0 +0xc>
    1068:	1148                	add	sp,sp,s2
    106a:	7f01                	bltz	a4,102a <.L0 +0xa>
    106c:	0811                	slli	a6,a6,0x4
    106e:	447e                	beqz	s0,10ec <.L0 +0x14>
    1070:	400e                	beqz	s0,1092 <.L0 +0x16>
    1072:	0000                	unimp
    1074:	001c                	0x1c
    1076:	0000                	unimp
    1078:	01ac                	mv	gp,a1
	...

0000107c <.L0 >:
	...
    1084:	4400                	sw	s0,8(s0)
    1086:	200e                	jal	10a8 <.L0 +0xc>
    1088:	1148                	add	sp,sp,s2
    108a:	7f01                	bltz	a4,104a <.L0 +0xa>
    108c:	0811                	slli	a6,a6,0x4
    108e:	447e                	beqz	s0,110c <.L0 +0x14>
    1090:	400e                	beqz	s0,10b2 <.L0 +0x16>
    1092:	0000                	unimp
    1094:	0018                	0x18
    1096:	0000                	unimp
    1098:	01cc                	mv	gp,s3
	...

0000109c <.L0 >:
	...
    10a4:	4400                	sw	s0,8(s0)
    10a6:	200e                	jal	10c8 <.L0 +0x10>
    10a8:	1144                	add	sp,sp,a7
    10aa:	7f08                	0x7f08
    10ac:	0e44                	mv	t3,a7
    10ae:	0040                	0x40
    10b0:	001c                	0x1c
    10b2:	0000                	unimp
    10b4:	01e8                	mv	gp,s10
	...

000010b8 <.L0 >:
	...
    10c0:	4400                	sw	s0,8(s0)
    10c2:	200e                	jal	10e4 <.L0 +0xc>
    10c4:	1148                	add	sp,sp,s2
    10c6:	7f01                	bltz	a4,1086 <.L0 +0xa>
    10c8:	0811                	slli	a6,a6,0x4
    10ca:	447e                	beqz	s0,1148 <.L0 +0x10>
    10cc:	400e                	beqz	s0,10ee <.L0 +0x16>
    10ce:	0000                	unimp
    10d0:	001c                	0x1c
    10d2:	0000                	unimp
    10d4:	0208                	mv	tp,sp
	...

000010d8 <.L0 >:
	...
    10e0:	4400                	sw	s0,8(s0)
    10e2:	200e                	jal	1104 <.L0 +0xc>
    10e4:	1148                	add	sp,sp,s2
    10e6:	7f01                	bltz	a4,10a6 <.L0 +0xa>
    10e8:	0811                	slli	a6,a6,0x4
    10ea:	447e                	beqz	s0,1168 <.L0 +0x10>
    10ec:	400e                	beqz	s0,110e <.L0 +0x16>
    10ee:	0000                	unimp
    10f0:	001c                	0x1c
    10f2:	0000                	unimp
    10f4:	0228                	mv	tp,a0
	...

000010f8 <.L0 >:
	...
    1100:	4400                	sw	s0,8(s0)
    1102:	200e                	jal	1124 <.L0 +0xc>
    1104:	1148                	add	sp,sp,s2
    1106:	7f01                	bltz	a4,10c6 <.L0 +0xe>
    1108:	0811                	slli	a6,a6,0x4
    110a:	447e                	beqz	s0,1188 <.L0 +0x10>
    110c:	400e                	beqz	s0,112e <.L0 +0x16>
    110e:	0000                	unimp
    1110:	001c                	0x1c
    1112:	0000                	unimp
    1114:	0248                	mv	tp,s2
	...

00001118 <.L0 >:
	...
    1120:	4400                	sw	s0,8(s0)
    1122:	200e                	jal	1144 <.L0 +0xc>
    1124:	1148                	add	sp,sp,s2
    1126:	7f01                	bltz	a4,10e6 <.L0 +0xe>
    1128:	0811                	slli	a6,a6,0x4
    112a:	447e                	beqz	s0,11a8 <.L0 +0x10>
    112c:	400e                	beqz	s0,114e <.L0 +0x16>
    112e:	0000                	unimp
    1130:	001c                	0x1c
    1132:	0000                	unimp
    1134:	0268                	mv	tp,s10
	...

00001138 <.L0 >:
	...
    1140:	4400                	sw	s0,8(s0)
    1142:	200e                	jal	1164 <.L0 +0xc>
    1144:	1148                	add	sp,sp,s2
    1146:	7f01                	bltz	a4,1106 <.L0 +0xe>
    1148:	0811                	slli	a6,a6,0x4
    114a:	447e                	beqz	s0,11c8 <.L0 +0x10>
    114c:	400e                	beqz	s0,116e <.L0 +0x16>
    114e:	0000                	unimp
    1150:	001c                	0x1c
    1152:	0000                	unimp
    1154:	0288                	mv	t0,sp
	...

00001158 <.L0 >:
	...
    1160:	4400                	sw	s0,8(s0)
    1162:	200e                	jal	1184 <.L0 +0xc>
    1164:	1148                	add	sp,sp,s2
    1166:	7f01                	bltz	a4,1126 <.L0 +0xe>
    1168:	0811                	slli	a6,a6,0x4
    116a:	447e                	beqz	s0,11e8 <.L0 +0x10>
    116c:	400e                	beqz	s0,118e <.L0 +0x16>
    116e:	0000                	unimp
    1170:	001c                	0x1c
    1172:	0000                	unimp
    1174:	02a8                	mv	t0,a0
	...

00001178 <.L0 >:
	...
    1180:	4400                	sw	s0,8(s0)
    1182:	200e                	jal	11a4 <.L0 +0xc>
    1184:	1148                	add	sp,sp,s2
    1186:	7f01                	bltz	a4,1146 <.L0 +0xe>
    1188:	0811                	slli	a6,a6,0x4
    118a:	447e                	beqz	s0,1208 <.L0 +0x10>
    118c:	400e                	beqz	s0,11ae <.L0 +0x16>
    118e:	0000                	unimp
    1190:	001c                	0x1c
    1192:	0000                	unimp
    1194:	02c8                	mv	t0,s2
	...

00001198 <.L0 >:
	...
    11a0:	4400                	sw	s0,8(s0)
    11a2:	200e                	jal	11c4 <.L0 +0xc>
    11a4:	1148                	add	sp,sp,s2
    11a6:	7f01                	bltz	a4,1166 <.L0 +0xe>
    11a8:	0811                	slli	a6,a6,0x4
    11aa:	447e                	beqz	s0,1228 <.L0 +0x10>
    11ac:	400e                	beqz	s0,11ce <.L0 +0x16>
    11ae:	0000                	unimp
    11b0:	001c                	0x1c
    11b2:	0000                	unimp
    11b4:	02e8                	mv	t0,s10
	...

000011b8 <.L0 >:
	...
    11c0:	4400                	sw	s0,8(s0)
    11c2:	200e                	jal	11e4 <.L0 +0xc>
    11c4:	1148                	add	sp,sp,s2
    11c6:	7f01                	bltz	a4,1186 <.L0 +0xe>
    11c8:	0811                	slli	a6,a6,0x4
    11ca:	447e                	beqz	s0,1248 <.L0 +0xc>
    11cc:	400e                	beqz	s0,11ee <.L0 +0x16>
    11ce:	0000                	unimp
    11d0:	001c                	0x1c
    11d2:	0000                	unimp
    11d4:	0308                	mv	t1,sp
	...

000011d8 <.L0 >:
	...
    11e0:	4400                	sw	s0,8(s0)
    11e2:	200e                	jal	1204 <.L0 +0xc>
    11e4:	1148                	add	sp,sp,s2
    11e6:	7f01                	bltz	a4,11a6 <.L0 +0xe>
    11e8:	0811                	slli	a6,a6,0x4
    11ea:	447e                	beqz	s0,1268 <.L0 +0x8>
    11ec:	400e                	beqz	s0,120e <.L0 +0x16>
    11ee:	0000                	unimp
    11f0:	001c                	0x1c
    11f2:	0000                	unimp
    11f4:	0328                	mv	t1,a0
	...

000011f8 <.L0 >:
	...
    1200:	4400                	sw	s0,8(s0)
    1202:	200e                	jal	1224 <.L0 +0xc>
    1204:	1148                	add	sp,sp,s2
    1206:	7f01                	bltz	a4,11c6 <.L0 +0xe>
    1208:	0811                	slli	a6,a6,0x4
    120a:	447e                	beqz	s0,1288 <.L0 +0x4>
    120c:	400e                	beqz	s0,122e <.L0 +0x16>
    120e:	0000                	unimp
    1210:	0020                	0x20
    1212:	0000                	unimp
    1214:	0348                	mv	t1,s2
	...

00001218 <.L0 >:
	...
    1220:	4400                	sw	s0,8(s0)
    1222:	200e                	jal	1244 <.L0 +0x8>
    1224:	1150                	add	sp,sp,s4
    1226:	7f01                	bltz	a4,11e6 <.L0 +0xe>
    1228:	0811                	slli	a6,a6,0x4
    122a:	117e                	j	ae8 <.L0 +0xc>
    122c:	7d12                	bnez	a0,11f0 <.L0 +0x18>
    122e:	1311                	slli	t1,t1,0x24
    1230:	447c                	sw	a5,76(s0)
    1232:	400e                	beqz	s0,1254 <.L0 +0x18>
    1234:	0020                	0x20
    1236:	0000                	unimp
    1238:	036c                	mv	t1,s11
	...

0000123c <.L0 >:
	...
    1244:	4400                	sw	s0,8(s0)
    1246:	200e                	jal	1268 <.L0 +0x8>
    1248:	1150                	add	sp,sp,s4
    124a:	7f01                	bltz	a4,120a <.L0 +0x12>
    124c:	0811                	slli	a6,a6,0x4
    124e:	117e                	j	b0c <.L0 +0x30>
    1250:	7d12                	bnez	a0,1214 <.L0 +0x1c>
    1252:	1311                	slli	t1,t1,0x24
    1254:	447c                	sw	a5,76(s0)
    1256:	400e                	beqz	s0,1278 <.L0 +0x18>
    1258:	0020                	0x20
    125a:	0000                	unimp
    125c:	0390                	mv	t2,tp
	...

00001260 <.L0 >:
	...
    1268:	4400                	sw	s0,8(s0)
    126a:	200e                	jal	128c <.L0 +0x8>
    126c:	1150                	add	sp,sp,s4
    126e:	7f01                	bltz	a4,122e <.L0 +0x16>
    1270:	0811                	slli	a6,a6,0x4
    1272:	117e                	j	b30 <.L0 +0x4>
    1274:	7d12                	bnez	a0,1238 <.L0 +0x20>
    1276:	1311                	slli	t1,t1,0x24
    1278:	447c                	sw	a5,76(s0)
    127a:	400e                	beqz	s0,129c <.L0 +0x18>
    127c:	0020                	0x20
    127e:	0000                	unimp
    1280:	03b4                	mv	t2,a3
	...

00001284 <.L0 >:
	...
    128c:	4400                	sw	s0,8(s0)
    128e:	200e                	jal	12b0 <.L0 +0x8>
    1290:	1150                	add	sp,sp,s4
    1292:	7f01                	bltz	a4,1252 <.L0 +0x16>
    1294:	0811                	slli	a6,a6,0x4
    1296:	117e                	j	b54 <.L0 +0xc>
    1298:	7d12                	bnez	a0,125c <.L0 +0x20>
    129a:	1311                	slli	t1,t1,0x24
    129c:	447c                	sw	a5,76(s0)
    129e:	400e                	beqz	s0,12c0 <.L0 +0x18>
    12a0:	0020                	0x20
    12a2:	0000                	unimp
    12a4:	03d8                	mv	t2,s6
	...

000012a8 <.L0 >:
	...
    12b0:	4400                	sw	s0,8(s0)
    12b2:	200e                	jal	12d4 <.L0 +0x8>
    12b4:	1150                	add	sp,sp,s4
    12b6:	7f01                	bltz	a4,1276 <.L0 +0x16>
    12b8:	0811                	slli	a6,a6,0x4
    12ba:	117e                	j	b78 <.L0 +0x14>
    12bc:	7d12                	bnez	a0,1280 <.L0 +0x20>
    12be:	1311                	slli	t1,t1,0x24
    12c0:	447c                	sw	a5,76(s0)
    12c2:	400e                	beqz	s0,12e4 <.L0 +0x18>
    12c4:	001c                	0x1c
    12c6:	0000                	unimp
    12c8:	03fc                	mv	t2,t6
	...

000012cc <.L0 >:
	...
    12d4:	4400                	sw	s0,8(s0)
    12d6:	200e                	jal	12f8 <.L0 +0xc>
    12d8:	1148                	add	sp,sp,s2
    12da:	7f01                	bltz	a4,129a <.L0 +0x16>
    12dc:	0811                	slli	a6,a6,0x4
    12de:	447e                	beqz	s0,135c <.L0 +0x10>
    12e0:	400e                	beqz	s0,1302 <.L0 +0x16>
    12e2:	0000                	unimp
    12e4:	001c                	0x1c
    12e6:	0000                	unimp
    12e8:	041c                	mv	s0,t2
	...

000012ec <.L0 >:
	...
    12f4:	4400                	sw	s0,8(s0)
    12f6:	200e                	jal	1318 <.L0 +0xc>
    12f8:	1148                	add	sp,sp,s2
    12fa:	7f01                	bltz	a4,12ba <.L0 +0x12>
    12fc:	0811                	slli	a6,a6,0x4
    12fe:	447e                	beqz	s0,137c <.L0 +0x10>
    1300:	400e                	beqz	s0,1322 <.L0 +0x16>
    1302:	0000                	unimp
    1304:	001c                	0x1c
    1306:	0000                	unimp
    1308:	043c                	mv	s0,a5
	...

0000130c <.L0 >:
	...
    1314:	4400                	sw	s0,8(s0)
    1316:	200e                	jal	1338 <.L0 +0xc>
    1318:	1148                	add	sp,sp,s2
    131a:	7f01                	bltz	a4,12da <.L0 +0xe>
    131c:	0811                	slli	a6,a6,0x4
    131e:	447e                	beqz	s0,139c <.L0 +0x10>
    1320:	400e                	beqz	s0,1342 <.L0 +0x16>
    1322:	0000                	unimp
    1324:	001c                	0x1c
    1326:	0000                	unimp
    1328:	045c                	mv	s0,s7
	...

0000132c <.L0 >:
	...
    1334:	4400                	sw	s0,8(s0)
    1336:	200e                	jal	1358 <.L0 +0xc>
    1338:	1148                	add	sp,sp,s2
    133a:	7f01                	bltz	a4,12fa <.L0 +0xe>
    133c:	0811                	slli	a6,a6,0x4
    133e:	447e                	beqz	s0,13bc <.L0 +0xc>
    1340:	400e                	beqz	s0,1362 <.L0 +0x16>
    1342:	0000                	unimp
    1344:	001c                	0x1c
    1346:	0000                	unimp
    1348:	047c                	mv	s0,t6
	...

0000134c <.L0 >:
	...
    1354:	4400                	sw	s0,8(s0)
    1356:	200e                	jal	1378 <.L0 +0xc>
    1358:	1148                	add	sp,sp,s2
    135a:	7f01                	bltz	a4,131a <.L0 +0xe>
    135c:	0811                	slli	a6,a6,0x4
    135e:	447e                	beqz	s0,13dc <.L0 +0x8>
    1360:	400e                	beqz	s0,1382 <.L0 +0x16>
    1362:	0000                	unimp
    1364:	001c                	0x1c
    1366:	0000                	unimp
    1368:	049c                	mv	s1,t2
	...

0000136c <.L0 >:
	...
    1374:	4400                	sw	s0,8(s0)
    1376:	200e                	jal	1398 <.L0 +0xc>
    1378:	1148                	add	sp,sp,s2
    137a:	7f01                	bltz	a4,133a <.L0 +0xe>
    137c:	0811                	slli	a6,a6,0x4
    137e:	447e                	beqz	s0,13fc <.L0 +0x8>
    1380:	400e                	beqz	s0,13a2 <.L0 +0x16>
    1382:	0000                	unimp
    1384:	0020                	0x20
    1386:	0000                	unimp
    1388:	04bc                	mv	s1,a5
	...

0000138c <.L0 >:
	...
    1394:	4400                	sw	s0,8(s0)
    1396:	200e                	jal	13b8 <.L0 +0x8>
    1398:	1150                	add	sp,sp,s4
    139a:	7f01                	bltz	a4,135a <.L0 +0xe>
    139c:	0811                	slli	a6,a6,0x4
    139e:	117e                	j	c5c <.L0 >
    13a0:	7d12                	bnez	a0,1364 <.L0 +0x18>
    13a2:	1311                	slli	t1,t1,0x24
    13a4:	447c                	sw	a5,76(s0)
    13a6:	400e                	beqz	s0,13c8 <.L0 +0x18>
    13a8:	0020                	0x20
    13aa:	0000                	unimp
    13ac:	04e0                	mv	s1,s8
	...

000013b0 <.L0 >:
	...
    13b8:	4400                	sw	s0,8(s0)
    13ba:	200e                	jal	13dc <.L0 +0x8>
    13bc:	1150                	add	sp,sp,s4
    13be:	7f01                	bltz	a4,137e <.L0 +0x12>
    13c0:	0811                	slli	a6,a6,0x4
    13c2:	117e                	j	c80 <.L0 +0x4>
    13c4:	7d12                	bnez	a0,1388 <.L0 +0x1c>
    13c6:	1311                	slli	t1,t1,0x24
    13c8:	447c                	sw	a5,76(s0)
    13ca:	400e                	beqz	s0,13ec <.L0 +0x18>
    13cc:	001c                	0x1c
    13ce:	0000                	unimp
    13d0:	0504                	mv	a0,ra
	...

000013d4 <.L0 >:
	...
    13dc:	4400                	sw	s0,8(s0)
    13de:	200e                	jal	1400 <.L0 +0xc>
    13e0:	1148                	add	sp,sp,s2
    13e2:	7f01                	bltz	a4,13a2 <.L0 +0x16>
    13e4:	0811                	slli	a6,a6,0x4
    13e6:	447e                	beqz	s0,1464 <.L0 +0xc>
    13e8:	400e                	beqz	s0,140a <.L0 +0x16>
    13ea:	0000                	unimp
    13ec:	001c                	0x1c
    13ee:	0000                	unimp
    13f0:	0524                	mv	a0,s1
	...

000013f4 <.L0 >:
	...
    13fc:	4400                	sw	s0,8(s0)
    13fe:	200e                	jal	1420 <.L0 +0xc>
    1400:	1148                	add	sp,sp,s2
    1402:	7f01                	bltz	a4,13c2 <.L0 +0x12>
    1404:	0811                	slli	a6,a6,0x4
    1406:	447e                	beqz	s0,1484 <.L0 +0xc>
    1408:	400e                	beqz	s0,142a <.L0 +0x16>
    140a:	0000                	unimp
    140c:	001c                	0x1c
    140e:	0000                	unimp
    1410:	0544                	mv	a0,a7
	...

00001414 <.L0 >:
	...
    141c:	4400                	sw	s0,8(s0)
    141e:	300e                	jal	c40 <.L0 +0x4>
    1420:	1148                	add	sp,sp,s2
    1422:	7f01                	bltz	a4,13e2 <.L0 +0xe>
    1424:	0811                	slli	a6,a6,0x4
    1426:	447e                	beqz	s0,14a4 <.L0 +0xc>
    1428:	600e                	bnez	s0,144a <.L0 +0x16>
    142a:	0000                	unimp
    142c:	0020                	0x20
    142e:	0000                	unimp
    1430:	0564                	mv	a0,s9
	...

00001434 <.L0 >:
	...
    143c:	4400                	sw	s0,8(s0)
    143e:	200e                	jal	1460 <.L0 +0x8>
    1440:	1150                	add	sp,sp,s4
    1442:	7f01                	bltz	a4,1402 <.L0 +0xe>
    1444:	0811                	slli	a6,a6,0x4
    1446:	117e                	j	d04 <.L0 +0x28>
    1448:	7d12                	bnez	a0,140c <.L0 +0x18>
    144a:	1311                	slli	t1,t1,0x24
    144c:	447c                	sw	a5,76(s0)
    144e:	400e                	beqz	s0,1470 <.L0 +0x18>
    1450:	001c                	0x1c
    1452:	0000                	unimp
    1454:	0588                	mv	a1,sp
	...

00001458 <.L0 >:
	...
    1460:	4400                	sw	s0,8(s0)
    1462:	500e                	beqz	s0,1384 <.L0 +0x18>
    1464:	1148                	add	sp,sp,s2
    1466:	7f01                	bltz	a4,1426 <.L0 +0x12>
    1468:	0811                	slli	a6,a6,0x4
    146a:	447e                	beqz	s0,14e8 <.L0 +0x30>
    146c:	a00e                	0xa00e
    146e:	0001                	0x1
    1470:	001c                	0x1c
    1472:	0000                	unimp
    1474:	05a8                	mv	a1,a0
	...

00001478 <.L0 >:
	...
    1480:	4400                	sw	s0,8(s0)
    1482:	300e                	jal	ca4 <.L0 +0x8>
    1484:	1148                	add	sp,sp,s2
    1486:	7f01                	bltz	a4,1446 <.L0 +0x12>
    1488:	0811                	slli	a6,a6,0x4
    148a:	447e                	beqz	s0,1508 <.L0 +0xc>
    148c:	600e                	bnez	s0,14ae <.L0 +0x16>
    148e:	0000                	unimp
    1490:	001c                	0x1c
    1492:	0000                	unimp
    1494:	05c8                	mv	a1,s2
	...

00001498 <.L0 >:
	...
    14a0:	4400                	sw	s0,8(s0)
    14a2:	400e                	beqz	s0,14c4 <.L0 +0xc>
    14a4:	1148                	add	sp,sp,s2
    14a6:	7f01                	bltz	a4,1466 <.L0 +0xe>
    14a8:	0811                	slli	a6,a6,0x4
    14aa:	447e                	beqz	s0,1528 <.L0 +0x18>
    14ac:	800e                	0x800e
    14ae:	0001                	0x1
    14b0:	002c                	0x2c
    14b2:	0000                	unimp
    14b4:	05e8                	mv	a1,s10
	...

000014b8 <.L0 >:
	...
    14c0:	4400                	sw	s0,8(s0)
    14c2:	500e                	beqz	s0,13e4 <.L0 +0x10>
    14c4:	115c                	add	sp,sp,s7
    14c6:	7f01                	bltz	a4,1486 <.L0 +0xe>
    14c8:	0811                	slli	a6,a6,0x4
    14ca:	117e                	j	d88 <.L0 +0xc>
    14cc:	7d09                	bltz	a0,148e <.L0 +0x16>
    14ce:	1211                	slli	tp,tp,0x24
    14d0:	117c                	add	sp,sp,t6
    14d2:	14117b13          	andi	s6,sp,321
    14d6:	117a                	j	d74 <.L0 +0x14>
    14d8:	7915                	bltz	a0,147c <.L0 +0x4>
    14da:	0e44                	mv	t3,a7
    14dc:	01a0                	mv	gp,s0
    14de:	0000                	unimp
    14e0:	0010                	0x10
    14e2:	0000                	unimp
    14e4:	0000                	unimp
    14e6:	0000                	unimp
    14e8:	7a01                	bltz	a2,1468 <.L0 +0x10>
    14ea:	0052                	j	14fe <.L0 +0x2>
    14ec:	0401                	slli	s0,s0,0x0
    14ee:	0101                	slli	sp,sp,0x0
    14f0:	00020d1b          	0x20d1b
    14f4:	0010                	0x10
    14f6:	0000                	unimp
    14f8:	0018                	0x18
	...

000014fc <.L0 >:
	...
    1508:	0028                	0x28
    150a:	0000                	unimp
    150c:	002c                	0x2c
	...

00001510 <.L0 >:
	...
    1518:	4400                	sw	s0,8(s0)
    151a:	200e                	jal	153c <.L0 >
    151c:	0e64                	mv	t3,s9
    151e:	1140                	add	sp,sp,a6
    1520:	7f01                	bltz	a4,14e0 <.L0 +0x28>
    1522:	0811                	slli	a6,a6,0x4
    1524:	117e                	j	de2 <.L0 +0x6>
    1526:	7d09                	bltz	a0,14e8 <.L0 +0x30>
    1528:	1211                	slli	tp,tp,0x24
    152a:	117c                	add	sp,sp,t6
    152c:	14117b13          	andi	s6,sp,321
    1530:	007a                	j	154e <.L0 +0x12>
    1532:	0000                	unimp
    1534:	0020                	0x20
    1536:	0000                	unimp
    1538:	0058                	0x58
	...

0000153c <.L0 >:
	...
    1544:	4400                	sw	s0,8(s0)
    1546:	300e                	jal	d68 <.L0 +0x8>
    1548:	0e54                	mv	t3,s5
    154a:	1160                	add	sp,sp,s8
    154c:	7f01                	bltz	a4,150c <.L0 +0x10>
    154e:	0811                	slli	a6,a6,0x4
    1550:	117e                	j	e0e <.L0 +0x12>
    1552:	7d09                	bltz	a0,1514 <.L0 +0x4>
    1554:	1211                	slli	tp,tp,0x24
    1556:	007c                	0x7c
    1558:	001c                	0x1c
    155a:	0000                	unimp
    155c:	007c                	0x7c
	...

00001560 <.L0 >:
	...
    1568:	4400                	sw	s0,8(s0)
    156a:	200e                	jal	158c <.L0 +0xc>
    156c:	1144                	add	sp,sp,a7
    156e:	7e08                	0x7e08
    1570:	0e48                	mv	t3,s2
    1572:	5840                	sw	s0,52(s0)
    1574:	0111                	slli	sp,sp,0x4
    1576:	00240077          	0x240077
    157a:	0000                	unimp
    157c:	009c                	mv	ra,t2
	...

00001580 <.L0 >:
	...
    1588:	4800                	sw	s0,16(s0)
    158a:	200e                	jal	15ac <.L0 +0x4>
    158c:	0e4c                	mv	t3,s3
    158e:	1140                	add	sp,sp,a6
    1590:	7e08                	0x7e08
    1592:	0911                	slli	s2,s2,0x4
    1594:	447d                	sw	t6,8(sp)
    1596:	0111                	slli	sp,sp,0x4
    1598:	0eb00277          	0xeb00277
    159c:	c100                	lw	s0,0(a0)
    159e:	c9c8                	lw	a0,20(a1)
    15a0:	0024                	0x24
    15a2:	0000                	unimp
    15a4:	00c4                	mv	ra,a7
	...

000015a8 <.L0 >:
	...
    15b0:	4800                	sw	s0,16(s0)
    15b2:	200e                	jal	15d4 <_edata+0x4>
    15b4:	0e4c                	mv	t3,s3
    15b6:	1140                	add	sp,sp,a6
    15b8:	7e08                	0x7e08
    15ba:	0911                	slli	s2,s2,0x4
    15bc:	447d                	sw	t6,8(sp)
    15be:	0111                	slli	sp,sp,0x4
    15c0:	0e700277          	0xe700277
    15c4:	c100                	lw	s0,0(a0)
    15c6:	c9c8                	lw	a0,20(a1)

Disassembly of section .tbss:

00000000 <buf.1018>:
	...

00000040 <buflen.1019>:
  40:	0000                	unimp
	...

Disassembly of section .bss:

00000048 <_bss_start>:
	...

00000060 <user_info>:
	...

Disassembly of section .debug_info:

00000000 <.Ldebug_info0>:
       0:	0888                	mv	a7,sp
       2:	0000                	unimp
       4:	0004                	0x4
       6:	0000                	unimp
       8:	0000                	unimp
       a:	0104                	mv	sp,ra
       c:	0000                	unimp
       e:	0000                	unimp
      10:	000c                	0xc
	...
      1e:	0000                	unimp
      20:	0200                	li	tp,0
      22:	0601                	slli	a2,a2,0x0
      24:	0000                	unimp
      26:	0000                	unimp
      28:	0202                	j	128 <.Ldebug_info0+0x128>
      2a:	0005                	0x5
      2c:	0000                	unimp
      2e:	0300                	li	t1,0
      30:	0000                	unimp
      32:	0000                	unimp
      34:	003a1003          	lh	zero,3(s4)
      38:	0000                	unimp
      3a:	0404                	mv	s0,ra
      3c:	6905                	bltz	a0,dc <.Ldebug_info0+0xdc>
      3e:	746e                	bnez	s0,ffffffb8 <.L0 +0xfffebd08>
      40:	0200                	li	tp,0
      42:	0508                	mv	a0,sp
      44:	0000                	unimp
      46:	0000                	unimp
      48:	0102                	j	c8 <.Ldebug_info0+0xc8>
      4a:	0008                	0x8
      4c:	0000                	unimp
      4e:	0300                	li	t1,0
      50:	0000                	unimp
      52:	0000                	unimp
      54:	005a1403          	lh	s0,5(s4)
      58:	0000                	unimp
      5a:	0202                	j	15a <.Ldebug_info0+0x15a>
      5c:	00000007          	0x7
      60:	0300                	li	t1,0
      62:	0000                	unimp
      64:	0000                	unimp
      66:	006c1503          	lh	a0,6(s8)
      6a:	0000                	unimp
      6c:	0402                	j	26c <.Ldebug_info0+0x26c>
      6e:	00000007          	0x7
      72:	0300                	li	t1,0
      74:	0000                	unimp
      76:	0000                	unimp
      78:	007e1603          	lh	a2,7(t3)
      7c:	0000                	unimp
      7e:	0802                	j	47e <.Ldebug_info0+0x47e>
      80:	00000007          	0x7
      84:	0300                	li	t1,0
      86:	0000                	unimp
      88:	0000                	unimp
      8a:	00611803          	lh	a6,6(sp)
      8e:	0000                	unimp
      90:	0005                	0x5
      92:	0000                	unimp
      94:	3400                	srai	s0,s0,0x20
      96:	5901                	sw	zero,176(sp)
      98:	0145                	slli	sp,sp,0x11
      9a:	0000                	unimp
      9c:	0006                	j	bc <.Ldebug_info0+0xbc>
      9e:	0000                	unimp
      a0:	0100                	li	sp,0
      a2:	455a                	beqz	a0,f8 <.Ldebug_info0+0xf8>
      a4:	0001                	0x1
      a6:	0000                	unimp
      a8:	0006                	j	c8 <.Ldebug_info0+0xc8>
      aa:	0000                	unimp
      ac:	0100                	li	sp,0
      ae:	00004f5b          	custom2	t5,0,0,0
      b2:	1000                	ebreak
      b4:	0006                	j	d4 <.Ldebug_info0+0xd4>
      b6:	0000                	unimp
      b8:	0100                	li	sp,0
      ba:	4f5d                	sw	s7,156(sp)
      bc:	0000                	unimp
      be:	1200                	add	tp,tp,zero
      c0:	0006                	j	e0 <.Ldebug_info0+0xe0>
      c2:	0000                	unimp
      c4:	0100                	li	sp,0
      c6:	615e                	bnez	a0,fc <.Ldebug_info0+0xfc>
      c8:	0000                	unimp
      ca:	1400                	add	s0,s0,zero
      cc:	0006                	j	ec <.Ldebug_info0+0xec>
      ce:	0000                	unimp
      d0:	0100                	li	sp,0
      d2:	615f 0000 1800      	0x18000000615f
      d8:	0006                	j	f8 <.Ldebug_info0+0xf8>
      da:	0000                	unimp
      dc:	0100                	li	sp,0
      de:	6160                	0x6160
      e0:	0000                	unimp
      e2:	1c00                	add	s8,s8,zero
      e4:	0006                	j	104 <.Ldebug_info0+0x104>
      e6:	0000                	unimp
      e8:	0100                	li	sp,0
      ea:	6161                	bltz	a0,102 <.Ldebug_info0+0x102>
      ec:	0000                	unimp
      ee:	2000                	0x2000
      f0:	0006                	j	110 <.Ldebug_info0+0x110>
      f2:	0000                	unimp
      f4:	0100                	li	sp,0
      f6:	6162                	bnez	a0,10e <.Ldebug_info0+0x10e>
      f8:	0000                	unimp
      fa:	2400                	srai	s0,s0,0x0
      fc:	0006                	j	11c <.Ldebug_info0+0x11c>
      fe:	0000                	unimp
     100:	0100                	li	sp,0
     102:	00004f63          	bltz	zero,120 <.Ldebug_info0+0x120>
     106:	2800                	srai	a6,a6,0x0
     108:	0006                	j	128 <.Ldebug_info0+0x128>
     10a:	0000                	unimp
     10c:	0100                	li	sp,0
     10e:	4f64                	sw	s1,92(a4)
     110:	0000                	unimp
     112:	2a00                	srai	s4,s4,0x0
     114:	0006                	j	134 <.Ldebug_info0+0x134>
     116:	0000                	unimp
     118:	0100                	li	sp,0
     11a:	4f66                	beqz	a4,212 <.Ldebug_info0+0x212>
     11c:	0000                	unimp
     11e:	2c00                	srai	s8,s8,0x0
     120:	0006                	j	140 <.Ldebug_info0+0x140>
     122:	0000                	unimp
     124:	0100                	li	sp,0
     126:	4f68                	sw	a0,92(a4)
     128:	0000                	unimp
     12a:	2e00                	srai	t3,t3,0x0
     12c:	0006                	j	14c <.Ldebug_info0+0x14c>
     12e:	0000                	unimp
     130:	0100                	li	sp,0
     132:	4f69                	sw	s10,156(sp)
     134:	0000                	unimp
     136:	3000                	0x3000
     138:	0006                	j	158 <.Ldebug_info0+0x158>
     13a:	0000                	unimp
     13c:	0100                	li	sp,0
     13e:	4f6a                	beqz	a4,218 <.Ldebug_info0+0x218>
     140:	0000                	unimp
     142:	3200                	srai	tp,tp,0x20
     144:	0700                	li	a4,0
     146:	0048                	0x48
     148:	0000                	unimp
     14a:	0155                	slli	sp,sp,0x15
     14c:	0000                	unimp
     14e:	5508                	sw	a0,40(a0)
     150:	0001                	0x1
     152:	0f00                	li	t5,0
     154:	0200                	li	tp,0
     156:	0704                	mv	a4,ra
     158:	0000                	unimp
     15a:	0000                	unimp
     15c:	0005                	0x5
     15e:	0000                	unimp
     160:	2000                	0x2000
     162:	8201                	addi	s0,a2,0
     164:	01c9                	slli	gp,gp,0x12
     166:	0000                	unimp
     168:	0006                	j	188 <.Ldebug_info0+0x188>
     16a:	0000                	unimp
     16c:	0100                	li	sp,0
     16e:	00006183          	0x6183
     172:	0000                	unimp
     174:	0006                	j	194 <.Ldebug_info0+0x194>
     176:	0000                	unimp
     178:	0100                	li	sp,0
     17a:	6184                	xor	a1,a1,s1
     17c:	0000                	unimp
     17e:	0400                	li	s0,0
     180:	0006                	j	1a0 <.Ldebug_info0+0x1a0>
     182:	0000                	unimp
     184:	0100                	li	sp,0
     186:	6185                	bltz	a1,1a6 <.Ldebug_info0+0x1a6>
     188:	0000                	unimp
     18a:	0800                	li	a6,0
     18c:	0006                	j	1ac <.Ldebug_info0+0x1ac>
     18e:	0000                	unimp
     190:	0100                	li	sp,0
     192:	00006187          	0x6187
     196:	0c00                	li	s8,0
     198:	0006                	j	1b8 <.Ldebug_info0+0x1b8>
     19a:	0000                	unimp
     19c:	0100                	li	sp,0
     19e:	6189                	bltz	a1,1a0 <.Ldebug_info0+0x1a0>
     1a0:	0000                	unimp
     1a2:	1000                	ebreak
     1a4:	0006                	j	1c4 <.Ldebug_info0+0x1c4>
     1a6:	0000                	unimp
     1a8:	0100                	li	sp,0
     1aa:	0000618b          	custom0	gp,zero,0,0
     1ae:	1400                	add	s0,s0,zero
     1b0:	0006                	j	1d0 <.Ldebug_info0+0x1d0>
     1b2:	0000                	unimp
     1b4:	0100                	li	sp,0
     1b6:	6190                	xor	a1,a1,a2
     1b8:	0000                	unimp
     1ba:	1800                	add	a6,a6,zero
     1bc:	0006                	j	1dc <.Ldebug_info0+0x1dc>
     1be:	0000                	unimp
     1c0:	0100                	li	sp,0
     1c2:	6192                	bnez	a1,1c6 <.Ldebug_info0+0x1c6>
     1c4:	0000                	unimp
     1c6:	1c00                	add	s8,s8,zero
     1c8:	0300                	li	t1,0
     1ca:	0000                	unimp
     1cc:	0000                	unimp
     1ce:	1004                	0x1004
     1d0:	0085                	slli	ra,ra,0x1
     1d2:	0000                	unimp
     1d4:	00000003          	lb	zero,0(zero)
     1d8:	0400                	li	s0,0
     1da:	8511                	addi	a2,a0,1
     1dc:	0000                	unimp
     1de:	0500                	li	a0,0
     1e0:	0000                	unimp
     1e2:	0000                	unimp
     1e4:	0418                	mv	s0,t1
     1e6:	341d                	srli	s0,s0,0x27
     1e8:	0002                	j	1e8 <.Ldebug_info0+0x1e8>
     1ea:	0600                	li	a2,0
     1ec:	0000                	unimp
     1ee:	0000                	unimp
     1f0:	1f04                	add	t5,t5,ra
     1f2:	01c9                	slli	gp,gp,0x12
     1f4:	0000                	unimp
     1f6:	0600                	li	a2,0
     1f8:	0000                	unimp
     1fa:	0000                	unimp
     1fc:	2004                	0x2004
     1fe:	01c9                	slli	gp,gp,0x12
     200:	0000                	unimp
     202:	0604                	mv	a2,ra
     204:	0000                	unimp
     206:	0000                	unimp
     208:	2304                	srai	t1,t1,0x1
     20a:	01d4                	mv	gp,s5
     20c:	0000                	unimp
     20e:	0608                	mv	a2,sp
     210:	0000                	unimp
     212:	0000                	unimp
     214:	2404                	srai	s0,s0,0x1
     216:	01d4                	mv	gp,s5
     218:	0000                	unimp
     21a:	060c                	mv	a2,gp
     21c:	0000                	unimp
     21e:	0000                	unimp
     220:	2704                	srai	a4,a4,0x1
     222:	01d4                	mv	gp,s5
     224:	0000                	unimp
     226:	0610                	mv	a2,tp
     228:	0000                	unimp
     22a:	0000                	unimp
     22c:	3004                	0x3004
     22e:	0061                	0x61
     230:	0000                	unimp
     232:	0014                	0x14
     234:	0102                	j	2b4 <.Ldebug_info0+0x2b4>
     236:	0008                	0x8
     238:	0000                	unimp
     23a:	0900                	li	s2,0
     23c:	0000                	unimp
     23e:	0000                	unimp
     240:	5002                	beqz	s0,140 <.Ldebug_info0+0x140>
     242:	4701                	sw	zero,140(sp)
     244:	0002                	j	244 <.Ldebug_info0+0x244>
     246:	0a00                	li	s4,0
     248:	4d04                	sw	s1,24(a0)
     24a:	0002                	j	24a <.Ldebug_info0+0x24a>
     24c:	0b00                	li	s6,0
     24e:	026c                	mv	tp,s11
     250:	0000                	unimp
     252:	c90c                	lw	a1,16(a0)
     254:	0001                	0x1
     256:	0c00                	li	s8,0
     258:	01c9                	slli	gp,gp,0x12
     25a:	0000                	unimp
     25c:	2f0c                	srai	t5,t5,0x3
     25e:	0000                	unimp
     260:	0c00                	li	s8,0
     262:	01d4                	mv	gp,s5
     264:	0000                	unimp
     266:	6c0c                	sll	a1,s0,a1
     268:	0002                	j	268 <.Ldebug_info0+0x268>
     26a:	0000                	unimp
     26c:	040d                	slli	s0,s0,0x3
     26e:	000e                	j	290 <.Ldebug_info0+0x290>
     270:	0000                	unimp
     272:	0100                	li	sp,0
     274:	96be                	li	a3,-17
     276:	0002                	j	276 <.Ldebug_info0+0x276>
	...
     280:	0100                	li	sp,0
     282:	969c                	0x969c
     284:	0002                	j	284 <.Ldebug_info0+0x284>
     286:	0f00                	li	t5,0
     288:	0000                	unimp
     28a:	0000                	unimp
     28c:	be01                	addi	s0,sp,816
     28e:	029c                	mv	t0,t2
     290:	0000                	unimp
     292:	9102                	li	sp,-32
     294:	006c                	0x6c
     296:	040a                	j	498 <.Ldebug_info0+0x498>
     298:	015c                	mv	sp,s7
     29a:	0000                	unimp
     29c:	040a                	j	49e <.Ldebug_info0+0x49e>
     29e:	0090                	mv	ra,tp
     2a0:	0000                	unimp
     2a2:	0010                	0x10
     2a4:	0000                	unimp
     2a6:	0100                	li	sp,0
     2a8:	000061cb          	fnmsub.s	ft3,ft0,ft0,ft0,unknown
	...
     2b4:	0100                	li	sp,0
     2b6:	d79c                	lw	a5,40(a5)
     2b8:	0002                	j	2b8 <.Ldebug_info0+0x2b8>
     2ba:	0f00                	li	t5,0
     2bc:	0000                	unimp
     2be:	0000                	unimp
     2c0:	cb01                	lw	s6,0(sp)
     2c2:	029c                	mv	t0,t2
     2c4:	0000                	unimp
     2c6:	9102                	li	sp,-32
     2c8:	116c                	add	sp,sp,s11
     2ca:	6870                	0x6870
     2cc:	0100                	li	sp,0
     2ce:	00004fcb          	fnmsub.s	ft11,ft0,ft0,ft0,rmm
     2d2:	0200                	li	tp,0
     2d4:	6a91                	bltz	a3,358 <.Ldebug_info0+0x358>
     2d6:	1200                	add	tp,tp,zero
     2d8:	0000                	unimp
     2da:	0000                	unimp
     2dc:	8202                	jr	tp
	...
     2e6:	9c01                	addi	s0,s0,-1
     2e8:	000003ab          	custom1	7,0,0,0
     2ec:	0000000f          	fence	unknown,unknown
     2f0:	0200                	li	tp,0
     2f2:	ab82                	jalr	s7
     2f4:	02000003          	lb	zero,32(zero)
     2f8:	4c91                	sw	tp,88(sp)
     2fa:	02006913          	ori	s2,zero,32
     2fe:	6186                	bnez	a1,31e <.Ldebug_info0+0x31e>
     300:	0000                	unimp
     302:	0200                	li	tp,0
     304:	6c91                	bltz	s1,3c8 <.Ldebug_info0+0x3c8>
     306:	0014                	0x14
     308:	0000                	unimp
     30a:	0200                	li	tp,0
     30c:	0001c987          	0x1c987
     310:	0200                	li	tp,0
     312:	6891                	bltz	s1,396 <.Ldebug_info0+0x396>
     314:	78646913          	ori	s2,s0,1926
     318:	0200                	li	tp,0
     31a:	0000618b          	custom0	gp,zero,0,0
     31e:	0200                	li	tp,0
     320:	6491                	bltz	s1,364 <.Ldebug_info0+0x364>
     322:	0015                	0x15
     324:	0000                	unimp
     326:	0000                	unimp
     328:	0000                	unimp
     32a:	3e00                	srai	t3,t3,0x20
     32c:	14000003          	lb	zero,320(zero)
     330:	0000                	unimp
     332:	0000                	unimp
     334:	b602                	lui	a2,0xfffe0
     336:	03b1                	slli	t2,t2,0xc
     338:	0000                	unimp
     33a:	9102                	li	sp,-32
     33c:	0060                	0x60
     33e:	0015                	0x15
     340:	0000                	unimp
     342:	0000                	unimp
     344:	0000                	unimp
     346:	5a00                	sw	s0,48(a2)
     348:	14000003          	lb	zero,320(zero)
     34c:	0000                	unimp
     34e:	0000                	unimp
     350:	b702                	lui	a4,0xfffe0
     352:	03b1                	slli	t2,t2,0xc
     354:	0000                	unimp
     356:	9102                	li	sp,-32
     358:	005c                	0x5c
     35a:	0015                	0x15
     35c:	0000                	unimp
     35e:	0000                	unimp
     360:	0000                	unimp
     362:	7600                	0x7600
     364:	14000003          	lb	zero,320(zero)
     368:	0000                	unimp
     36a:	0000                	unimp
     36c:	b802                	lui	a6,0xfffe0
     36e:	03b1                	slli	t2,t2,0xc
     370:	0000                	unimp
     372:	9102                	li	sp,-32
     374:	0058                	0x58
     376:	0015                	0x15
     378:	0000                	unimp
     37a:	0000                	unimp
     37c:	0000                	unimp
     37e:	9200                	0x9200
     380:	14000003          	lb	zero,320(zero)
     384:	0000                	unimp
     386:	0000                	unimp
     388:	bb02                	lui	s6,0xfffe0
     38a:	03b1                	slli	t2,t2,0xc
     38c:	0000                	unimp
     38e:	9102                	li	sp,-32
     390:	0054                	0x54
     392:	0016                	j	3b6 <.Ldebug_info0+0x3b6>
     394:	0000                	unimp
     396:	0000                	unimp
     398:	0000                	unimp
     39a:	1400                	add	s0,s0,zero
     39c:	0000                	unimp
     39e:	0000                	unimp
     3a0:	c002                	nop
     3a2:	03b1                	slli	t2,t2,0xc
     3a4:	0000                	unimp
     3a6:	9102                	li	sp,-32
     3a8:	0050                	0x50
     3aa:	0a00                	li	s4,0
     3ac:	df04                	lw	s1,56(a4)
     3ae:	0001                	0x1
     3b0:	0200                	li	tp,0
     3b2:	0704                	mv	a4,ra
     3b4:	0000                	unimp
     3b6:	0000                	unimp
     3b8:	000e                	j	3da <.Ldebug_info0+0x3da>
     3ba:	0000                	unimp
     3bc:	0200                	li	tp,0
     3be:	3ac6                	jal	12e <.Ldebug_info0+0x12e>
	...
     3c8:	0000                	unimp
     3ca:	0100                	li	sp,0
     3cc:	0a9c                	mv	s5,t2
     3ce:	0004                	0x4
     3d0:	0f00                	li	t5,0
     3d2:	0000                	unimp
     3d4:	0000                	unimp
     3d6:	c602                	addi	a2,a2,0
     3d8:	0061                	0x61
     3da:	0000                	unimp
     3dc:	9102                	li	sp,-32
     3de:	0f6c                	mv	t5,s11
     3e0:	0000                	unimp
     3e2:	0000                	unimp
     3e4:	c602                	addi	a2,a2,0
     3e6:	0061                	0x61
     3e8:	0000                	unimp
     3ea:	9102                	li	sp,-32
     3ec:	0f68                	mv	t5,s10
     3ee:	0000                	unimp
     3f0:	0000                	unimp
     3f2:	c702                	addi	a4,a4,0
     3f4:	0061                	0x61
     3f6:	0000                	unimp
     3f8:	9102                	li	sp,-32
     3fa:	0f64                	mv	t5,s9
     3fc:	0000                	unimp
     3fe:	0000                	unimp
     400:	c702                	addi	a4,a4,0
     402:	0061                	0x61
     404:	0000                	unimp
     406:	9102                	li	sp,-32
     408:	0060                	0x60
     40a:	00000017          	auipc	zero,0x0
     40e:	0200                	li	tp,0
     410:	00d8                	mv	ra,s6
     412:	0000                	unimp
     414:	0000                	unimp
     416:	0000                	unimp
     418:	0100                	li	sp,0
     41a:	3c9c                	srai	s9,s9,0x27
     41c:	0004                	0x4
     41e:	0f00                	li	t5,0
     420:	0000                	unimp
     422:	0000                	unimp
     424:	d802                	addi	a6,a6,-32
     426:	01c9                	slli	gp,gp,0x12
     428:	0000                	unimp
     42a:	9102                	li	sp,-32
     42c:	0f6c                	mv	t5,s11
     42e:	0000                	unimp
     430:	0000                	unimp
     432:	d802                	addi	a6,a6,-32
     434:	01c9                	slli	gp,gp,0x12
     436:	0000                	unimp
     438:	9102                	li	sp,-32
     43a:	0068                	0x68
     43c:	00000017          	auipc	zero,0x0
     440:	0200                	li	tp,0
     442:	00e5                	slli	ra,ra,0x19
     444:	0000                	unimp
     446:	0000                	unimp
     448:	0000                	unimp
     44a:	0100                	li	sp,0
     44c:	e89c                	0xe89c
     44e:	0004                	0x4
     450:	1100                	add	sp,sp,zero
     452:	6c65                	bltz	s0,54a <.Ldebug_info0+0x54a>
     454:	0066                	j	48c <.Ldebug_info0+0x48c>
     456:	e502                	andi	a0,a0,0
     458:	026c                	mv	tp,s11
     45a:	0000                	unimp
     45c:	7fbc9103          	lh	sp,2043(s9)
     460:	0000000f          	fence	unknown,unknown
     464:	0200                	li	tp,0
     466:	c9e5                	lw	s3,88(sp)
     468:	0001                	0x1
     46a:	0300                	li	t1,0
     46c:	b891                	addi	a2,sp,112
     46e:	147f                	0x147f
     470:	0000                	unimp
     472:	0000                	unimp
     474:	e702                	andi	a4,a4,0
     476:	00000073          	ecall
     47a:	9102                	li	sp,-32
     47c:	1450                	add	s0,s0,s4
     47e:	0000                	unimp
     480:	0000                	unimp
     482:	e702                	andi	a4,a4,0
     484:	00000073          	ecall
     488:	9102                	li	sp,-32
     48a:	1448                	add	s0,s0,s2
     48c:	0000                	unimp
     48e:	0000                	unimp
     490:	e802                	andi	a6,a6,0
     492:	0061                	0x61
     494:	0000                	unimp
     496:	9102                	li	sp,-32
     498:	1468                	add	s0,s0,s10
     49a:	0000                	unimp
     49c:	0000                	unimp
     49e:	e902                	andi	s2,s2,0
     4a0:	0061                	0x61
     4a2:	0000                	unimp
     4a4:	9102                	li	sp,-32
     4a6:	1364                	add	t1,t1,s9
     4a8:	0069                	0x69
     4aa:	ea02                	andi	s4,s4,0
     4ac:	003a                	j	4ba <.Ldebug_info0+0x4ba>
     4ae:	0000                	unimp
     4b0:	9102                	li	sp,-32
     4b2:	166c                	add	a2,a2,s11
	...
     4bc:	0014                	0x14
     4be:	0000                	unimp
     4c0:	0200                	li	tp,0
     4c2:	d4f6                	addi	s1,s1,-3
     4c4:	0001                	0x1
     4c6:	0200                	li	tp,0
     4c8:	6091                	bltz	s1,4cc <.Ldebug_info0+0x4cc>
     4ca:	0014                	0x14
     4cc:	0000                	unimp
     4ce:	0200                	li	tp,0
     4d0:	000061f7          	0x61f7
     4d4:	0200                	li	tp,0
     4d6:	5c91                	sw	tp,120(sp)
     4d8:	0014                	0x14
     4da:	0000                	unimp
     4dc:	0200                	li	tp,0
     4de:	000061f7          	0x61f7
     4e2:	0200                	li	tp,0
     4e4:	5891                	sw	tp,112(sp)
     4e6:	0000                	unimp
     4e8:	0018                	0x18
     4ea:	0000                	unimp
     4ec:	0200                	li	tp,0
     4ee:	010e                	j	590 <.Ldebug_info0+0x590>
     4f0:	01c9                	slli	gp,gp,0x12
	...
     4fa:	0000                	unimp
     4fc:	9c01                	addi	s0,s0,-1
     4fe:	0570                	mv	a0,t3
     500:	0000                	unimp
     502:	0019                	0x19
     504:	0000                	unimp
     506:	0200                	li	tp,0
     508:	010e                	j	5aa <.Ldebug_info0+0x5aa>
     50a:	0570                	mv	a0,t3
     50c:	0000                	unimp
     50e:	7fbc9103          	lh	sp,2043(s9)
     512:	651a                	bnez	a0,558 <.Ldebug_info0+0x558>
     514:	666c                	sltu	a2,a2,a1
     516:	0200                	li	tp,0
     518:	010e                	j	5ba <.Ldebug_info0+0x5ba>
     51a:	026c                	mv	tp,s11
     51c:	0000                	unimp
     51e:	7fb89103          	lh	sp,2043(a7)
     522:	0019                	0x19
     524:	0000                	unimp
     526:	0200                	li	tp,0
     528:	01c9010f          	0x1c9010f
     52c:	0000                	unimp
     52e:	7fb49103          	lh	sp,2043(s1)
     532:	0019                	0x19
     534:	0000                	unimp
     536:	0200                	li	tp,0
     538:	03ab010f          	0x3ab010f
     53c:	0000                	unimp
     53e:	7fb09103          	lh	sp,2043(ra)
     542:	0000001b          	0x1b
     546:	0200                	li	tp,0
     548:	0111                	slli	sp,sp,0x4
     54a:	00000073          	ecall
     54e:	9102                	li	sp,-32
     550:	1b50                	add	s6,s6,s4
     552:	0000                	unimp
     554:	0000                	unimp
     556:	1102                	j	fffffdd6 <.L0 +0xfffebb26>
     558:	7301                	bltz	a4,458 <.Ldebug_info0+0x458>
     55a:	0000                	unimp
     55c:	0200                	li	tp,0
     55e:	4891                	sw	tp,80(sp)
     560:	0000001b          	0x1b
     564:	0200                	li	tp,0
     566:	0112                	j	5ea <.Ldebug_info0+0x5ea>
     568:	0061                	0x61
     56a:	0000                	unimp
     56c:	9102                	li	sp,-32
     56e:	005c                	0x5c
     570:	040a                	j	772 <.Ldebug_info0+0x772>
     572:	0576                	j	82e <.Ldebug_info0+0x82e>
     574:	0000                	unimp
     576:	341c                	srai	s0,s0,0x27
     578:	0002                	j	578 <.Ldebug_info0+0x578>
     57a:	1d00                	add	s10,s10,zero
     57c:	0000                	unimp
     57e:	0000                	unimp
     580:	5302                	beqz	a4,480 <.Ldebug_info0+0x480>
     582:	0001                	0x1
     584:	0000                	unimp
     586:	0000                	unimp
     588:	0000                	unimp
     58a:	0100                	li	sp,0
     58c:	4e9c                	sw	a5,24(a3)
     58e:	0006                	j	5ae <.Ldebug_info0+0x5ae>
     590:	1900                	add	s2,s2,zero
     592:	0000                	unimp
     594:	0000                	unimp
     596:	5302                	beqz	a4,496 <.Ldebug_info0+0x496>
     598:	ab01                	addi	s0,sp,400
     59a:	03000003          	lb	zero,48(zero) # 46c <.Ldebug_info0+0x46c>
     59e:	bc91                	addi	a2,sp,624
     5a0:	197f                	0x197f
     5a2:	0000                	unimp
     5a4:	0000                	unimp
     5a6:	5302                	beqz	a4,4a6 <.Ldebug_info0+0x4a6>
     5a8:	ab01                	addi	s0,sp,400
     5aa:	03000003          	lb	zero,48(zero)
     5ae:	b891                	addi	a2,sp,112
     5b0:	197f                	0x197f
     5b2:	0000                	unimp
     5b4:	0000                	unimp
     5b6:	5402                	beqz	s0,4f6 <.Ldebug_info0+0x4f6>
     5b8:	3a01                	srli	s4,s4,0x20
     5ba:	0000                	unimp
     5bc:	0300                	li	t1,0
     5be:	b491                	addi	a2,sp,608
     5c0:	197f                	0x197f
     5c2:	0000                	unimp
     5c4:	0000                	unimp
     5c6:	5402                	beqz	s0,506 <.Ldebug_info0+0x506>
     5c8:	4e01                	sw	zero,28(sp)
     5ca:	0006                	j	5ea <.Ldebug_info0+0x5ea>
     5cc:	0300                	li	t1,0
     5ce:	b091                	addi	a2,sp,96
     5d0:	1e7f                	0x1e7f
     5d2:	0069                	0x69
     5d4:	5602                	beqz	a2,514 <.Ldebug_info0+0x514>
     5d6:	3a01                	srli	s4,s4,0x20
     5d8:	0000                	unimp
     5da:	0200                	li	tp,0
     5dc:	6c91                	bltz	s1,6a0 <.Ldebug_info0+0x6a0>
     5de:	0000001b          	0x1b
     5e2:	0200                	li	tp,0
     5e4:	00730157          	0x730157
     5e8:	0000                	unimp
     5ea:	9102                	li	sp,-32
     5ec:	1b58                	add	s6,s6,s6
     5ee:	0000                	unimp
     5f0:	0000                	unimp
     5f2:	5702                	beqz	a4,532 <.Ldebug_info0+0x532>
     5f4:	7301                	bltz	a4,4f4 <.Ldebug_info0+0x4f4>
     5f6:	0000                	unimp
     5f8:	0200                	li	tp,0
     5fa:	5091                	sw	tp,96(sp)
     5fc:	0000001b          	0x1b
     600:	0200                	li	tp,0
     602:	0158                	mv	sp,s6
     604:	01c9                	slli	gp,gp,0x12
     606:	0000                	unimp
     608:	9102                	li	sp,-32
     60a:	1b68                	add	s6,s6,s10
     60c:	0000                	unimp
     60e:	0000                	unimp
     610:	5902                	beqz	a0,590 <.Ldebug_info0+0x590>
     612:	7001                	bltz	s0,512 <.Ldebug_info0+0x512>
     614:	0005                	0x5
     616:	0200                	li	tp,0
     618:	4c91                	sw	tp,88(sp)
     61a:	0000001b          	0x1b
     61e:	0200                	li	tp,0
     620:	015a                	j	6b6 <.Ldebug_info0+0x6b6>
     622:	03b1                	slli	t2,t2,0xc
     624:	0000                	unimp
     626:	9102                	li	sp,-32
     628:	1b48                	add	s6,s6,s2
     62a:	0000                	unimp
     62c:	0000                	unimp
     62e:	5d02                	beqz	a0,5ee <.Ldebug_info0+0x5ee>
     630:	6c01                	bltz	s0,6f0 <.Ldebug_info0+0x6f0>
     632:	0002                	j	632 <.Ldebug_info0+0x632>
     634:	0200                	li	tp,0
     636:	6491                	bltz	s1,67a <.Ldebug_info0+0x67a>
     638:	001f 0000 1b00      	0x1b000000001f
     63e:	0000                	unimp
     640:	0000                	unimp
     642:	8002                	0x8002
     644:	6c01                	bltz	s0,704 <.Ldebug_info0+0x704>
     646:	0002                	j	646 <.Ldebug_info0+0x646>
     648:	0200                	li	tp,0
     64a:	6091                	bltz	s1,64e <.Ldebug_info0+0x64e>
     64c:	0000                	unimp
     64e:	040a                	j	850 <.Ldebug_info0+0x850>
     650:	003a                	j	65e <.Ldebug_info0+0x65e>
     652:	0000                	unimp
     654:	001d                	0x1d
     656:	0000                	unimp
     658:	0200                	li	tp,0
     65a:	0190                	mv	gp,tp
	...
     664:	9c01                	addi	s0,s0,-1
     666:	000007c3          	fmadd.s	fa5,ft0,ft0,ft0,rne
     66a:	0019                	0x19
     66c:	0000                	unimp
     66e:	0200                	li	tp,0
     670:	0190                	mv	gp,tp
     672:	0061                	0x61
     674:	0000                	unimp
     676:	7efc9103          	lh	sp,2031(s9)
     67a:	0000001b          	0x1b
     67e:	0200                	li	tp,0
     680:	0194                	mv	gp,t0
     682:	01df 0000 9103      	0x9103000001df
     688:	7f98                	0x7f98
     68a:	691e                	bnez	a0,730 <.Ldebug_info0+0x730>
     68c:	0200                	li	tp,0
     68e:	0196                	j	772 <.Ldebug_info0+0x772>
     690:	0061                	0x61
     692:	0000                	unimp
     694:	9102                	li	sp,-32
     696:	1b5c                	add	s6,s6,s7
     698:	0000                	unimp
     69a:	0000                	unimp
     69c:	9702                	li	a4,-32
     69e:	7301                	bltz	a4,59e <.Ldebug_info0+0x59e>
     6a0:	0000                	unimp
     6a2:	0300                	li	t1,0
     6a4:	9091                	addi	a2,s1,-4
     6a6:	1b7f                	0x1b7f
     6a8:	0000                	unimp
     6aa:	0000                	unimp
     6ac:	9702                	li	a4,-32
     6ae:	7301                	bltz	a4,5ae <.Ldebug_info0+0x5ae>
     6b0:	0000                	unimp
     6b2:	0300                	li	t1,0
     6b4:	8891                	addi	a2,s1,2
     6b6:	1b7f                	0x1b7f
     6b8:	0000                	unimp
     6ba:	0000                	unimp
     6bc:	9802                	li	a6,-32
     6be:	c901                	lw	s2,0(sp)
     6c0:	0001                	0x1
     6c2:	0200                	li	tp,0
     6c4:	4c91                	sw	tp,88(sp)
     6c6:	0000001b          	0x1b
     6ca:	0200                	li	tp,0
     6cc:	0199                	slli	gp,gp,0x6
     6ce:	0570                	mv	a0,t3
     6d0:	0000                	unimp
     6d2:	7f849103          	lh	sp,2040(s1)
     6d6:	0000001b          	0x1b
     6da:	0200                	li	tp,0
     6dc:	019a                	j	7a2 <.Ldebug_info0+0x7a2>
     6de:	03b1                	slli	t2,t2,0xc
     6e0:	0000                	unimp
     6e2:	7f809103          	lh	sp,2040(ra)
     6e6:	0000001b          	0x1b
     6ea:	0200                	li	tp,0
     6ec:	0061019b          	0x61019b
     6f0:	0000                	unimp
     6f2:	9102                	li	sp,-32
     6f4:	1b58                	add	s6,s6,s6
     6f6:	0000                	unimp
     6f8:	0000                	unimp
     6fa:	9c02                	li	s8,-32
     6fc:	6101                	bltz	a0,6fc <.Ldebug_info0+0x6fc>
     6fe:	0000                	unimp
     700:	0200                	li	tp,0
     702:	5491                	sw	tp,104(sp)
     704:	0000001b          	0x1b
     708:	0200                	li	tp,0
     70a:	019d                	slli	gp,gp,0x7
     70c:	01c9                	slli	gp,gp,0x12
     70e:	0000                	unimp
     710:	9102                	li	sp,-32
     712:	1b48                	add	s6,s6,s2
     714:	0000                	unimp
     716:	0000                	unimp
     718:	a802                	jalr	a6
     71a:	6c01                	bltz	s0,7da <.Ldebug_info0+0x7da>
     71c:	0002                	j	71c <.Ldebug_info0+0x71c>
     71e:	0200                	li	tp,0
     720:	5091                	sw	tp,96(sp)
     722:	691e                	bnez	a0,7c8 <.Ldebug_info0+0x7c8>
     724:	7864                	0x7864
     726:	0200                	li	tp,0
     728:	01cc                	mv	gp,s3
     72a:	0061                	0x61
     72c:	0000                	unimp
     72e:	9102                	li	sp,-32
     730:	1544                	add	a0,a0,a7
	...
     73a:	074e                	j	aec <.Ldebug_info0+0x22d>
     73c:	0000                	unimp
     73e:	0000001b          	0x1b
     742:	0200                	li	tp,0
     744:	01d9                	slli	gp,gp,0x16
     746:	03b1                	slli	t2,t2,0xc
     748:	0000                	unimp
     74a:	9102                	li	sp,-32
     74c:	0040                	0x40
     74e:	0015                	0x15
     750:	0000                	unimp
     752:	0000                	unimp
     754:	0000                	unimp
     756:	6c00                	sll	s0,s0,s0
     758:	1b000007          	0x1b000007
     75c:	0000                	unimp
     75e:	0000                	unimp
     760:	da02                	addi	s4,s4,-32
     762:	b101                	addi	s0,sp,160
     764:	03000003          	lb	zero,48(zero)
     768:	bc91                	addi	a2,sp,624
     76a:	007f                	0x7f
     76c:	0015                	0x15
     76e:	0000                	unimp
     770:	0000                	unimp
     772:	0000                	unimp
     774:	8a00                	sub	s4,s4,zero
     776:	1b000007          	0x1b000007
     77a:	0000                	unimp
     77c:	0000                	unimp
     77e:	db02                	addi	s6,s6,-32
     780:	b101                	addi	s0,sp,160
     782:	03000003          	lb	zero,48(zero)
     786:	b891                	addi	a2,sp,112
     788:	007f                	0x7f
     78a:	0015                	0x15
     78c:	0000                	unimp
     78e:	0000                	unimp
     790:	0000                	unimp
     792:	a800                	add	a0,s0,s0
     794:	1b000007          	0x1b000007
     798:	0000                	unimp
     79a:	0000                	unimp
     79c:	de02                	addi	t3,t3,-32
     79e:	b101                	addi	s0,sp,160
     7a0:	03000003          	lb	zero,48(zero)
     7a4:	b491                	addi	a2,sp,608
     7a6:	007f                	0x7f
     7a8:	0016                	j	7cc <.Ldebug_info0+0x7cc>
     7aa:	0000                	unimp
     7ac:	0000                	unimp
     7ae:	0000                	unimp
     7b0:	1b00                	add	s6,s6,zero
     7b2:	0000                	unimp
     7b4:	0000                	unimp
     7b6:	e302                	andi	t1,t1,0
     7b8:	b101                	addi	s0,sp,160
     7ba:	03000003          	lb	zero,48(zero)
     7be:	b091                	addi	a2,sp,96
     7c0:	007f                	0x7f
     7c2:	1d00                	add	s10,s10,zero
     7c4:	0000                	unimp
     7c6:	0000                	unimp
     7c8:	f002                	0xf002
     7ca:	0001                	0x1
     7cc:	0000                	unimp
     7ce:	0000                	unimp
     7d0:	0000                	unimp
     7d2:	0100                	li	sp,0
     7d4:	e99c                	0xe99c
     7d6:	1b000007          	0x1b000007
     7da:	0000                	unimp
     7dc:	0000                	unimp
     7de:	f402                	andi	s0,s0,-32
     7e0:	3a01                	srli	s4,s4,0x20
     7e2:	0000                	unimp
     7e4:	0200                	li	tp,0
     7e6:	6c91                	bltz	s1,8aa <.Ldebug_info0+0x1e>
     7e8:	1b00                	add	s6,s6,zero
     7ea:	0000                	unimp
     7ec:	0000                	unimp
     7ee:	8d02                	jr	s10
     7f0:	df01                	lw	t5,32(sp)
     7f2:	0001                	0x1
     7f4:	0500                	li	a0,0
     7f6:	00000003          	lb	zero,0(zero)
     7fa:	1b00                	add	s6,s6,zero
     7fc:	0000                	unimp
     7fe:	0000                	unimp
     800:	8e02                	jr	t3
     802:	df01                	lw	t5,32(sp)
     804:	0001                	0x1
     806:	0500                	li	a0,0
     808:	00000003          	lb	zero,0(zero)
     80c:	0700                	li	a4,0
     80e:	0234                	mv	tp,a3
     810:	0000                	unimp
     812:	0818                	mv	a6,t1
     814:	0000                	unimp
     816:	0020                	0x20
     818:	0021                	0x21
     81a:	0000                	unimp
     81c:	0400                	li	s0,0
     81e:	0d38                	mv	s10,a4
     820:	0008                	0x8
     822:	2100                	srai	sp,sp,0x0
     824:	0000                	unimp
     826:	0000                	unimp
     828:	3904                	srai	s2,s2,0x21
     82a:	080d                	slli	a6,a6,0x3
     82c:	0000                	unimp
     82e:	0021                	0x21
     830:	0000                	unimp
     832:	0400                	li	s0,0
     834:	0d3a                	j	ec2 <.Ldebug_info0+0x8c>
     836:	0008                	0x8
     838:	0700                	li	a4,0
     83a:	0061                	0x61
     83c:	0000                	unimp
     83e:	084a                	j	c50 <.Ldebug_info0+0x391>
     840:	0000                	unimp
     842:	5522                	beqz	a0,78a <.Ldebug_info0+0x78a>
     844:	0001                	0x1
     846:	ff00                	0xff00
     848:	00230003          	lb	zero,2(t1)
     84c:	0000                	unimp
     84e:	0200                	li	tp,0
     850:	00083977          	0x83977
     854:	0500                	li	a0,0
     856:	00000003          	lb	zero,0(zero)
     85a:	2300                	srai	t1,t1,0x0
     85c:	0000                	unimp
     85e:	0000                	unimp
     860:	7802                	bnez	s0,7e0 <.Ldebug_info0+0x7e0>
     862:	0839                	slli	a6,a6,0xe
     864:	0000                	unimp
     866:	0305                	slli	t1,t1,0x1
     868:	0000                	unimp
     86a:	0000                	unimp
     86c:	00000023          	sb	zero,0(zero)
     870:	0200                	li	tp,0
     872:	6c7f                	0x6c7f
     874:	0002                	j	874 <.Ldebug_info0+0x874>
     876:	0500                	li	a0,0
     878:	00000003          	lb	zero,0(zero)
     87c:	2400                	srai	s0,s0,0x0
     87e:	0000                	unimp
     880:	0000                	unimp
     882:	ee02                	andi	t3,t3,0
     884:	6101                	bltz	a0,884 <.Ldebug_info0+0x884>
     886:	0000                	unimp
     888:	0100                	li	sp,0
     88a:	0054                	0x54

0000088c <.Ldebug_info0>:
     88c:	0000002f          	0x2f
     890:	0004                	0x4
     892:	0000                	unimp
     894:	0000                	unimp
     896:	0104                	mv	sp,ra
     898:	0000                	unimp
     89a:	0000                	unimp
     89c:	000c                	0xc
	...
     8aa:	0000                	unimp
     8ac:	0200                	li	tp,0
     8ae:	0000                	unimp
     8b0:	0000                	unimp
     8b2:	1201                	slli	tp,tp,0x20
	...
     8bc:	9c01                	addi	s0,s0,-1
	...

000008bf <.Ldebug_info0>:
     8bf:	0392                	j	a83 <.Ldebug_info0+0x1c4>
     8c1:	0000                	unimp
     8c3:	0004                	0x4
     8c5:	0000                	unimp
     8c7:	0000                	unimp
     8c9:	0104                	mv	sp,ra
     8cb:	0000                	unimp
     8cd:	0000                	unimp
     8cf:	000c                	0xc
	...
     8dd:	0000                	unimp
     8df:	0200                	li	tp,0
     8e1:	0601                	slli	a2,a2,0x0
     8e3:	0000                	unimp
     8e5:	0000                	unimp
     8e7:	0202                	j	9e7 <.Ldebug_info0+0x128>
     8e9:	0005                	0x5
     8eb:	0000                	unimp
     8ed:	0300                	li	t1,0
     8ef:	0504                	mv	a0,ra
     8f1:	6e69                	bltz	a2,9cb <.Ldebug_info0+0x10c>
     8f3:	0074                	0x74
     8f5:	0802                	j	cf5 <.Ldebug_info0+0xa0>
     8f7:	0005                	0x5
     8f9:	0000                	unimp
     8fb:	0200                	li	tp,0
     8fd:	0801                	slli	a6,a6,0x0
     8ff:	0000                	unimp
     901:	0000                	unimp
     903:	0202                	j	a03 <.Ldebug_info0+0x144>
     905:	00000007          	0x7
     909:	0200                	li	tp,0
     90b:	0704                	mv	a4,ra
     90d:	0000                	unimp
     90f:	0000                	unimp
     911:	0802                	j	d11 <.Ldebug_info0+0xbc>
     913:	00000007          	0x7
     917:	0400                	li	s0,0
     919:	0000                	unimp
     91b:	0000                	unimp
     91d:	0602                	j	c1d <.Ldebug_info0+0x35e>
     91f:	0064                	0x64
     921:	0000                	unimp
     923:	0405                	slli	s0,s0,0x1
     925:	0000                	unimp
     927:	0000                	unimp
     929:	0004                	0x4
     92b:	0000                	unimp
     92d:	0100                	li	sp,0
     92f:	751a                	bnez	a0,875 <.Ldebug_info0+0x875>
     931:	0000                	unimp
     933:	0600                	li	a2,0
     935:	0085                	slli	ra,ra,0x1
     937:	0000                	unimp
     939:	00008507          	0x8507
     93d:	0700                	li	a4,0
     93f:	0000002f          	0x2f
     943:	0800                	li	a6,0
     945:	0904                	mv	s2,ra
     947:	0000                	unimp
     949:	0000                	unimp
     94b:	0108                	mv	sp,sp
     94d:	aabe                	lui	s5,0xf
     94f:	0000                	unimp
     951:	0a00                	li	s4,0
     953:	0000                	unimp
     955:	0000                	unimp
     957:	bf01                	addi	s0,sp,944
     959:	00aa                	j	9a3 <.Ldebug_info0+0xe4>
     95b:	0000                	unimp
     95d:	0b00                	li	s6,0
     95f:	006e                	j	999 <.Ldebug_info0+0xda>
     961:	c001                	0xc001
     963:	0000002f          	0x2f
     967:	0004                	0x4
     969:	040c                	mv	s0,gp
     96b:	00b0                	mv	ra,a2
     96d:	0000                	unimp
     96f:	0102                	j	9ef <.Ldebug_info0+0x130>
     971:	0008                	0x8
     973:	0000                	unimp
     975:	0d00                	li	s10,0
     977:	0000                	unimp
     979:	0000                	unimp
     97b:	1d01                	slli	s10,s10,0x20
	...
     985:	9c01                	addi	s0,s0,-1
     987:	00000103          	lb	sp,0(zero)
     98b:	000e                	j	9ad <.Ldebug_info0+0xee>
     98d:	0000                	unimp
     98f:	0100                	li	sp,0
     991:	031d                	slli	t1,t1,0x7
     993:	0001                	0x1
     995:	0200                	li	tp,0
     997:	5c91                	sw	tp,120(sp)
     999:	000e                	j	9bb <.Ldebug_info0+0xfc>
     99b:	0000                	unimp
     99d:	0100                	li	sp,0
     99f:	851d                	addi	a5,a0,1
     9a1:	0000                	unimp
     9a3:	0200                	li	tp,0
     9a5:	5891                	sw	tp,112(sp)
     9a7:	7274730f          	0x7274730f
     9ab:	0100                	li	sp,0
     9ad:	091d                	slli	s2,s2,0x7
     9af:	0001                	0x1
     9b1:	0200                	li	tp,0
     9b3:	5491                	sw	tp,104(sp)
     9b5:	6910                	0x6910
     9b7:	0100                	li	sp,0
     9b9:	2f1f 0000 0200      	0x20000002f1f
     9bf:	6c91                	bltz	s1,a83 <.Ldebug_info0+0x1c4>
     9c1:	0c00                	li	s8,0
     9c3:	6a04                	0x6a04
     9c5:	0000                	unimp
     9c7:	0c00                	li	s8,0
     9c9:	0f04                	mv	t5,ra
     9cb:	0001                	0x1
     9cd:	1100                	add	sp,sp,zero
     9cf:	00b0                	mv	ra,a2
     9d1:	0000                	unimp
     9d3:	000d                	0xd
     9d5:	0000                	unimp
     9d7:	0100                	li	sp,0
     9d9:	002a                	j	9e3 <.Ldebug_info0+0x124>
     9db:	0000                	unimp
     9dd:	0000                	unimp
     9df:	0000                	unimp
     9e1:	0100                	li	sp,0
     9e3:	909c                	0x909c
     9e5:	0001                	0x1
     9e7:	0e00                	li	t3,0
     9e9:	0000                	unimp
     9eb:	0000                	unimp
     9ed:	2a01                	srli	s4,s4,0x0
     9ef:	00000103          	lb	sp,0(zero)
     9f3:	7f8c9103          	lh	sp,2040(s9)
     9f7:	000e                	j	a19 <.Ldebug_info0+0x15a>
     9f9:	0000                	unimp
     9fb:	0100                	li	sp,0
     9fd:	852a                	li	a0,10
     9ff:	0000                	unimp
     a01:	0300                	li	t1,0
     a03:	8891                	addi	a2,s1,2
     a05:	0e7f                	0xe7f
     a07:	0000                	unimp
     a09:	0000                	unimp
     a0b:	2b01                	srli	s6,s6,0x0
     a0d:	0000002f          	0x2f
     a11:	7f849103          	lh	sp,2040(s1)
     a15:	01006e0f          	0x1006e0f
     a19:	00004b2b          	custom1	s6,0,0,0
     a1d:	0300                	li	t1,0
     a1f:	8091                	addi	a2,s1,0
     a21:	107f                	0x107f
     a23:	6568                	sltu	a0,a0,a0
     a25:	0078                	0x78
     a27:	2d01                	srli	s10,s10,0x0
     a29:	000001a7          	0x1a7
     a2d:	0305                	slli	t1,t1,0x1
     a2f:	0000                	unimp
     a31:	0000                	unimp
     a33:	0012                	j	a37 <.Ldebug_info0+0x178>
     a35:	0000                	unimp
     a37:	0100                	li	sp,0
     a39:	ac2e                	lui	s8,0xb
     a3b:	0001                	0x1
     a3d:	0300                	li	t1,0
     a3f:	9c91                	addi	a2,s1,-1
     a41:	107f                	0x107f
     a43:	2f01006b          	0x2f01006b
     a47:	0000002f          	0x2f
     a4b:	9102                	li	sp,-32
     a4d:	006c                	0x6c
     a4f:	0000b013          	sltiu	zero,ra,0
     a53:	a000                	add	s0,s0,s0
     a55:	0001                	0x1
     a57:	1400                	add	s0,s0,zero
     a59:	01a0                	mv	gp,s0
     a5b:	0000                	unimp
     a5d:	0010                	0x10
     a5f:	0402                	j	c5f <.Ldebug_info0+0xa>
     a61:	00000007          	0x7
     a65:	1100                	add	sp,sp,zero
     a67:	0190                	mv	gp,tp
     a69:	0000                	unimp
     a6b:	0000b013          	sltiu	zero,ra,0
     a6f:	bc00                	add	a5,s0,s0
     a71:	0001                	0x1
     a73:	1400                	add	s0,s0,zero
     a75:	01a0                	mv	gp,s0
     a77:	0000                	unimp
     a79:	000d004f          	fnmadd.s	ft0,fs10,ft0,ft0,rne
     a7d:	0000                	unimp
     a7f:	0100                	li	sp,0
     a81:	0048                	0x48
     a83:	0000                	unimp
     a85:	0000                	unimp
     a87:	0000                	unimp
     a89:	0100                	li	sp,0
     a8b:	489c                	sw	a5,16(s1)
     a8d:	0002                	j	a8d <.Ldebug_info0+0x1ce>
     a8f:	0e00                	li	t3,0
     a91:	0000                	unimp
     a93:	0000                	unimp
     a95:	4801                	sw	zero,16(sp)
     a97:	00000103          	lb	sp,0(zero)
     a9b:	9102                	li	sp,-32
     a9d:	0e4c                	mv	t3,s3
     a9f:	0000                	unimp
     aa1:	0000                	unimp
     aa3:	4801                	sw	zero,16(sp)
     aa5:	0085                	slli	ra,ra,0x1
     aa7:	0000                	unimp
     aa9:	9102                	li	sp,-32
     aab:	0e48                	mv	t3,s2
     aad:	0000                	unimp
     aaf:	0000                	unimp
     ab1:	4901                	sw	zero,144(sp)
     ab3:	0109                	slli	sp,sp,0x2
     ab5:	0000                	unimp
     ab7:	9102                	li	sp,-32
     ab9:	0e44                	mv	t3,a7
     abb:	0000                	unimp
     abd:	0000                	unimp
     abf:	4901                	sw	zero,144(sp)
     ac1:	0059                	0x59
     ac3:	0000                	unimp
     ac5:	9102                	li	sp,-32
     ac7:	1040                	0x1040
     ac9:	0064                	0x64
     acb:	4b01                	sw	zero,148(sp)
     acd:	0000002f          	0x2f
     ad1:	9102                	li	sp,-32
     ad3:	1060                	0x1060
     ad5:	0069                	0x69
     ad7:	4b01                	sw	zero,148(sp)
     ad9:	0000002f          	0x2f
     add:	9102                	li	sp,-32
     adf:	106c                	0x106c
     ae1:	4c010063          	beqz	sp,fa1 <.Ldebug_info0+0x16b>
     ae5:	00b0                	mv	ra,a2
     ae7:	0000                	unimp
     ae9:	9102                	li	sp,-32
     aeb:	105f 0073 4c01      	0x4c010073105f
     af1:	00aa                	j	b3b <.Ldebug_info0+0x27c>
     af3:	0000                	unimp
     af5:	9102                	li	sp,-32
     af7:	1264                	add	tp,tp,s9
     af9:	0000                	unimp
     afb:	0000                	unimp
     afd:	4d01                	sw	zero,152(sp)
     aff:	0000002f          	0x2f
     b03:	9102                	li	sp,-32
     b05:	0068                	0x68
     b07:	000d                	0xd
     b09:	0000                	unimp
     b0b:	0100                	li	sp,0
     b0d:	00a1                	slli	ra,ra,0x8
     b0f:	0000                	unimp
     b11:	0000                	unimp
     b13:	0000                	unimp
     b15:	0100                	li	sp,0
     b17:	869c                	sub	a3,a3,t2
     b19:	0002                	j	b19 <.Ldebug_info0+0x25a>
     b1b:	0e00                	li	t3,0
     b1d:	0000                	unimp
     b1f:	0000                	unimp
     b21:	a101                	addi	s0,sp,128
     b23:	0085                	slli	ra,ra,0x1
     b25:	0000                	unimp
     b27:	9102                	li	sp,-32
     b29:	0f5c                	mv	t5,s7
     b2b:	a1010063          	beq	sp,a6,fffffd2b <.L0 +0xfffeba7b>
     b2f:	0000002f          	0x2f
     b33:	9102                	li	sp,-32
     b35:	1258                	add	tp,tp,s6
     b37:	0000                	unimp
     b39:	0000                	unimp
     b3b:	a301                	addi	s0,sp,384
     b3d:	0286                	j	c9d <.Ldebug_info0+0x48>
     b3f:	0000                	unimp
     b41:	9102                	li	sp,-32
     b43:	006c                	0x6c
     b45:	040c                	mv	s0,gp
     b47:	0000002f          	0x2f
     b4b:	0015                	0x15
     b4d:	0000                	unimp
     b4f:	0100                	li	sp,0
     b51:	2fa8                	srai	t6,t6,0xa
	...
     b5b:	0000                	unimp
     b5d:	0100                	li	sp,0
     b5f:	d09c                	lw	a5,32(s1)
     b61:	0002                	j	b61 <.Ldebug_info0+0x2a2>
     b63:	0e00                	li	t3,0
     b65:	0000                	unimp
     b67:	0000                	unimp
     b69:	a801                	addi	s0,sp,16
     b6b:	0109                	slli	sp,sp,0x2
     b6d:	0000                	unimp
     b6f:	7fbc9103          	lh	sp,2043(s9)
     b73:	1016                	j	397 <.Ldebug_info0+0x397>
     b75:	006e                	j	baf <.Ldebug_info0+0x2f0>
     b77:	aa01                	addi	s0,sp,272
     b79:	0000002f          	0x2f
     b7d:	9102                	li	sp,-32
     b7f:	124c                	add	tp,tp,s3
     b81:	0000                	unimp
     b83:	0000                	unimp
     b85:	ab01                	addi	s0,sp,400
     b87:	0059                	0x59
     b89:	0000                	unimp
     b8b:	9102                	li	sp,-32
     b8d:	0048                	0x48
     b8f:	0015                	0x15
     b91:	0000                	unimp
     b93:	0100                	li	sp,0
     b95:	2fb2                	jal	1361 <.Ldebug_info0+0x2e3>
	...
     b9f:	0000                	unimp
     ba1:	0100                	li	sp,0
     ba3:	049c                	mv	s1,t2
     ba5:	0f000003          	lb	zero,240(zero)
     ba9:	00727473          	csrrc	s0,0x7,4
     bad:	b201                	addi	s0,sp,288
     baf:	0109                	slli	sp,sp,0x2
     bb1:	0000                	unimp
     bb3:	9102                	li	sp,-32
     bb5:	105c                	0x105c
     bb7:	006e                	j	bf1 <.Ldebug_info0+0x332>
     bb9:	b401                	addi	s0,sp,544
     bbb:	0000002f          	0x2f
     bbf:	9102                	li	sp,-32
     bc1:	006c                	0x6c
     bc3:	00000017          	auipc	zero,0x0
     bc7:	0100                	li	sp,0
     bc9:	000000c3          	fmadd.s	ft1,ft0,ft0,ft0,rne
     bcd:	0000                	unimp
     bcf:	0000                	unimp
     bd1:	0100                	li	sp,0
     bd3:	409c                	sw	a5,0(s1)
     bd5:	0e000003          	lb	zero,224(zero) # ca3 <.Ldebug_info0+0x4e>
     bd9:	0000                	unimp
     bdb:	0000                	unimp
     bdd:	c301                	lw	t1,0(sp)
     bdf:	0085                	slli	ra,ra,0x1
     be1:	0000                	unimp
     be3:	9102                	li	sp,-32
     be5:	0f5c                	mv	t5,s7
     be7:	c3010063          	beq	sp,a6,7 <.Ldebug_info0+0x7>
     beb:	0000002f          	0x2f
     bef:	9102                	li	sp,-32
     bf1:	1058                	0x1058
     bf3:	0070                	0x70
     bf5:	c501                	lw	a0,0(sp)
     bf7:	0340                	mv	t1,a6
     bf9:	0000                	unimp
     bfb:	9102                	li	sp,-32
     bfd:	006c                	0x6c
     bff:	040c                	mv	s0,gp
     c01:	00000087          	0x87
     c05:	0018                	0x18
     c07:	0000                	unimp
     c09:	0100                	li	sp,0
     c0b:	2fca                	jal	13dd <.Ldebug_info0+0x35f>
	...
     c15:	0000                	unimp
     c17:	0100                	li	sp,0
     c19:	0e9c                	mv	t4,t2
     c1b:	0000                	unimp
     c1d:	0000                	unimp
     c1f:	ca01                	lw	s4,0(sp)
     c21:	00aa                	j	c6b <.Ldebug_info0+0x16>
     c23:	0000                	unimp
     c25:	7fbc9103          	lh	sp,2043(s9)
     c29:	000e                	j	c4b <.Ldebug_info0+0x38c>
     c2b:	0000                	unimp
     c2d:	0100                	li	sp,0
     c2f:	09ca                	j	1101 <.Ldebug_info0+0x83>
     c31:	0001                	0x1
     c33:	0300                	li	t1,0
     c35:	b891                	addi	a2,sp,112
     c37:	167f                	0x167f
     c39:	7010                	0x7010
     c3b:	0100                	li	sp,0
     c3d:	87cc                	sub	a5,a5,s3
     c3f:	0000                	unimp
     c41:	0200                	li	tp,0
     c43:	4891                	sw	tp,80(sp)
     c45:	0012                	j	c49 <.Ldebug_info0+0x38a>
     c47:	0000                	unimp
     c49:	0100                	li	sp,0
     c4b:	59cd                	sw	s3,240(sp)
     c4d:	0000                	unimp
     c4f:	0200                	li	tp,0
     c51:	4491                	sw	tp,72(sp)
	...

00000c55 <.Ldebug_info0>:
     c55:	0172                	j	cf1 <.Ldebug_info0+0x9c>
     c57:	0000                	unimp
     c59:	0004                	0x4
     c5b:	0000                	unimp
     c5d:	0000                	unimp
     c5f:	0104                	mv	sp,ra
     c61:	0000                	unimp
     c63:	0000                	unimp
     c65:	000c                	0xc
	...
     c73:	0000                	unimp
     c75:	0200                	li	tp,0
     c77:	0601                	slli	a2,a2,0x0
     c79:	0000                	unimp
     c7b:	0000                	unimp
     c7d:	0202                	j	d7d <.Ldebug_info0+0x128>
     c7f:	0005                	0x5
     c81:	0000                	unimp
     c83:	0300                	li	t1,0
     c85:	0504                	mv	a0,ra
     c87:	6e69                	bltz	a2,d61 <.Ldebug_info0+0x10c>
     c89:	0074                	0x74
     c8b:	0802                	j	108b <.Ldebug_info0+0xd>
     c8d:	0005                	0x5
     c8f:	0000                	unimp
     c91:	0200                	li	tp,0
     c93:	0801                	slli	a6,a6,0x0
     c95:	0000                	unimp
     c97:	0000                	unimp
     c99:	0202                	j	d99 <.Ldebug_info0+0x144>
     c9b:	00000007          	0x7
     c9f:	0400                	li	s0,0
     ca1:	0000                	unimp
     ca3:	0000                	unimp
     ca5:	1502                	j	725 <.Ldebug_info0+0x725>
     ca7:	0056                	j	cdb <.Ldebug_info0+0x86>
     ca9:	0000                	unimp
     cab:	0402                	j	eab <.Ldebug_info0+0x75>
     cad:	00000007          	0x7
     cb1:	0200                	li	tp,0
     cb3:	0708                	mv	a4,sp
     cb5:	0000                	unimp
     cb7:	0000                	unimp
     cb9:	0004                	0x4
     cbb:	0000                	unimp
     cbd:	0200                	li	tp,0
     cbf:	4b19                	sw	t1,148(sp)
     cc1:	0000                	unimp
     cc3:	0500                	li	a0,0
     cc5:	0000                	unimp
     cc7:	0000                	unimp
     cc9:	0d01                	slli	s10,s10,0x0
     ccb:	0000002f          	0x2f
	...
     cd7:	9c01                	addi	s0,s0,-1
     cd9:	00a1                	slli	ra,ra,0x8
     cdb:	0000                	unimp
     cdd:	6106                	bnez	a0,cfd <.Ldebug_info0+0xa8>
     cdf:	0100                	li	sp,0
     ce1:	a10d                	addi	a1,sp,128
     ce3:	0000                	unimp
     ce5:	0200                	li	tp,0
     ce7:	6c91                	bltz	s1,dab <.Ldebug_info0+0x156>
     ce9:	6206                	bnez	a2,d09 <.Ldebug_info0+0xb4>
     ceb:	0100                	li	sp,0
     ced:	a10d                	addi	a1,sp,128
     cef:	0000                	unimp
     cf1:	0200                	li	tp,0
     cf3:	6891                	bltz	s1,d77 <.Ldebug_info0+0x122>
     cf5:	0700                	li	a4,0
     cf7:	ae04                	add	a1,a2,s1
     cf9:	0000                	unimp
     cfb:	0200                	li	tp,0
     cfd:	0801                	slli	a6,a6,0x0
     cff:	0000                	unimp
     d01:	0000                	unimp
     d03:	a708                	add	s1,a4,a0
     d05:	0000                	unimp
     d07:	0500                	li	a0,0
     d09:	0000                	unimp
     d0b:	0000                	unimp
     d0d:	1b01                	slli	s6,s6,0x20
     d0f:	0000010b          	custom0	2,0,0,0
	...
     d1b:	9c01                	addi	s0,s0,-1
     d1d:	0000010b          	custom0	2,0,0,0
     d21:	7306                	bnez	a4,c41 <.Ldebug_info0+0x382>
     d23:	0100                	li	sp,0
     d25:	00010b1b          	0x10b1b
     d29:	0200                	li	tp,0
     d2b:	5c91                	sw	tp,120(sp)
     d2d:	6306                	bnez	a4,d4d <.Ldebug_info0+0xf8>
     d2f:	0100                	li	sp,0
     d31:	00002f1b          	0x2f1b
     d35:	0200                	li	tp,0
     d37:	5891                	sw	tp,112(sp)
     d39:	6e06                	bnez	a2,e19 <.Ldebug_info0+0x4e>
     d3b:	0100                	li	sp,0
     d3d:	0000641b          	0x641b
     d41:	0200                	li	tp,0
     d43:	5491                	sw	tp,104(sp)
     d45:	6d09                	bltz	a0,e07 <.Ldebug_info0+0x3c>
     d47:	6d65                	bltz	a0,e3f <.Ldebug_info0+0x9>
     d49:	0100                	li	sp,0
     d4b:	0d1d                	slli	s10,s10,0x7
     d4d:	0001                	0x1
     d4f:	0200                	li	tp,0
     d51:	6891                	bltz	s1,dd5 <.Ldebug_info0+0xa>
     d53:	6909                	bltz	a0,dd5 <.Ldebug_info0+0xa>
     d55:	0100                	li	sp,0
     d57:	641f 0000 0200      	0x2000000641f
     d5d:	6c91                	bltz	s1,e21 <.Ldebug_info0+0x56>
     d5f:	0a00                	li	s4,0
     d61:	0704                	mv	a4,ra
     d63:	a704                	add	s1,a4,s1
     d65:	0000                	unimp
     d67:	0b00                	li	s6,0
     d69:	0000                	unimp
     d6b:	0000                	unimp
     d6d:	2701                	srli	a4,a4,0x0
     d6f:	0000010b          	custom0	2,0,0,0
	...
     d7b:	9c01                	addi	s0,s0,-1
     d7d:	000c                	0xc
     d7f:	0000                	unimp
     d81:	0100                	li	sp,0
     d83:	00010b27          	0x10b27
     d87:	0200                	li	tp,0
     d89:	5c91                	sw	tp,120(sp)
     d8b:	7306                	bnez	a4,cab <.Ldebug_info0+0x56>
     d8d:	6372                	bnez	a4,da9 <.Ldebug_info0+0x154>
     d8f:	0100                	li	sp,0
     d91:	00010b27          	0x10b27
     d95:	0200                	li	tp,0
     d97:	5891                	sw	tp,112(sp)
     d99:	6e06                	bnez	a2,e79 <.Ldebug_info0+0x43>
     d9b:	0100                	li	sp,0
     d9d:	00006427          	0x6427
     da1:	0200                	li	tp,0
     da3:	5491                	sw	tp,104(sp)
     da5:	6409                	bltz	s0,de7 <.Ldebug_info0+0x1c>
     da7:	0100                	li	sp,0
     da9:	0d29                	slli	s10,s10,0xa
     dab:	0001                	0x1
     dad:	0200                	li	tp,0
     daf:	6891                	bltz	s1,e33 <.Ldebug_info0+0x68>
     db1:	7309                	bltz	a4,cb3 <.Ldebug_info0+0x5e>
     db3:	0100                	li	sp,0
     db5:	0d2a                	j	143f <.Ldebug_info0+0x3c1>
     db7:	0001                	0x1
     db9:	0200                	li	tp,0
     dbb:	6491                	bltz	s1,dff <.Ldebug_info0+0x34>
     dbd:	6909                	bltz	a0,e3f <.Ldebug_info0+0x9>
     dbf:	0100                	li	sp,0
     dc1:	642c                	srl	s0,s0,a1
     dc3:	0000                	unimp
     dc5:	0200                	li	tp,0
     dc7:	6c91                	bltz	s1,e8b <.Ldebug_info0+0x55>
	...

00000dcb <.Ldebug_info0>:
     dcb:	00000067          	jr	zero
     dcf:	0004                	0x4
     dd1:	0000                	unimp
     dd3:	0000                	unimp
     dd5:	0104                	mv	sp,ra
     dd7:	0000                	unimp
     dd9:	0000                	unimp
     ddb:	000c                	0xc
	...
     de9:	0000                	unimp
     deb:	0200                	li	tp,0
     ded:	0601                	slli	a2,a2,0x0
     def:	0000                	unimp
     df1:	0000                	unimp
     df3:	0202                	j	ef3 <.Ldebug_info0+0xbd>
     df5:	0005                	0x5
     df7:	0000                	unimp
     df9:	0300                	li	t1,0
     dfb:	0504                	mv	a0,ra
     dfd:	6e69                	bltz	a2,ed7 <.Ldebug_info0+0xa1>
     dff:	0074                	0x74
     e01:	0802                	j	1201 <.Ldebug_info0+0x183>
     e03:	0005                	0x5
     e05:	0000                	unimp
     e07:	0200                	li	tp,0
     e09:	0801                	slli	a6,a6,0x0
     e0b:	0000                	unimp
     e0d:	0000                	unimp
     e0f:	0202                	j	f0f <.Ldebug_info0+0xd9>
     e11:	00000007          	0x7
     e15:	0200                	li	tp,0
     e17:	0704                	mv	a4,ra
     e19:	0000                	unimp
     e1b:	0000                	unimp
     e1d:	0802                	j	121d <.Ldebug_info0+0x19f>
     e1f:	00000007          	0x7
     e23:	0400                	li	s0,0
     e25:	0000                	unimp
     e27:	0000                	unimp
     e29:	0301                	slli	t1,t1,0x0
	...
     e33:	9c01                	addi	s0,s0,-1
	...

00000e36 <.Ldebug_info0>:
     e36:	0244                	mv	tp,a7
     e38:	0000                	unimp
     e3a:	0004                	0x4
     e3c:	0000                	unimp
     e3e:	0000                	unimp
     e40:	0104                	mv	sp,ra
     e42:	0000                	unimp
     e44:	0000                	unimp
     e46:	000c                	0xc
	...
     e54:	0000                	unimp
     e56:	0200                	li	tp,0
     e58:	0601                	slli	a2,a2,0x0
     e5a:	0000                	unimp
     e5c:	0000                	unimp
     e5e:	0202                	j	f5e <.Ldebug_info0+0x128>
     e60:	0005                	0x5
     e62:	0000                	unimp
     e64:	0300                	li	t1,0
     e66:	0504                	mv	a0,ra
     e68:	6e69                	bltz	a2,f42 <.Ldebug_info0+0x10c>
     e6a:	0074                	0x74
     e6c:	0802                	j	126c <.Ldebug_info0+0x1ee>
     e6e:	0005                	0x5
     e70:	0000                	unimp
     e72:	0200                	li	tp,0
     e74:	0801                	slli	a6,a6,0x0
     e76:	0000                	unimp
     e78:	0000                	unimp
     e7a:	0202                	j	f7a <.Ldebug_info0+0x144>
     e7c:	00000007          	0x7
     e80:	0400                	li	s0,0
     e82:	0000                	unimp
     e84:	0000                	unimp
     e86:	1502                	j	906 <.Ldebug_info0+0x47>
     e88:	0056                	j	ebc <.Ldebug_info0+0x86>
     e8a:	0000                	unimp
     e8c:	0402                	j	108c <.Ldebug_info0+0xe>
     e8e:	00000007          	0x7
     e92:	0400                	li	s0,0
     e94:	0000                	unimp
     e96:	0000                	unimp
     e98:	1602                	j	998 <.Ldebug_info0+0xd9>
     e9a:	0068                	0x68
     e9c:	0000                	unimp
     e9e:	0802                	j	129e <.Ldebug_info0+0x220>
     ea0:	00000007          	0x7
     ea4:	0500                	li	a0,0
     ea6:	0000                	unimp
     ea8:	0000                	unimp
     eaa:	1b01                	slli	s6,s6,0x20
     eac:	00f1                	slli	ra,ra,0x1c
	...
     eb6:	0000                	unimp
     eb8:	9c01                	addi	s0,s0,-1
     eba:	00f1                	slli	ra,ra,0x1c
     ebc:	0000                	unimp
     ebe:	6e06                	bnez	a2,f9e <.Ldebug_info0+0x168>
     ec0:	6d75                	bltz	a0,fbc <.Ldebug_info0+0x186>
     ec2:	0100                	li	sp,0
     ec4:	0000f11b          	0xf11b
     ec8:	0200                	li	tp,0
     eca:	6c91                	bltz	s1,f8e <.Ldebug_info0+0x158>
     ecc:	00000007          	0x7
     ed0:	0100                	li	sp,0
     ed2:	0000f11b          	0xf11b
     ed6:	0200                	li	tp,0
     ed8:	6891                	bltz	s1,f5c <.Ldebug_info0+0x126>
     eda:	00000007          	0x7
     ede:	0100                	li	sp,0
     ee0:	0000f11b          	0xf11b
     ee4:	0200                	li	tp,0
     ee6:	6491                	bltz	s1,f2a <.Ldebug_info0+0xf4>
     ee8:	00000007          	0x7
     eec:	0100                	li	sp,0
     eee:	0000f11b          	0xf11b
     ef2:	0200                	li	tp,0
     ef4:	6091                	bltz	s1,ef8 <.Ldebug_info0+0xc2>
     ef6:	6108                	xor	a0,a0,a0
     ef8:	1d010037          	lui	zero,0x1d010
     efc:	00f1                	slli	ra,ra,0x1c
     efe:	0000                	unimp
     f00:	6101                	bltz	a0,f00 <.Ldebug_info0+0xca>
     f02:	6108                	xor	a0,a0,a0
     f04:	0030                	0x30
     f06:	1e01                	slli	t3,t3,0x20
     f08:	00f1                	slli	ra,ra,0x1c
     f0a:	0000                	unimp
     f0c:	5a01                	sw	zero,52(sp)
     f0e:	6108                	xor	a0,a0,a0
     f10:	0031                	0x31
     f12:	1f01                	slli	t5,t5,0x20
     f14:	00f1                	slli	ra,ra,0x1c
     f16:	0000                	unimp
     f18:	5b01                	sw	zero,180(sp)
     f1a:	6108                	xor	a0,a0,a0
     f1c:	0032                	j	f28 <.Ldebug_info0+0xf2>
     f1e:	2001                	0x2001
     f20:	00f1                	slli	ra,ra,0x1c
     f22:	0000                	unimp
     f24:	5c01                	sw	zero,56(sp)
     f26:	0200                	li	tp,0
     f28:	0504                	mv	a0,ra
     f2a:	0000                	unimp
     f2c:	0000                	unimp
     f2e:	0005                	0x5
     f30:	0000                	unimp
     f32:	0100                	li	sp,0
     f34:	f125                	bgez	a0,e5c <.Ldebug_info0+0x26>
	...
     f3e:	0000                	unimp
     f40:	0100                	li	sp,0
     f42:	709c                	0x709c
     f44:	0001                	0x1
     f46:	0700                	li	a4,0
     f48:	0000                	unimp
     f4a:	0000                	unimp
     f4c:	2501                	srli	a0,a0,0x0
     f4e:	00f1                	slli	ra,ra,0x1c
     f50:	0000                	unimp
     f52:	9102                	li	sp,-32
     f54:	075c                	mv	a4,s7
     f56:	0000                	unimp
     f58:	0000                	unimp
     f5a:	2501                	srli	a0,a0,0x0
     f5c:	00f1                	slli	ra,ra,0x1c
     f5e:	0000                	unimp
     f60:	9102                	li	sp,-32
     f62:	0758                	mv	a4,s6
     f64:	0000                	unimp
     f66:	0000                	unimp
     f68:	2501                	srli	a0,a0,0x0
     f6a:	00f1                	slli	ra,ra,0x1c
     f6c:	0000                	unimp
     f6e:	9102                	li	sp,-32
     f70:	0754                	mv	a4,s5
     f72:	0000                	unimp
     f74:	0000                	unimp
     f76:	2501                	srli	a0,a0,0x0
     f78:	00f1                	slli	ra,ra,0x1c
     f7a:	0000                	unimp
     f7c:	9102                	li	sp,-32
     f7e:	0950                	mv	s2,s4
     f80:	0000                	unimp
     f82:	0000                	unimp
     f84:	2701                	srli	a4,a4,0x0
     f86:	00000187          	0x187
     f8a:	7f02                	bnez	a4,f4a <.Ldebug_info0+0x114>
     f8c:	0a00                	li	s4,0
	...
     f96:	0009                	0x9
     f98:	0000                	unimp
     f9a:	0100                	li	sp,0
     f9c:	f12e                	andi	sp,sp,-21
     f9e:	0000                	unimp
     fa0:	0200                	li	tp,0
     fa2:	6c91                	bltz	s1,1066 <.Ldebug_info0+0x230>
     fa4:	0000                	unimp
     fa6:	00005d0b          	0x5d0b
     faa:	8000                	0x8000
     fac:	0001                	0x1
     fae:	0c00                	li	s8,0
     fb0:	0180                	li	gp,0
     fb2:	0000                	unimp
     fb4:	04020007          	0x4020007
     fb8:	00000007          	0x7
     fbc:	0d00                	li	s10,0
     fbe:	0170                	mv	sp,t3
     fc0:	0000                	unimp
     fc2:	000e                	j	fe4 <.Ldebug_info0+0x1ae>
     fc4:	0000                	unimp
     fc6:	0100                	li	sp,0
     fc8:	f132                	andi	sp,sp,-20
	...
     fd2:	0000                	unimp
     fd4:	0100                	li	sp,0
     fd6:	de9c                	lw	a5,56(a3)
     fd8:	0001                	0x1
     fda:	0700                	li	a4,0
     fdc:	0000                	unimp
     fde:	0000                	unimp
     fe0:	3201                	srli	tp,tp,0x20
     fe2:	0000004b          	fnmsub.s	ft0,ft0,ft0,ft0,rne
     fe6:	9102                	li	sp,-32
     fe8:	065c                	mv	a2,s7
     fea:	7065                	bltz	s0,f22 <.Ldebug_info0+0xec>
     fec:	32010063          	beqz	sp,130c <.Ldebug_info0+0x28e>
     ff0:	0000004b          	fnmsub.s	ft0,ft0,ft0,ft0,rne
     ff4:	9102                	li	sp,-32
     ff6:	0758                	mv	a4,s6
     ff8:	0000                	unimp
     ffa:	0000                	unimp
     ffc:	3201                	srli	tp,tp,0x20
     ffe:	01de                	j	10f4 <.Ldebug_info0+0x76>
    1000:	0000                	unimp
    1002:	9102                	li	sp,-32
    1004:	0954                	mv	s2,s5
    1006:	0000                	unimp
    1008:	0000                	unimp
    100a:	3401                	srli	s0,s0,0x20
    100c:	00f1                	slli	ra,ra,0x1c
    100e:	0000                	unimp
    1010:	9102                	li	sp,-32
    1012:	006c                	0x6c
    1014:	005d040f          	0x5d040f
    1018:	0000                	unimp
    101a:	000e                	j	103c <.Ldebug_info0+0x206>
    101c:	0000                	unimp
    101e:	0100                	li	sp,0
    1020:	2f42                	jal	17b0 <.Ldebug_info0+0x12a>
	...
    102a:	0000                	unimp
    102c:	0100                	li	sp,0
    102e:	2e9c                	srai	t4,t4,0x7
    1030:	0002                	j	1030 <.Ldebug_info0+0x1fa>
    1032:	0600                	li	a2,0
    1034:	42010063          	beqz	sp,1454 <.Ldebug_info0+0x3d6>
    1038:	0000002f          	0x2f
    103c:	9102                	li	sp,-32
    103e:	076c                	mv	a4,s11
    1040:	0000                	unimp
    1042:	0000                	unimp
    1044:	4201                	sw	zero,4(sp)
    1046:	022e                	j	1170 <.Ldebug_info0+0xf2>
    1048:	0000                	unimp
    104a:	9102                	li	sp,-32
    104c:	1068                	0x1068
    104e:	7562                	bnez	a0,fa6 <.Ldebug_info0+0x170>
    1050:	0066                	j	1088 <.Ldebug_info0+0xa>
    1052:	4401                	sw	zero,8(sp)
    1054:	0230                	mv	tp,a2
    1056:	0000                	unimp
    1058:	0011                	0x11
    105a:	0000                	unimp
    105c:	0100                	li	sp,0
    105e:	2f45                	srli	t5,t5,0x11
    1060:	0000                	unimp
    1062:	0000                	unimp
    1064:	0412                	j	1268 <.Ldebug_info0+0x1ea>
    1066:	0002400b          	custom0	zero,4,0,0
    106a:	4000                	sw	s0,0(s0)
    106c:	0002                	j	106c <.Ldebug_info0+0x236>
    106e:	0c00                	li	s8,0
    1070:	0180                	li	gp,0
    1072:	0000                	unimp
    1074:	0102003f 00000008 	0x80102003f
	...

0000107e <.Ldebug_info0>:
    107e:	0604                	mv	a2,ra
    1080:	0000                	unimp
    1082:	0004                	0x4
    1084:	0000                	unimp
    1086:	0000                	unimp
    1088:	0104                	mv	sp,ra
    108a:	0000                	unimp
    108c:	0000                	unimp
    108e:	000c                	0xc
	...
    109c:	0000                	unimp
    109e:	0200                	li	tp,0
    10a0:	0601                	slli	a2,a2,0x0
    10a2:	0000                	unimp
    10a4:	0000                	unimp
    10a6:	0202                	j	11a6 <.Ldebug_info0+0x128>
    10a8:	0005                	0x5
    10aa:	0000                	unimp
    10ac:	0300                	li	t1,0
    10ae:	0504                	mv	a0,ra
    10b0:	6e69                	bltz	a2,118a <.Ldebug_info0+0x10c>
    10b2:	0074                	0x74
    10b4:	0802                	j	14b4 <.Ldebug_info0+0x436>
    10b6:	0005                	0x5
    10b8:	0000                	unimp
    10ba:	0200                	li	tp,0
    10bc:	0801                	slli	a6,a6,0x0
    10be:	0000                	unimp
    10c0:	0000                	unimp
    10c2:	0004                	0x4
    10c4:	0000                	unimp
    10c6:	0300                	li	t1,0
    10c8:	4f14                	sw	a3,24(a4)
    10ca:	0000                	unimp
    10cc:	0200                	li	tp,0
    10ce:	0702                	j	144e <.Ldebug_info0+0x3d0>
    10d0:	0000                	unimp
    10d2:	0000                	unimp
    10d4:	0004                	0x4
    10d6:	0000                	unimp
    10d8:	0300                	li	t1,0
    10da:	6115                	bltz	a0,10fe <.Ldebug_info0+0x80>
    10dc:	0000                	unimp
    10de:	0200                	li	tp,0
    10e0:	0704                	mv	a4,ra
    10e2:	0000                	unimp
    10e4:	0000                	unimp
    10e6:	0004                	0x4
    10e8:	0000                	unimp
    10ea:	0300                	li	t1,0
    10ec:	7316                	bnez	a4,1010 <.Ldebug_info0+0x1da>
    10ee:	0000                	unimp
    10f0:	0200                	li	tp,0
    10f2:	0708                	mv	a4,sp
    10f4:	0000                	unimp
    10f6:	0000                	unimp
    10f8:	0004                	0x4
    10fa:	0000                	unimp
    10fc:	0300                	li	t1,0
    10fe:	5618                	sw	a4,40(a2)
    1100:	0000                	unimp
    1102:	0500                	li	a0,0
    1104:	0000                	unimp
    1106:	0000                	unimp
    1108:	0134                	mv	sp,a3
    110a:	3a59                	srli	s4,s4,0x36
    110c:	0001                	0x1
    110e:	0600                	li	a2,0
    1110:	0000                	unimp
    1112:	0000                	unimp
    1114:	5a01                	sw	zero,52(sp)
    1116:	013a                	j	11a4 <.Ldebug_info0+0x126>
    1118:	0000                	unimp
    111a:	0600                	li	a2,0
    111c:	0000                	unimp
    111e:	0000                	unimp
    1120:	5b01                	sw	zero,180(sp)
    1122:	0044                	0x44
    1124:	0000                	unimp
    1126:	0610                	mv	a2,tp
    1128:	0000                	unimp
    112a:	0000                	unimp
    112c:	5d01                	sw	zero,184(sp)
    112e:	0044                	0x44
    1130:	0000                	unimp
    1132:	0612                	j	1436 <.Ldebug_info0+0x3b8>
    1134:	0000                	unimp
    1136:	0000                	unimp
    1138:	5e01                	sw	zero,60(sp)
    113a:	0056                	j	116e <.Ldebug_info0+0xf0>
    113c:	0000                	unimp
    113e:	0614                	mv	a2,t0
    1140:	0000                	unimp
    1142:	0000                	unimp
    1144:	5f01                	sw	zero,188(sp)
    1146:	0056                	j	117a <.Ldebug_info0+0xfc>
    1148:	0000                	unimp
    114a:	0618                	mv	a2,t1
    114c:	0000                	unimp
    114e:	0000                	unimp
    1150:	6001                	bltz	s0,1150 <.Ldebug_info0+0xd2>
    1152:	0056                	j	1186 <.Ldebug_info0+0x108>
    1154:	0000                	unimp
    1156:	061c                	mv	a2,t2
    1158:	0000                	unimp
    115a:	0000                	unimp
    115c:	6101                	bltz	a0,115c <.Ldebug_info0+0xde>
    115e:	0056                	j	1192 <.Ldebug_info0+0x114>
    1160:	0000                	unimp
    1162:	0620                	mv	a2,s0
    1164:	0000                	unimp
    1166:	0000                	unimp
    1168:	6201                	bltz	a2,1168 <.Ldebug_info0+0xea>
    116a:	0056                	j	119e <.Ldebug_info0+0x120>
    116c:	0000                	unimp
    116e:	0624                	mv	a2,s1
    1170:	0000                	unimp
    1172:	0000                	unimp
    1174:	6301                	bltz	a4,1174 <.Ldebug_info0+0xf6>
    1176:	0044                	0x44
    1178:	0000                	unimp
    117a:	0628                	mv	a2,a0
    117c:	0000                	unimp
    117e:	0000                	unimp
    1180:	6401                	bltz	s0,11c0 <.Ldebug_info0+0x142>
    1182:	0044                	0x44
    1184:	0000                	unimp
    1186:	062a                	j	1490 <.Ldebug_info0+0x412>
    1188:	0000                	unimp
    118a:	0000                	unimp
    118c:	6601                	bltz	a2,11cc <.Ldebug_info0+0x14e>
    118e:	0044                	0x44
    1190:	0000                	unimp
    1192:	062c                	mv	a2,a1
    1194:	0000                	unimp
    1196:	0000                	unimp
    1198:	6801                	bltz	s0,1218 <.Ldebug_info0+0x19a>
    119a:	0044                	0x44
    119c:	0000                	unimp
    119e:	062e                	j	14c8 <.Ldebug_info0+0x44a>
    11a0:	0000                	unimp
    11a2:	0000                	unimp
    11a4:	6901                	bltz	a0,1224 <.Ldebug_info0+0x1a6>
    11a6:	0044                	0x44
    11a8:	0000                	unimp
    11aa:	0630                	mv	a2,a2
    11ac:	0000                	unimp
    11ae:	0000                	unimp
    11b0:	6a01                	bltz	a2,1230 <.Ldebug_info0+0x1b2>
    11b2:	0044                	0x44
    11b4:	0000                	unimp
    11b6:	0032                	j	11c2 <.Ldebug_info0+0x144>
    11b8:	00003d07          	fld	fs10,0(zero) # 1d010000 <.L0 +0x1cffbd50>
    11bc:	4a00                	sw	s0,16(a2)
    11be:	0001                	0x1
    11c0:	0800                	li	a6,0
    11c2:	014a                	j	1254 <.Ldebug_info0+0x1d6>
    11c4:	0000                	unimp
    11c6:	0402000f          	0x402000f
    11ca:	00000007          	0x7
    11ce:	0500                	li	a0,0
    11d0:	0000                	unimp
    11d2:	0000                	unimp
    11d4:	0128                	mv	sp,a0
    11d6:	d672                	addi	a2,a2,-4
    11d8:	0001                	0x1
    11da:	0600                	li	a2,0
    11dc:	0000                	unimp
    11de:	0000                	unimp
    11e0:	7301                	bltz	a4,10e0 <.Ldebug_info0+0x62>
    11e2:	0056                	j	1216 <.Ldebug_info0+0x198>
    11e4:	0000                	unimp
    11e6:	0600                	li	a2,0
    11e8:	0000                	unimp
    11ea:	0000                	unimp
    11ec:	7401                	bltz	s0,112c <.Ldebug_info0+0xae>
    11ee:	0056                	j	1222 <.Ldebug_info0+0x1a4>
    11f0:	0000                	unimp
    11f2:	0604                	mv	a2,ra
    11f4:	0000                	unimp
    11f6:	0000                	unimp
    11f8:	7501                	bltz	a0,1138 <.Ldebug_info0+0xba>
    11fa:	0056                	j	122e <.Ldebug_info0+0x1b0>
    11fc:	0000                	unimp
    11fe:	0608                	mv	a2,sp
    1200:	0000                	unimp
    1202:	0000                	unimp
    1204:	7601                	bltz	a2,1144 <.Ldebug_info0+0xc6>
    1206:	0056                	j	123a <.Ldebug_info0+0x1bc>
    1208:	0000                	unimp
    120a:	060c                	mv	a2,gp
    120c:	0000                	unimp
    120e:	0000                	unimp
    1210:	7701                	bltz	a4,1150 <.Ldebug_info0+0xd2>
    1212:	0056                	j	1246 <.Ldebug_info0+0x1c8>
    1214:	0000                	unimp
    1216:	0610                	mv	a2,tp
    1218:	0000                	unimp
    121a:	0000                	unimp
    121c:	7801                	bltz	s0,119c <.Ldebug_info0+0x11e>
    121e:	0056                	j	1252 <.Ldebug_info0+0x1d4>
    1220:	0000                	unimp
    1222:	0614                	mv	a2,t0
    1224:	0000                	unimp
    1226:	0000                	unimp
    1228:	7901                	bltz	a0,11a8 <.Ldebug_info0+0x12a>
    122a:	0056                	j	125e <.Ldebug_info0+0x1e0>
    122c:	0000                	unimp
    122e:	0618                	mv	a2,t1
    1230:	0000                	unimp
    1232:	0000                	unimp
    1234:	7a01                	bltz	a2,11b4 <.Ldebug_info0+0x136>
    1236:	0056                	j	126a <.Ldebug_info0+0x1ec>
    1238:	0000                	unimp
    123a:	061c                	mv	a2,t2
    123c:	0000                	unimp
    123e:	0000                	unimp
    1240:	7b01                	bltz	a4,11c0 <.Ldebug_info0+0x142>
    1242:	0056                	j	1276 <.Ldebug_info0+0x1f8>
    1244:	0000                	unimp
    1246:	0620                	mv	a2,s0
    1248:	0000                	unimp
    124a:	0000                	unimp
    124c:	7c01                	bltz	s0,120c <.Ldebug_info0+0x18e>
    124e:	0056                	j	1282 <.Ldebug_info0+0x204>
    1250:	0000                	unimp
    1252:	0024                	0x24
    1254:	0005                	0x5
    1256:	0000                	unimp
    1258:	2000                	0x2000
    125a:	8201                	addi	s0,a2,0
    125c:	00000243          	fmadd.s	ft4,ft0,ft0,ft0,rne
    1260:	0006                	j	1280 <.Ldebug_info0+0x202>
    1262:	0000                	unimp
    1264:	0100                	li	sp,0
    1266:	00005683          	lhu	a3,0(zero)
    126a:	0000                	unimp
    126c:	0006                	j	128c <.Ldebug_info0+0x20e>
    126e:	0000                	unimp
    1270:	0100                	li	sp,0
    1272:	5684                	sw	s1,40(a3)
    1274:	0000                	unimp
    1276:	0400                	li	s0,0
    1278:	0006                	j	1298 <.Ldebug_info0+0x21a>
    127a:	0000                	unimp
    127c:	0100                	li	sp,0
    127e:	5685                	sw	ra,108(sp)
    1280:	0000                	unimp
    1282:	0800                	li	a6,0
    1284:	0006                	j	12a4 <.Ldebug_info0+0x226>
    1286:	0000                	unimp
    1288:	0100                	li	sp,0
    128a:	00005687          	0x5687
    128e:	0c00                	li	s8,0
    1290:	0006                	j	12b0 <.Ldebug_info0+0x232>
    1292:	0000                	unimp
    1294:	0100                	li	sp,0
    1296:	5689                	sw	sp,108(sp)
    1298:	0000                	unimp
    129a:	1000                	ebreak
    129c:	0006                	j	12bc <.Ldebug_info0+0x23e>
    129e:	0000                	unimp
    12a0:	0100                	li	sp,0
    12a2:	0000568b          	0x568b
    12a6:	1400                	add	s0,s0,zero
    12a8:	0006                	j	12c8 <.Ldebug_info0+0x24a>
    12aa:	0000                	unimp
    12ac:	0100                	li	sp,0
    12ae:	5690                	sw	a2,40(a3)
    12b0:	0000                	unimp
    12b2:	1800                	add	a6,a6,zero
    12b4:	0006                	j	12d4 <.Ldebug_info0+0x256>
    12b6:	0000                	unimp
    12b8:	0100                	li	sp,0
    12ba:	5692                	beqz	a3,11fe <.Ldebug_info0+0x180>
    12bc:	0000                	unimp
    12be:	1c00                	add	s8,s8,zero
    12c0:	0900                	li	s2,0
    12c2:	0000                	unimp
    12c4:	0000                	unimp
    12c6:	9d01                	addi	s0,a0,-1
    12c8:	0000026b          	0x26b
	...
    12d4:	9c01                	addi	s0,s0,-1
    12d6:	0000026b          	0x26b
    12da:	000a                	j	12dc <.Ldebug_info0+0x25e>
    12dc:	0000                	unimp
    12de:	0100                	li	sp,0
    12e0:	719d                	bltz	a1,1206 <.Ldebug_info0+0x188>
    12e2:	0002                	j	12e2 <.Ldebug_info0+0x264>
    12e4:	0200                	li	tp,0
    12e6:	6c91                	bltz	s1,13aa <.Ldebug_info0+0x32c>
    12e8:	0b00                	li	s6,0
    12ea:	5104                	sw	s1,32(a0)
    12ec:	0001                	0x1
    12ee:	0b00                	li	s6,0
    12f0:	8504                	sub	a0,a0,ra
    12f2:	0000                	unimp
    12f4:	0c00                	li	s8,0
    12f6:	0000                	unimp
    12f8:	0000                	unimp
    12fa:	5502                	beqz	a0,123a <.Ldebug_info0+0x1bc>
    12fc:	0000002f          	0x2f
	...
    1308:	9c01                	addi	s0,s0,-1
    130a:	029f 0000 000a      	0xa0000029f
    1310:	0000                	unimp
    1312:	0200                	li	tp,0
    1314:	7155                	bltz	a0,1248 <.Ldebug_info0+0x1ca>
    1316:	0002                	j	1316 <.Ldebug_info0+0x298>
    1318:	0200                	li	tp,0
    131a:	6c91                	bltz	s1,13de <.Ldebug_info0+0x360>
    131c:	0c00                	li	s8,0
    131e:	0000                	unimp
    1320:	0000                	unimp
    1322:	6702                	bnez	a4,1362 <.Ldebug_info0+0x2e4>
    1324:	0061                	0x61
	...
    132e:	0000                	unimp
    1330:	9c01                	addi	s0,s0,-1
    1332:	000002c7          	fmsub.s	ft5,ft0,ft0,ft0,rne
    1336:	000a                	j	1338 <.Ldebug_info0+0x2ba>
    1338:	0000                	unimp
    133a:	0200                	li	tp,0
    133c:	00027167          	0x27167
    1340:	0200                	li	tp,0
    1342:	6c91                	bltz	s1,1406 <.Ldebug_info0+0x388>
    1344:	0d00                	li	s10,0
    1346:	0000                	unimp
    1348:	0000                	unimp
    134a:	6d02                	bnez	a0,140a <.Ldebug_info0+0x38c>
    134c:	02fd                	slli	t0,t0,0x1f
	...
    1356:	0000                	unimp
    1358:	9c01                	addi	s0,s0,-1
    135a:	02fd                	slli	t0,t0,0x1f
    135c:	0000                	unimp
    135e:	000a                	j	1360 <.Ldebug_info0+0x2e2>
    1360:	0000                	unimp
    1362:	0200                	li	tp,0
    1364:	716d                	bltz	a0,129e <.Ldebug_info0+0x220>
    1366:	0002                	j	1366 <.Ldebug_info0+0x2e8>
    1368:	0200                	li	tp,0
    136a:	5c91                	sw	tp,120(sp)
    136c:	000e                	j	138e <.Ldebug_info0+0x310>
    136e:	0000                	unimp
    1370:	0200                	li	tp,0
    1372:	00026b6f          	jal	s6,27372 <.L0 +0x130c2>
    1376:	0200                	li	tp,0
    1378:	6c91                	bltz	s1,143c <.Ldebug_info0+0x3be>
    137a:	0b00                	li	s6,0
    137c:	0304                	mv	t1,ra
    137e:	02000003          	lb	zero,32(zero)
    1382:	0801                	slli	a6,a6,0x0
    1384:	0000                	unimp
    1386:	0000                	unimp
    1388:	000c                	0xc
    138a:	0000                	unimp
    138c:	0200                	li	tp,0
    138e:	00034077          	0x34077
	...
    139a:	0100                	li	sp,0
    139c:	409c                	sw	a5,0(s1)
    139e:	0a000003          	lb	zero,160(zero)
    13a2:	0000                	unimp
    13a4:	0000                	unimp
    13a6:	7702                	bnez	a4,12e6 <.Ldebug_info0+0x268>
    13a8:	0271                	slli	tp,tp,0x1c
    13aa:	0000                	unimp
    13ac:	9102                	li	sp,-32
    13ae:	0e5c                	mv	t3,s7
    13b0:	0000                	unimp
    13b2:	0000                	unimp
    13b4:	7802                	bnez	s0,1334 <.Ldebug_info0+0x2b6>
    13b6:	0271                	slli	tp,tp,0x1c
    13b8:	0000                	unimp
    13ba:	9102                	li	sp,-32
    13bc:	006c                	0x6c
    13be:	01d6040b          	custom0	8,12,29,0
    13c2:	0000                	unimp
    13c4:	000c                	0xc
    13c6:	0000                	unimp
    13c8:	0200                	li	tp,0
    13ca:	447e                	beqz	s0,1448 <.Ldebug_info0+0x3ca>
	...
    13d4:	0000                	unimp
    13d6:	0100                	li	sp,0
    13d8:	7c9c                	0x7c9c
    13da:	0a000003          	lb	zero,160(zero)
    13de:	0000                	unimp
    13e0:	0000                	unimp
    13e2:	7e02                	bnez	a2,13a2 <.Ldebug_info0+0x324>
    13e4:	0271                	slli	tp,tp,0x1c
    13e6:	0000                	unimp
    13e8:	9102                	li	sp,-32
    13ea:	0e5c                	mv	t3,s7
    13ec:	0000                	unimp
    13ee:	0000                	unimp
    13f0:	8002                	0x8002
    13f2:	0271                	slli	tp,tp,0x1c
    13f4:	0000                	unimp
    13f6:	9102                	li	sp,-32
    13f8:	006c                	0x6c
    13fa:	000d                	0xd
    13fc:	0000                	unimp
    13fe:	0200                	li	tp,0
    1400:	fd85                	bgez	a1,13e0 <.Ldebug_info0+0x362>
    1402:	0002                	j	1402 <.Ldebug_info0+0x384>
	...
    140c:	0100                	li	sp,0
    140e:	cc9c                	lw	a5,24(s1)
    1410:	0a000003          	lb	zero,160(zero)
    1414:	0000                	unimp
    1416:	0000                	unimp
    1418:	8502                	jr	a0
    141a:	0271                	slli	tp,tp,0x1c
    141c:	0000                	unimp
    141e:	9102                	li	sp,-32
    1420:	0f5c                	mv	t5,s7
    1422:	0069                	0x69
    1424:	8502                	jr	a0
    1426:	0000002f          	0x2f
    142a:	9102                	li	sp,-32
    142c:	0e58                	mv	t3,s6
    142e:	0000                	unimp
    1430:	0000                	unimp
    1432:	8702                	jr	a4
    1434:	0000026b          	0x26b
    1438:	9102                	li	sp,-32
    143a:	0e6c                	mv	t3,s11
    143c:	0000                	unimp
    143e:	0000                	unimp
    1440:	8802                	jr	a6
    1442:	02fd                	slli	t0,t0,0x1f
    1444:	0000                	unimp
    1446:	9102                	li	sp,-32
    1448:	0068                	0x68
    144a:	000d                	0xd
    144c:	0000                	unimp
    144e:	0200                	li	tp,0
    1450:	5691                	sw	tp,108(sp)
	...
    145a:	0000                	unimp
    145c:	0100                	li	sp,0
    145e:	0e9c                	mv	t4,t2
    1460:	0004                	0x4
    1462:	0a00                	li	s4,0
    1464:	0000                	unimp
    1466:	0000                	unimp
    1468:	9102                	li	sp,-32
    146a:	0271                	slli	tp,tp,0x1c
    146c:	0000                	unimp
    146e:	9102                	li	sp,-32
    1470:	0f5c                	mv	t5,s7
    1472:	0069                	0x69
    1474:	9102                	li	sp,-32
    1476:	0000002f          	0x2f
    147a:	9102                	li	sp,-32
    147c:	0e58                	mv	t3,s6
    147e:	0000                	unimp
    1480:	0000                	unimp
    1482:	9302                	li	t1,-32
    1484:	0000026b          	0x26b
    1488:	9102                	li	sp,-32
    148a:	006c                	0x6c
    148c:	000d                	0xd
    148e:	0000                	unimp
    1490:	0200                	li	tp,0
    1492:	5698                	sw	a4,40(a3)
	...
    149c:	0000                	unimp
    149e:	0100                	li	sp,0
    14a0:	509c                	sw	a5,32(s1)
    14a2:	0004                	0x4
    14a4:	0a00                	li	s4,0
    14a6:	0000                	unimp
    14a8:	0000                	unimp
    14aa:	9802                	li	a6,-32
    14ac:	0271                	slli	tp,tp,0x1c
    14ae:	0000                	unimp
    14b0:	9102                	li	sp,-32
    14b2:	0f5c                	mv	t5,s7
    14b4:	0069                	0x69
    14b6:	9802                	li	a6,-32
    14b8:	0000002f          	0x2f
    14bc:	9102                	li	sp,-32
    14be:	0e58                	mv	t3,s6
    14c0:	0000                	unimp
    14c2:	0000                	unimp
    14c4:	9a02                	li	s4,-32
    14c6:	0000026b          	0x26b
    14ca:	9102                	li	sp,-32
    14cc:	006c                	0x6c
    14ce:	000d                	0xd
    14d0:	0000                	unimp
    14d2:	0200                	li	tp,0
    14d4:	929f 0004 0000      	0x4929f
    14da:	0000                	unimp
    14dc:	0000                	unimp
    14de:	0000                	unimp
    14e0:	0100                	li	sp,0
    14e2:	929c                	0x929c
    14e4:	0004                	0x4
    14e6:	0a00                	li	s4,0
    14e8:	0000                	unimp
    14ea:	0000                	unimp
    14ec:	9f02                	li	t5,-32
    14ee:	0271                	slli	tp,tp,0x1c
    14f0:	0000                	unimp
    14f2:	9102                	li	sp,-32
    14f4:	0f5c                	mv	t5,s7
    14f6:	0069                	0x69
    14f8:	9f02                	li	t5,-32
    14fa:	0000002f          	0x2f
    14fe:	9102                	li	sp,-32
    1500:	0e58                	mv	t3,s6
    1502:	0000                	unimp
    1504:	0000                	unimp
    1506:	a102                	jalr	sp
    1508:	0000026b          	0x26b
    150c:	9102                	li	sp,-32
    150e:	006c                	0x6c
    1510:	0410                	mv	s0,tp
    1512:	000d                	0xd
    1514:	0000                	unimp
    1516:	0200                	li	tp,0
    1518:	92a6                	li	t0,-23
    151a:	0004                	0x4
	...
    1524:	0100                	li	sp,0
    1526:	e49c                	0xe49c
    1528:	0004                	0x4
    152a:	0a00                	li	s4,0
    152c:	0000                	unimp
    152e:	0000                	unimp
    1530:	a602                	jalr	a2
    1532:	0271                	slli	tp,tp,0x1c
    1534:	0000                	unimp
    1536:	9102                	li	sp,-32
    1538:	0f5c                	mv	t5,s7
    153a:	00727473          	csrrc	s0,0x7,4
    153e:	a602                	jalr	a2
    1540:	02fd                	slli	t0,t0,0x1f
    1542:	0000                	unimp
    1544:	9102                	li	sp,-32
    1546:	0e58                	mv	t3,s6
    1548:	0000                	unimp
    154a:	0000                	unimp
    154c:	a802                	jalr	a6
    154e:	0000002f          	0x2f
    1552:	9102                	li	sp,-32
    1554:	1168                	add	sp,sp,s10
    1556:	0069                	0x69
    1558:	a902                	jalr	s2
    155a:	0000002f          	0x2f
    155e:	9102                	li	sp,-32
    1560:	006c                	0x6c
    1562:	000d                	0xd
    1564:	0000                	unimp
    1566:	0200                	li	tp,0
    1568:	0002fdb3          	and	s11,t0,zero
	...
    1574:	0100                	li	sp,0
    1576:	1a9c                	add	s5,s5,t2
    1578:	0005                	0x5
    157a:	0a00                	li	s4,0
    157c:	0000                	unimp
    157e:	0000                	unimp
    1580:	b302                	lui	t1,0xfffe0
    1582:	0271                	slli	tp,tp,0x1c
    1584:	0000                	unimp
    1586:	9102                	li	sp,-32
    1588:	0e5c                	mv	t3,s7
    158a:	0000                	unimp
    158c:	0000                	unimp
    158e:	b502                	lui	a0,0xfffe0
    1590:	0271                	slli	tp,tp,0x1c
    1592:	0000                	unimp
    1594:	9102                	li	sp,-32
    1596:	006c                	0x6c
    1598:	000d                	0xd
    159a:	0000                	unimp
    159c:	0200                	li	tp,0
    159e:	2fd6                	jal	1d92 <.Ldebug_info0+0xe4>
	...
    15a8:	0000                	unimp
    15aa:	0100                	li	sp,0
    15ac:	509c                	sw	a5,32(s1)
    15ae:	0005                	0x5
    15b0:	0a00                	li	s4,0
    15b2:	0000                	unimp
    15b4:	0000                	unimp
    15b6:	d602                	addi	a2,a2,-32
    15b8:	0271                	slli	tp,tp,0x1c
    15ba:	0000                	unimp
    15bc:	9102                	li	sp,-32
    15be:	0a6c                	mv	s4,s11
    15c0:	0000                	unimp
    15c2:	0000                	unimp
    15c4:	d602                	addi	a2,a2,-32
    15c6:	0000002f          	0x2f
    15ca:	9102                	li	sp,-32
    15cc:	0068                	0x68
    15ce:	0012                	j	15d2 <.Ldebug_info0+0x554>
    15d0:	0000                	unimp
    15d2:	0200                	li	tp,0
    15d4:	00dc                	mv	ra,s7
    15d6:	0000                	unimp
    15d8:	0000                	unimp
    15da:	0000                	unimp
    15dc:	0100                	li	sp,0
    15de:	dd9c                	lw	a5,56(a1)
    15e0:	0005                	0x5
    15e2:	0a00                	li	s4,0
    15e4:	0000                	unimp
    15e6:	0000                	unimp
    15e8:	dc02                	addi	s8,s8,-32
    15ea:	0271                	slli	tp,tp,0x1c
    15ec:	0000                	unimp
    15ee:	7fbc9103          	lh	sp,2043(s9)
    15f2:	000a                	j	15f4 <.Ldebug_info0+0x576>
    15f4:	0000                	unimp
    15f6:	0200                	li	tp,0
    15f8:	2fdc                	srai	t6,t6,0x17
    15fa:	0000                	unimp
    15fc:	0300                	li	t1,0
    15fe:	b891                	addi	a2,sp,112
    1600:	0a7f                	0xa7f
    1602:	0000                	unimp
    1604:	0000                	unimp
    1606:	dc02                	addi	s8,s8,-32
    1608:	05dd                	slli	a1,a1,0x17
    160a:	0000                	unimp
    160c:	7fb49103          	lh	sp,2043(s1)
    1610:	000a                	j	1612 <.Ldebug_info0+0x594>
    1612:	0000                	unimp
    1614:	0200                	li	tp,0
    1616:	dddc                	lw	a5,60(a1)
    1618:	0005                	0x5
    161a:	0300                	li	t1,0
    161c:	b091                	addi	a2,sp,96
    161e:	0a7f                	0xa7f
    1620:	0000                	unimp
    1622:	0000                	unimp
    1624:	dc02                	addi	s8,s8,-32
    1626:	05dd                	slli	a1,a1,0x17
    1628:	0000                	unimp
    162a:	7fac9103          	lh	sp,2042(s9)
    162e:	000a                	j	1630 <.Ldebug_info0+0x5b2>
    1630:	0000                	unimp
    1632:	0200                	li	tp,0
    1634:	dddc                	lw	a5,60(a1)
    1636:	0005                	0x5
    1638:	0300                	li	t1,0
    163a:	a891                	addi	a2,sp,80
    163c:	0a7f                	0xa7f
    163e:	0000                	unimp
    1640:	0000                	unimp
    1642:	dc02                	addi	s8,s8,-32
    1644:	05dd                	slli	a1,a1,0x17
    1646:	0000                	unimp
    1648:	7fa49103          	lh	sp,2042(s1)
    164c:	000e                	j	166e <.Ldebug_info0+0x5f0>
    164e:	0000                	unimp
    1650:	0200                	li	tp,0
    1652:	40de                	beqz	s1,1688 <.Ldebug_info0+0x2>
    1654:	02000003          	lb	zero,32(zero)
    1658:	4c91                	sw	tp,88(sp)
    165a:	0b00                	li	s6,0
    165c:	6804                	0x6804
    165e:	0000                	unimp
    1660:	1300                	add	t1,t1,zero
    1662:	0000                	unimp
    1664:	0000                	unimp
    1666:	e902                	andi	s2,s2,0
    1668:	0056                	j	169c <.Ldebug_info0+0x16>
	...
    1672:	0000                	unimp
    1674:	9c01                	addi	s0,s0,-1
    1676:	000a                	j	1678 <.Ldebug_info0+0x5fa>
    1678:	0000                	unimp
    167a:	0200                	li	tp,0
    167c:	71e9                	bltz	a1,1596 <.Ldebug_info0+0x518>
    167e:	0002                	j	167e <.Ldebug_info0+0x600>
    1680:	0200                	li	tp,0
    1682:	6c91                	bltz	s1,1746 <.Ldebug_info0+0xc0>
	...

00001686 <.Ldebug_info0>:
    1686:	0624                	mv	a2,s1
    1688:	0000                	unimp
    168a:	0004                	0x4
    168c:	0000                	unimp
    168e:	0000                	unimp
    1690:	0104                	mv	sp,ra
    1692:	0000                	unimp
    1694:	0000                	unimp
    1696:	000c                	0xc
	...
    16a4:	0000                	unimp
    16a6:	0200                	li	tp,0
    16a8:	0601                	slli	a2,a2,0x0
    16aa:	0000                	unimp
    16ac:	0000                	unimp
    16ae:	0202                	j	17ae <.Ldebug_info0+0x128>
    16b0:	0005                	0x5
    16b2:	0000                	unimp
    16b4:	0300                	li	t1,0
    16b6:	0504                	mv	a0,ra
    16b8:	6e69                	bltz	a2,1792 <.Ldebug_info0+0x10c>
    16ba:	0074                	0x74
    16bc:	0802                	j	1abc <.Ldebug_info0+0x436>
    16be:	0005                	0x5
    16c0:	0000                	unimp
    16c2:	0200                	li	tp,0
    16c4:	0801                	slli	a6,a6,0x0
    16c6:	0000                	unimp
    16c8:	0000                	unimp
    16ca:	0004                	0x4
    16cc:	0000                	unimp
    16ce:	0300                	li	t1,0
    16d0:	4f14                	sw	a3,24(a4)
    16d2:	0000                	unimp
    16d4:	0200                	li	tp,0
    16d6:	0702                	j	1a56 <.Ldebug_info0+0x3d0>
    16d8:	0000                	unimp
    16da:	0000                	unimp
    16dc:	0004                	0x4
    16de:	0000                	unimp
    16e0:	0300                	li	t1,0
    16e2:	6115                	bltz	a0,1706 <.Ldebug_info0+0x80>
    16e4:	0000                	unimp
    16e6:	0200                	li	tp,0
    16e8:	0704                	mv	a4,ra
    16ea:	0000                	unimp
    16ec:	0000                	unimp
    16ee:	0004                	0x4
    16f0:	0000                	unimp
    16f2:	0300                	li	t1,0
    16f4:	7316                	bnez	a4,1618 <.Ldebug_info0+0x59a>
    16f6:	0000                	unimp
    16f8:	0200                	li	tp,0
    16fa:	0708                	mv	a4,sp
    16fc:	0000                	unimp
    16fe:	0000                	unimp
    1700:	0004                	0x4
    1702:	0000                	unimp
    1704:	0300                	li	t1,0
    1706:	5618                	sw	a4,40(a2)
    1708:	0000                	unimp
    170a:	0400                	li	s0,0
    170c:	0000                	unimp
    170e:	0000                	unimp
    1710:	00561903          	lh	s2,5(a2)
    1714:	0000                	unimp
    1716:	3d05                	srli	s10,s10,0x21
    1718:	0000                	unimp
    171a:	a000                	add	s0,s0,s0
    171c:	0000                	unimp
    171e:	0600                	li	a2,0
    1720:	00a0                	mv	ra,s0
    1722:	0000                	unimp
    1724:	0402000f          	0x402000f
    1728:	00000007          	0x7
    172c:	0700                	li	a4,0
    172e:	0000                	unimp
    1730:	0000                	unimp
    1732:	0140                	mv	sp,a6
    1734:	5c59                	sw	s6,56(sp)
    1736:	0001                	0x1
    1738:	0800                	li	a6,0
    173a:	0000                	unimp
    173c:	0000                	unimp
    173e:	5a01                	sw	zero,52(sp)
    1740:	0090                	mv	ra,tp
    1742:	0000                	unimp
    1744:	0800                	li	a6,0
    1746:	0000                	unimp
    1748:	0000                	unimp
    174a:	5b01                	sw	zero,180(sp)
    174c:	0044                	0x44
    174e:	0000                	unimp
    1750:	0810                	mv	a6,tp
    1752:	0000                	unimp
    1754:	0000                	unimp
    1756:	5d01                	sw	zero,184(sp)
    1758:	0044                	0x44
    175a:	0000                	unimp
    175c:	0812                	j	1b60 <.Ldebug_info0+0x4da>
    175e:	0000                	unimp
    1760:	0000                	unimp
    1762:	5e01                	sw	zero,60(sp)
    1764:	0056                	j	1798 <.Ldebug_info0+0x112>
    1766:	0000                	unimp
    1768:	0814                	mv	a6,t0
    176a:	0000                	unimp
    176c:	0000                	unimp
    176e:	5f01                	sw	zero,188(sp)
    1770:	0068                	0x68
    1772:	0000                	unimp
    1774:	0818                	mv	a6,t1
    1776:	0000                	unimp
    1778:	0000                	unimp
    177a:	6001                	bltz	s0,177a <.Ldebug_info0+0xf4>
    177c:	0068                	0x68
    177e:	0000                	unimp
    1780:	0820                	mv	a6,s0
    1782:	0000                	unimp
    1784:	0000                	unimp
    1786:	6101                	bltz	a0,1786 <.Ldebug_info0+0x100>
    1788:	0068                	0x68
    178a:	0000                	unimp
    178c:	0828                	mv	a6,a0
    178e:	0000                	unimp
    1790:	0000                	unimp
    1792:	6201                	bltz	a2,1792 <.Ldebug_info0+0x10c>
    1794:	0056                	j	17c8 <.Ldebug_info0+0x142>
    1796:	0000                	unimp
    1798:	0830                	mv	a6,a2
    179a:	0000                	unimp
    179c:	0000                	unimp
    179e:	6301                	bltz	a4,179e <.Ldebug_info0+0x118>
    17a0:	0044                	0x44
    17a2:	0000                	unimp
    17a4:	0834                	mv	a6,a3
    17a6:	0000                	unimp
    17a8:	0000                	unimp
    17aa:	6401                	bltz	s0,17ea <.Ldebug_info0+0x164>
    17ac:	0044                	0x44
    17ae:	0000                	unimp
    17b0:	0836                	j	1bdc <.Ldebug_info0+0x556>
    17b2:	0000                	unimp
    17b4:	0000                	unimp
    17b6:	6601                	bltz	a2,17f6 <.Ldebug_info0+0x170>
    17b8:	0044                	0x44
    17ba:	0000                	unimp
    17bc:	0838                	mv	a6,a4
    17be:	0000                	unimp
    17c0:	0000                	unimp
    17c2:	6801                	bltz	s0,1842 <.Ldebug_info0+0x1bc>
    17c4:	0044                	0x44
    17c6:	0000                	unimp
    17c8:	083a                	j	1bd6 <.Ldebug_info0+0x550>
    17ca:	0000                	unimp
    17cc:	0000                	unimp
    17ce:	6901                	bltz	a0,184e <.Ldebug_info0+0x1c8>
    17d0:	0044                	0x44
    17d2:	0000                	unimp
    17d4:	083c                	mv	a6,a5
    17d6:	0000                	unimp
    17d8:	0000                	unimp
    17da:	6a01                	bltz	a2,185a <.Ldebug_info0+0x1d4>
    17dc:	0044                	0x44
    17de:	0000                	unimp
    17e0:	003e                	j	180e <.Ldebug_info0+0x188>
    17e2:	00000007          	0x7
    17e6:	4000                	sw	s0,0(s0)
    17e8:	7201                	bltz	a2,16e8 <.Ldebug_info0+0x62>
    17ea:	01e1                	slli	gp,gp,0x18
    17ec:	0000                	unimp
    17ee:	0008                	0x8
    17f0:	0000                	unimp
    17f2:	0100                	li	sp,0
    17f4:	00005673          	csrrw	a2,0x0,0
    17f8:	0000                	unimp
    17fa:	0008                	0x8
    17fc:	0000                	unimp
    17fe:	0100                	li	sp,0
    1800:	5674                	sw	a3,108(a2)
    1802:	0000                	unimp
    1804:	0400                	li	s0,0
    1806:	0008                	0x8
    1808:	0000                	unimp
    180a:	0100                	li	sp,0
    180c:	6875                	bltz	s0,18c8 <.Ldebug_info0+0x242>
    180e:	0000                	unimp
    1810:	0800                	li	a6,0
    1812:	0008                	0x8
    1814:	0000                	unimp
    1816:	0100                	li	sp,0
    1818:	6876                	bnez	s0,18d4 <.Ldebug_info0+0x24e>
    181a:	0000                	unimp
    181c:	1000                	ebreak
    181e:	0008                	0x8
    1820:	0000                	unimp
    1822:	0100                	li	sp,0
    1824:	00006877          	0x6877
    1828:	1800                	add	a6,a6,zero
    182a:	0008                	0x8
    182c:	0000                	unimp
    182e:	0100                	li	sp,0
    1830:	6878                	0x6878
    1832:	0000                	unimp
    1834:	2000                	0x2000
    1836:	0008                	0x8
    1838:	0000                	unimp
    183a:	0100                	li	sp,0
    183c:	5679                	sw	t5,44(sp)
    183e:	0000                	unimp
    1840:	2800                	srai	a6,a6,0x0
    1842:	0008                	0x8
    1844:	0000                	unimp
    1846:	0100                	li	sp,0
    1848:	567a                	beqz	a2,17a6 <.Ldebug_info0+0x120>
    184a:	0000                	unimp
    184c:	2c00                	srai	s8,s8,0x0
    184e:	0008                	0x8
    1850:	0000                	unimp
    1852:	0100                	li	sp,0
    1854:	0000687b          	custom3	a6,zero,0,0
    1858:	3000                	0x3000
    185a:	0008                	0x8
    185c:	0000                	unimp
    185e:	0100                	li	sp,0
    1860:	687c                	0x687c
    1862:	0000                	unimp
    1864:	3800                	srai	a6,a6,0x20
    1866:	0700                	li	a4,0
    1868:	0000                	unimp
    186a:	0000                	unimp
    186c:	0138                	mv	sp,a4
    186e:	4e82                	beqz	a3,192e <.Ldebug_info0+0x2a8>
    1870:	0002                	j	1870 <.Ldebug_info0+0x1ea>
    1872:	0800                	li	a6,0
    1874:	0000                	unimp
    1876:	0000                	unimp
    1878:	8301                	addi	s0,a4,0
    187a:	0056                	j	18ae <.Ldebug_info0+0x228>
    187c:	0000                	unimp
    187e:	0800                	li	a6,0
    1880:	0000                	unimp
    1882:	0000                	unimp
    1884:	8401                	addi	s0,s0,1
    1886:	0056                	j	18ba <.Ldebug_info0+0x234>
    1888:	0000                	unimp
    188a:	0804                	mv	a6,ra
    188c:	0000                	unimp
    188e:	0000                	unimp
    1890:	8601                	addi	s0,a2,1
    1892:	0068                	0x68
    1894:	0000                	unimp
    1896:	0808                	mv	a6,sp
    1898:	0000                	unimp
    189a:	0000                	unimp
    189c:	8701                	addi	s0,a4,1
    189e:	0068                	0x68
    18a0:	0000                	unimp
    18a2:	0810                	mv	a6,tp
    18a4:	0000                	unimp
    18a6:	0000                	unimp
    18a8:	8901                	addi	s0,a0,2
    18aa:	0068                	0x68
    18ac:	0000                	unimp
    18ae:	0818                	mv	a6,t1
    18b0:	0000                	unimp
    18b2:	0000                	unimp
    18b4:	8b01                	addi	s0,a4,2
    18b6:	0068                	0x68
    18b8:	0000                	unimp
    18ba:	0820                	mv	a6,s0
    18bc:	0000                	unimp
    18be:	0000                	unimp
    18c0:	8d01                	addi	s0,a0,3
    18c2:	0068                	0x68
    18c4:	0000                	unimp
    18c6:	0828                	mv	a6,a0
    18c8:	0000                	unimp
    18ca:	0000                	unimp
    18cc:	9201                	addi	s0,a2,-4
    18ce:	0068                	0x68
    18d0:	0000                	unimp
    18d2:	0030                	0x30
    18d4:	0009                	0x9
    18d6:	0000                	unimp
    18d8:	0100                	li	sp,0
    18da:	76a8                	0x76a8
    18dc:	0002                	j	18dc <.Ldebug_info0+0x256>
	...
    18e6:	0100                	li	sp,0
    18e8:	769c                	0x769c
    18ea:	0002                	j	18ea <.Ldebug_info0+0x264>
    18ec:	0a00                	li	s4,0
    18ee:	0000                	unimp
    18f0:	0000                	unimp
    18f2:	a801                	addi	s0,sp,16
    18f4:	027c                	mv	tp,t6
    18f6:	0000                	unimp
    18f8:	9102                	li	sp,-32
    18fa:	006c                	0x6c
    18fc:	015c040b          	custom0	8,24,21,0
    1900:	0000                	unimp
    1902:	00a7040b          	custom0	8,14,10,0
    1906:	0000                	unimp
    1908:	000c                	0xc
    190a:	0000                	unimp
    190c:	0200                	li	tp,0
    190e:	2f55                	srli	t5,t5,0x15
	...
    1918:	0000                	unimp
    191a:	0100                	li	sp,0
    191c:	b89c                	add	a4,s1,a5
    191e:	0002                	j	191e <.Ldebug_info0+0x298>
    1920:	0a00                	li	s4,0
    1922:	0000                	unimp
    1924:	0000                	unimp
    1926:	5502                	beqz	a0,1866 <.Ldebug_info0+0x1e0>
    1928:	02b8                	mv	t0,a4
    192a:	0000                	unimp
    192c:	9102                	li	sp,-32
    192e:	0d5c                	mv	s10,s7
    1930:	0000                	unimp
    1932:	0000                	unimp
    1934:	5702                	beqz	a4,1874 <.Ldebug_info0+0x1ee>
    1936:	027c                	mv	tp,t6
    1938:	0000                	unimp
    193a:	9102                	li	sp,-32
    193c:	006c                	0x6c
    193e:	040e                	j	1b60 <.Ldebug_info0+0x4da>
    1940:	000c                	0xc
    1942:	0000                	unimp
    1944:	0200                	li	tp,0
    1946:	f07e                	0xf07e
    1948:	0002                	j	1948 <.Ldebug_info0+0x2c2>
	...
    1952:	0100                	li	sp,0
    1954:	f09c                	0xf09c
    1956:	0002                	j	1956 <.Ldebug_info0+0x2d0>
    1958:	0a00                	li	s4,0
    195a:	0000                	unimp
    195c:	0000                	unimp
    195e:	7e02                	bnez	a2,191e <.Ldebug_info0+0x298>
    1960:	02b8                	mv	t0,a4
    1962:	0000                	unimp
    1964:	9102                	li	sp,-32
    1966:	0d5c                	mv	s10,s7
    1968:	0000                	unimp
    196a:	0000                	unimp
    196c:	8502                	jr	a0
    196e:	027c                	mv	tp,t6
    1970:	0000                	unimp
    1972:	9102                	li	sp,-32
    1974:	006c                	0x6c
    1976:	01e1040b          	custom0	8,2,30,0
    197a:	0000                	unimp
    197c:	000c                	0xc
    197e:	0000                	unimp
    1980:	0200                	li	tp,0
    1982:	618a                	bnez	a1,1984 <.Ldebug_info0+0x2fe>
	...
    198c:	0000                	unimp
    198e:	0100                	li	sp,0
    1990:	2c9c                	srai	s9,s9,0x7
    1992:	0a000003          	lb	zero,160(zero)
    1996:	0000                	unimp
    1998:	0000                	unimp
    199a:	8a02                	jr	s4
    199c:	02b8                	mv	t0,a4
    199e:	0000                	unimp
    19a0:	9102                	li	sp,-32
    19a2:	0d5c                	mv	s10,s7
    19a4:	0000                	unimp
    19a6:	0000                	unimp
    19a8:	8f02                	jr	t5
    19aa:	027c                	mv	tp,t6
    19ac:	0000                	unimp
    19ae:	9102                	li	sp,-32
    19b0:	006c                	0x6c
    19b2:	0000000f          	fence	unknown,unknown
    19b6:	0200                	li	tp,0
    19b8:	7094                	0x7094
    19ba:	00000003          	lb	zero,0(zero)
    19be:	0000                	unimp
    19c0:	0000                	unimp
    19c2:	0000                	unimp
    19c4:	0100                	li	sp,0
    19c6:	709c                	0x709c
    19c8:	0a000003          	lb	zero,160(zero)
    19cc:	0000                	unimp
    19ce:	0000                	unimp
    19d0:	9402                	li	s0,-32
    19d2:	02b8                	mv	t0,a4
    19d4:	0000                	unimp
    19d6:	9102                	li	sp,-32
    19d8:	0a5c                	mv	s4,s7
    19da:	0000                	unimp
    19dc:	0000                	unimp
    19de:	9402                	li	s0,-32
    19e0:	0000002f          	0x2f
    19e4:	9102                	li	sp,-32
    19e6:	0d58                	mv	s10,s6
    19e8:	0000                	unimp
    19ea:	0000                	unimp
    19ec:	9602                	li	a2,-32
    19ee:	0276                	j	1b2a <.Ldebug_info0+0x4a4>
    19f0:	0000                	unimp
    19f2:	9102                	li	sp,-32
    19f4:	006c                	0x6c
    19f6:	0376040b          	custom0	8,12,23,1
    19fa:	0000                	unimp
    19fc:	0102                	j	1a7c <.Ldebug_info0+0x3f6>
    19fe:	0008                	0x8
    1a00:	0000                	unimp
    1a02:	0f00                	li	t5,0
    1a04:	0000                	unimp
    1a06:	0000                	unimp
    1a08:	9b02                	li	s6,-32
    1a0a:	0370                	mv	t1,t3
	...
    1a14:	0000                	unimp
    1a16:	9c01                	addi	s0,s0,-1
    1a18:	000003b3          	add	t2,zero,zero
    1a1c:	000a                	j	1a1e <.Ldebug_info0+0x398>
    1a1e:	0000                	unimp
    1a20:	0200                	li	tp,0
    1a22:	0002b89b          	0x2b89b
    1a26:	0200                	li	tp,0
    1a28:	5c91                	sw	tp,120(sp)
    1a2a:	000d                	0xd
    1a2c:	0000                	unimp
    1a2e:	0200                	li	tp,0
    1a30:	7c9d                	bltz	s1,1a16 <.Ldebug_info0+0x390>
    1a32:	0002                	j	1a32 <.Ldebug_info0+0x3ac>
    1a34:	0200                	li	tp,0
    1a36:	6c91                	bltz	s1,1afa <.Ldebug_info0+0x474>
    1a38:	0f00                	li	t5,0
    1a3a:	0000                	unimp
    1a3c:	0000                	unimp
    1a3e:	a602                	jalr	a2
    1a40:	0370                	mv	t1,t3
	...
    1a4a:	0000                	unimp
    1a4c:	9c01                	addi	s0,s0,-1
    1a4e:	00000403          	lb	s0,0(zero)
    1a52:	000a                	j	1a54 <.Ldebug_info0+0x3ce>
    1a54:	0000                	unimp
    1a56:	0200                	li	tp,0
    1a58:	b8a6                	lui	a7,0xfffe9
    1a5a:	0002                	j	1a5a <.Ldebug_info0+0x3d4>
    1a5c:	0200                	li	tp,0
    1a5e:	5c91                	sw	tp,120(sp)
    1a60:	6910                	0x6910
    1a62:	0200                	li	tp,0
    1a64:	2fa6                	jal	224c <.Ldebug_info0+0x59e>
    1a66:	0000                	unimp
    1a68:	0200                	li	tp,0
    1a6a:	5891                	sw	tp,112(sp)
    1a6c:	000d                	0xd
    1a6e:	0000                	unimp
    1a70:	0200                	li	tp,0
    1a72:	76a8                	0x76a8
    1a74:	0002                	j	1a74 <.Ldebug_info0+0x3ee>
    1a76:	0200                	li	tp,0
    1a78:	6c91                	bltz	s1,1b3c <.Ldebug_info0+0x4b6>
    1a7a:	000d                	0xd
    1a7c:	0000                	unimp
    1a7e:	0200                	li	tp,0
    1a80:	70a9                	bltz	s1,198a <.Ldebug_info0+0x304>
    1a82:	02000003          	lb	zero,32(zero)
    1a86:	6891                	bltz	s1,1b0a <.Ldebug_info0+0x484>
    1a88:	0f00                	li	t5,0
    1a8a:	0000                	unimp
    1a8c:	0000                	unimp
    1a8e:	b202                	lui	tp,0xfffe0
    1a90:	0068                	0x68
	...
    1a9a:	0000                	unimp
    1a9c:	9c01                	addi	s0,s0,-1
    1a9e:	0445                	slli	s0,s0,0x11
    1aa0:	0000                	unimp
    1aa2:	000a                	j	1aa4 <.Ldebug_info0+0x41e>
    1aa4:	0000                	unimp
    1aa6:	0200                	li	tp,0
    1aa8:	b8b2                	lui	a7,0xfffec
    1aaa:	0002                	j	1aaa <.Ldebug_info0+0x424>
    1aac:	0200                	li	tp,0
    1aae:	5c91                	sw	tp,120(sp)
    1ab0:	6910                	0x6910
    1ab2:	0200                	li	tp,0
    1ab4:	2fb2                	jal	2280 <.Ldebug_info0+0x5d2>
    1ab6:	0000                	unimp
    1ab8:	0200                	li	tp,0
    1aba:	5891                	sw	tp,112(sp)
    1abc:	000d                	0xd
    1abe:	0000                	unimp
    1ac0:	0200                	li	tp,0
    1ac2:	76b4                	0x76b4
    1ac4:	0002                	j	1ac4 <.Ldebug_info0+0x43e>
    1ac6:	0200                	li	tp,0
    1ac8:	6c91                	bltz	s1,1b8c <.Ldebug_info0+0x506>
    1aca:	0f00                	li	t5,0
    1acc:	0000                	unimp
    1ace:	0000                	unimp
    1ad0:	b902                	lui	s2,0xfffe0
    1ad2:	0068                	0x68
	...
    1adc:	0000                	unimp
    1ade:	9c01                	addi	s0,s0,-1
    1ae0:	00000487          	0x487
    1ae4:	000a                	j	1ae6 <.Ldebug_info0+0x460>
    1ae6:	0000                	unimp
    1ae8:	0200                	li	tp,0
    1aea:	7cb9                	bltz	s1,1ab8 <.Ldebug_info0+0x432>
    1aec:	0002                	j	1aec <.Ldebug_info0+0x466>
    1aee:	0200                	li	tp,0
    1af0:	5c91                	sw	tp,120(sp)
    1af2:	6910                	0x6910
    1af4:	0200                	li	tp,0
    1af6:	2fb9                	srli	t6,t6,0xe
    1af8:	0000                	unimp
    1afa:	0200                	li	tp,0
    1afc:	5891                	sw	tp,112(sp)
    1afe:	000d                	0xd
    1b00:	0000                	unimp
    1b02:	0200                	li	tp,0
    1b04:	000276bb          	0x276bb
    1b08:	0200                	li	tp,0
    1b0a:	6c91                	bltz	s1,1bce <.Ldebug_info0+0x548>
    1b0c:	0f00                	li	t5,0
    1b0e:	0000                	unimp
    1b10:	0000                	unimp
    1b12:	c002                	nop
    1b14:	02b8                	mv	t0,a4
	...
    1b1e:	0000                	unimp
    1b20:	9c01                	addi	s0,s0,-1
    1b22:	04c9                	slli	s1,s1,0x12
    1b24:	0000                	unimp
    1b26:	000a                	j	1b28 <.Ldebug_info0+0x4a2>
    1b28:	0000                	unimp
    1b2a:	0200                	li	tp,0
    1b2c:	b8c0                	or	a4,s1,s0
    1b2e:	0002                	j	1b2e <.Ldebug_info0+0x4a8>
    1b30:	0200                	li	tp,0
    1b32:	5c91                	sw	tp,120(sp)
    1b34:	6910                	0x6910
    1b36:	0200                	li	tp,0
    1b38:	2fc0                	srai	t6,t6,0x10
    1b3a:	0000                	unimp
    1b3c:	0200                	li	tp,0
    1b3e:	5891                	sw	tp,112(sp)
    1b40:	000d                	0xd
    1b42:	0000                	unimp
    1b44:	0200                	li	tp,0
    1b46:	76c2                	bnez	a3,1a96 <.Ldebug_info0+0x410>
    1b48:	0002                	j	1b48 <.Ldebug_info0+0x4c2>
    1b4a:	0200                	li	tp,0
    1b4c:	6c91                	bltz	s1,1c10 <.Ldebug_info0+0x58a>
    1b4e:	0f00                	li	t5,0
    1b50:	0000                	unimp
    1b52:	0000                	unimp
    1b54:	c702                	addi	a4,a4,0
    1b56:	02b8                	mv	t0,a4
	...
    1b60:	0000                	unimp
    1b62:	9c01                	addi	s0,s0,-1
    1b64:	0519                	slli	a0,a0,0x6
    1b66:	0000                	unimp
    1b68:	000a                	j	1b6a <.Ldebug_info0+0x4e4>
    1b6a:	0000                	unimp
    1b6c:	0200                	li	tp,0
    1b6e:	0002b8c7          	fmsub.s	fa7,ft5,ft0,ft0,rup
    1b72:	0200                	li	tp,0
    1b74:	5c91                	sw	tp,120(sp)
    1b76:	7310                	0x7310
    1b78:	7274                	0x7274
    1b7a:	0200                	li	tp,0
    1b7c:	000370c7          	fmsub.s	ft1,ft6,ft0,ft0
    1b80:	0200                	li	tp,0
    1b82:	5891                	sw	tp,112(sp)
    1b84:	000d                	0xd
    1b86:	0000                	unimp
    1b88:	0200                	li	tp,0
    1b8a:	2fc9                	srli	t6,t6,0x12
    1b8c:	0000                	unimp
    1b8e:	0200                	li	tp,0
    1b90:	6891                	bltz	s1,1c14 <.Ldebug_info0+0x58e>
    1b92:	6911                	bltz	a0,1c16 <.Ldebug_info0+0x590>
    1b94:	0200                	li	tp,0
    1b96:	2fca                	jal	2368 <.Ldebug_info0+0x6ba>
    1b98:	0000                	unimp
    1b9a:	0200                	li	tp,0
    1b9c:	6c91                	bltz	s1,1c60 <.Ldebug_info0+0x5da>
    1b9e:	0c00                	li	s8,0
    1ba0:	0000                	unimp
    1ba2:	0000                	unimp
    1ba4:	d402                	addi	s0,s0,-32
    1ba6:	0044                	0x44
	...
    1bb0:	0000                	unimp
    1bb2:	9c01                	addi	s0,s0,-1
    1bb4:	0541                	slli	a0,a0,0x10
    1bb6:	0000                	unimp
    1bb8:	000a                	j	1bba <.Ldebug_info0+0x534>
    1bba:	0000                	unimp
    1bbc:	0200                	li	tp,0
    1bbe:	7cd4                	0x7cd4
    1bc0:	0002                	j	1bc0 <.Ldebug_info0+0x53a>
    1bc2:	0200                	li	tp,0
    1bc4:	6c91                	bltz	s1,1c88 <.Ldebug_info0+0x602>
    1bc6:	0f00                	li	t5,0
    1bc8:	0000                	unimp
    1bca:	0000                	unimp
    1bcc:	da02                	addi	s4,s4,-32
    1bce:	0000002f          	0x2f
	...
    1bda:	9c01                	addi	s0,s0,-1
    1bdc:	00000577          	0x577
    1be0:	000a                	j	1be2 <.Ldebug_info0+0x55c>
    1be2:	0000                	unimp
    1be4:	0200                	li	tp,0
    1be6:	b8da                	lui	a7,0xffff6
    1be8:	0002                	j	1be8 <.Ldebug_info0+0x562>
    1bea:	0200                	li	tp,0
    1bec:	6c91                	bltz	s1,1cb0 <.Ldebug_info0+0x2>
    1bee:	000a                	j	1bf0 <.Ldebug_info0+0x56a>
    1bf0:	0000                	unimp
    1bf2:	0200                	li	tp,0
    1bf4:	2fda                	jal	23ca <.Ldebug_info0+0x71c>
    1bf6:	0000                	unimp
    1bf8:	0200                	li	tp,0
    1bfa:	6891                	bltz	s1,1c7e <.Ldebug_info0+0x5f8>
    1bfc:	1200                	add	tp,tp,zero
    1bfe:	0000                	unimp
    1c00:	0000                	unimp
    1c02:	e002                	0xe002
	...
    1c0c:	9c01                	addi	s0,s0,-1
    1c0e:	05fd                	slli	a1,a1,0x1f
    1c10:	0000                	unimp
    1c12:	000a                	j	1c14 <.Ldebug_info0+0x58e>
    1c14:	0000                	unimp
    1c16:	0200                	li	tp,0
    1c18:	b8e0                	and	a4,s1,s0
    1c1a:	0002                	j	1c1a <.Ldebug_info0+0x594>
    1c1c:	0200                	li	tp,0
    1c1e:	5c91                	sw	tp,120(sp)
    1c20:	000a                	j	1c22 <.Ldebug_info0+0x59c>
    1c22:	0000                	unimp
    1c24:	0200                	li	tp,0
    1c26:	2fe0                	srai	t6,t6,0x18
    1c28:	0000                	unimp
    1c2a:	0200                	li	tp,0
    1c2c:	5891                	sw	tp,112(sp)
    1c2e:	000a                	j	1c30 <.Ldebug_info0+0x5aa>
    1c30:	0000                	unimp
    1c32:	0200                	li	tp,0
    1c34:	fde0                	0xfde0
    1c36:	0005                	0x5
    1c38:	0200                	li	tp,0
    1c3a:	5491                	sw	tp,104(sp)
    1c3c:	000a                	j	1c3e <.Ldebug_info0+0x5b8>
    1c3e:	0000                	unimp
    1c40:	0200                	li	tp,0
    1c42:	fde1                	bgez	a1,1c1a <.Ldebug_info0+0x594>
    1c44:	0005                	0x5
    1c46:	0200                	li	tp,0
    1c48:	5091                	sw	tp,96(sp)
    1c4a:	000a                	j	1c4c <.Ldebug_info0+0x5c6>
    1c4c:	0000                	unimp
    1c4e:	0200                	li	tp,0
    1c50:	fde1                	bgez	a1,1c28 <.Ldebug_info0+0x5a2>
    1c52:	0005                	0x5
    1c54:	0200                	li	tp,0
    1c56:	4c91                	sw	tp,88(sp)
    1c58:	000a                	j	1c5a <.Ldebug_info0+0x5d4>
    1c5a:	0000                	unimp
    1c5c:	0200                	li	tp,0
    1c5e:	fde1                	bgez	a1,1c36 <.Ldebug_info0+0x5b0>
    1c60:	0005                	0x5
    1c62:	0200                	li	tp,0
    1c64:	4891                	sw	tp,80(sp)
    1c66:	000a                	j	1c68 <.Ldebug_info0+0x5e2>
    1c68:	0000                	unimp
    1c6a:	0200                	li	tp,0
    1c6c:	fde2                	andi	s11,s11,-8
    1c6e:	0005                	0x5
    1c70:	0200                	li	tp,0
    1c72:	4491                	sw	tp,72(sp)
    1c74:	000d                	0xd
    1c76:	0000                	unimp
    1c78:	0200                	li	tp,0
    1c7a:	f0e4                	0xf0e4
    1c7c:	0002                	j	1c7c <.Ldebug_info0+0x5f6>
    1c7e:	0200                	li	tp,0
    1c80:	6c91                	bltz	s1,1d44 <.Ldebug_info0+0x96>
    1c82:	0b00                	li	s6,0
    1c84:	6804                	0x6804
    1c86:	0000                	unimp
    1c88:	1300                	add	t1,t1,zero
    1c8a:	0000                	unimp
    1c8c:	0000                	unimp
    1c8e:	ef02                	andi	t5,t5,0
    1c90:	0068                	0x68
	...
    1c9a:	0000                	unimp
    1c9c:	9c01                	addi	s0,s0,-1
    1c9e:	000a                	j	1ca0 <.Ldebug_info0+0x61a>
    1ca0:	0000                	unimp
    1ca2:	0200                	li	tp,0
    1ca4:	00027cef          	jal	s9,28ca4 <.L0 +0x149f4>
    1ca8:	0200                	li	tp,0
    1caa:	6c91                	bltz	s1,1d6e <.Ldebug_info0+0xc0>
	...

00001cae <.Ldebug_info0>:
    1cae:	00000edb          	custom2	29,0,0,0
    1cb2:	0004                	0x4
    1cb4:	0000                	unimp
    1cb6:	0000                	unimp
    1cb8:	0104                	mv	sp,ra
    1cba:	0000                	unimp
    1cbc:	0000                	unimp
    1cbe:	000c                	0xc
	...
    1ccc:	0000                	unimp
    1cce:	0200                	li	tp,0
    1cd0:	0601                	slli	a2,a2,0x0
    1cd2:	0000                	unimp
    1cd4:	0000                	unimp
    1cd6:	0202                	j	1dd6 <.Ldebug_info0+0x128>
    1cd8:	0005                	0x5
    1cda:	0000                	unimp
    1cdc:	0300                	li	t1,0
    1cde:	0504                	mv	a0,ra
    1ce0:	6e69                	bltz	a2,1dba <.Ldebug_info0+0x10c>
    1ce2:	0074                	0x74
    1ce4:	0802                	j	20e4 <.Ldebug_info0+0x436>
    1ce6:	0005                	0x5
    1ce8:	0000                	unimp
    1cea:	0200                	li	tp,0
    1cec:	0801                	slli	a6,a6,0x0
    1cee:	0000                	unimp
    1cf0:	0000                	unimp
    1cf2:	0004                	0x4
    1cf4:	0000                	unimp
    1cf6:	0400                	li	s0,0
    1cf8:	4f14                	sw	a3,24(a4)
    1cfa:	0000                	unimp
    1cfc:	0200                	li	tp,0
    1cfe:	0702                	j	207e <.Ldebug_info0+0x3d0>
    1d00:	0000                	unimp
    1d02:	0000                	unimp
    1d04:	0004                	0x4
    1d06:	0000                	unimp
    1d08:	0400                	li	s0,0
    1d0a:	6115                	bltz	a0,1d2e <.Ldebug_info0+0x80>
    1d0c:	0000                	unimp
    1d0e:	0200                	li	tp,0
    1d10:	0704                	mv	a4,ra
    1d12:	0000                	unimp
    1d14:	0000                	unimp
    1d16:	0004                	0x4
    1d18:	0000                	unimp
    1d1a:	0400                	li	s0,0
    1d1c:	7316                	bnez	a4,1c40 <.Ldebug_info0+0x5ba>
    1d1e:	0000                	unimp
    1d20:	0200                	li	tp,0
    1d22:	0708                	mv	a4,sp
    1d24:	0000                	unimp
    1d26:	0000                	unimp
    1d28:	0004                	0x4
    1d2a:	0000                	unimp
    1d2c:	0400                	li	s0,0
    1d2e:	5618                	sw	a4,40(a2)
    1d30:	0000                	unimp
    1d32:	0400                	li	s0,0
    1d34:	0000                	unimp
    1d36:	0000                	unimp
    1d38:	1904                	add	s2,s2,ra
    1d3a:	0056                	j	1d6e <.Ldebug_info0+0xc0>
    1d3c:	0000                	unimp
    1d3e:	0005                	0x5
    1d40:	0000                	unimp
    1d42:	3400                	srai	s0,s0,0x20
    1d44:	5901                	sw	zero,176(sp)
    1d46:	0145                	slli	sp,sp,0x11
    1d48:	0000                	unimp
    1d4a:	0006                	j	1d6a <.Ldebug_info0+0xbc>
    1d4c:	0000                	unimp
    1d4e:	0100                	li	sp,0
    1d50:	455a                	beqz	a0,1da6 <.Ldebug_info0+0xf8>
    1d52:	0001                	0x1
    1d54:	0000                	unimp
    1d56:	0006                	j	1d76 <.Ldebug_info0+0xc8>
    1d58:	0000                	unimp
    1d5a:	0100                	li	sp,0
    1d5c:	0000445b          	custom2	s0,0,0,0
    1d60:	1000                	ebreak
    1d62:	0006                	j	1d82 <.Ldebug_info0+0xd4>
    1d64:	0000                	unimp
    1d66:	0100                	li	sp,0
    1d68:	445d                	sw	s7,8(sp)
    1d6a:	0000                	unimp
    1d6c:	1200                	add	tp,tp,zero
    1d6e:	0006                	j	1d8e <.Ldebug_info0+0xe0>
    1d70:	0000                	unimp
    1d72:	0100                	li	sp,0
    1d74:	565e                	beqz	a2,1cea <.Ldebug_info0+0x3c>
    1d76:	0000                	unimp
    1d78:	1400                	add	s0,s0,zero
    1d7a:	0006                	j	1d9a <.Ldebug_info0+0xec>
    1d7c:	0000                	unimp
    1d7e:	0100                	li	sp,0
    1d80:	565f 0000 1800      	0x18000000565f
    1d86:	0006                	j	1da6 <.Ldebug_info0+0xf8>
    1d88:	0000                	unimp
    1d8a:	0100                	li	sp,0
    1d8c:	5660                	sw	s0,108(a2)
    1d8e:	0000                	unimp
    1d90:	1c00                	add	s8,s8,zero
    1d92:	0006                	j	1db2 <.Ldebug_info0+0x104>
    1d94:	0000                	unimp
    1d96:	0100                	li	sp,0
    1d98:	5661                	sw	s8,44(sp)
    1d9a:	0000                	unimp
    1d9c:	2000                	0x2000
    1d9e:	0006                	j	1dbe <.Ldebug_info0+0x110>
    1da0:	0000                	unimp
    1da2:	0100                	li	sp,0
    1da4:	5662                	beqz	a2,1cfc <.Ldebug_info0+0x4e>
    1da6:	0000                	unimp
    1da8:	2400                	srai	s0,s0,0x0
    1daa:	0006                	j	1dca <.Ldebug_info0+0x11c>
    1dac:	0000                	unimp
    1dae:	0100                	li	sp,0
    1db0:	00004463          	bltz	zero,1db8 <.Ldebug_info0+0x10a>
    1db4:	2800                	srai	a6,a6,0x0
    1db6:	0006                	j	1dd6 <.Ldebug_info0+0x128>
    1db8:	0000                	unimp
    1dba:	0100                	li	sp,0
    1dbc:	4464                	sw	s1,76(s0)
    1dbe:	0000                	unimp
    1dc0:	2a00                	srai	s4,s4,0x0
    1dc2:	0006                	j	1de2 <.Ldebug_info0+0x134>
    1dc4:	0000                	unimp
    1dc6:	0100                	li	sp,0
    1dc8:	4466                	beqz	s0,1e40 <.Ldebug_info0+0x192>
    1dca:	0000                	unimp
    1dcc:	2c00                	srai	s8,s8,0x0
    1dce:	0006                	j	1dee <.Ldebug_info0+0x140>
    1dd0:	0000                	unimp
    1dd2:	0100                	li	sp,0
    1dd4:	4468                	sw	a0,76(s0)
    1dd6:	0000                	unimp
    1dd8:	2e00                	srai	t3,t3,0x0
    1dda:	0006                	j	1dfa <.Ldebug_info0+0x14c>
    1ddc:	0000                	unimp
    1dde:	0100                	li	sp,0
    1de0:	4469                	sw	s10,8(sp)
    1de2:	0000                	unimp
    1de4:	3000                	0x3000
    1de6:	0006                	j	1e06 <.Ldebug_info0+0x158>
    1de8:	0000                	unimp
    1dea:	0100                	li	sp,0
    1dec:	446a                	beqz	s0,1e46 <.Ldebug_info0+0x198>
    1dee:	0000                	unimp
    1df0:	3200                	srai	tp,tp,0x20
    1df2:	0700                	li	a4,0
    1df4:	003d                	0x3d
    1df6:	0000                	unimp
    1df8:	0155                	slli	sp,sp,0x15
    1dfa:	0000                	unimp
    1dfc:	5508                	sw	a0,40(a0)
    1dfe:	0001                	0x1
    1e00:	0f00                	li	t5,0
    1e02:	0200                	li	tp,0
    1e04:	0704                	mv	a4,ra
    1e06:	0000                	unimp
    1e08:	0000                	unimp
    1e0a:	0005                	0x5
    1e0c:	0000                	unimp
    1e0e:	2800                	srai	a6,a6,0x0
    1e10:	7201                	bltz	a2,1d10 <.Ldebug_info0+0x62>
    1e12:	01e1                	slli	gp,gp,0x18
    1e14:	0000                	unimp
    1e16:	0006                	j	1e36 <.Ldebug_info0+0x188>
    1e18:	0000                	unimp
    1e1a:	0100                	li	sp,0
    1e1c:	00005673          	csrrw	a2,0x0,0
    1e20:	0000                	unimp
    1e22:	0006                	j	1e42 <.Ldebug_info0+0x194>
    1e24:	0000                	unimp
    1e26:	0100                	li	sp,0
    1e28:	5674                	sw	a3,108(a2)
    1e2a:	0000                	unimp
    1e2c:	0400                	li	s0,0
    1e2e:	0006                	j	1e4e <.Ldebug_info0+0x1a0>
    1e30:	0000                	unimp
    1e32:	0100                	li	sp,0
    1e34:	5675                	sw	t4,44(sp)
    1e36:	0000                	unimp
    1e38:	0800                	li	a6,0
    1e3a:	0006                	j	1e5a <.Ldebug_info0+0x1ac>
    1e3c:	0000                	unimp
    1e3e:	0100                	li	sp,0
    1e40:	5676                	beqz	a2,1dbc <.Ldebug_info0+0x10e>
    1e42:	0000                	unimp
    1e44:	0c00                	li	s8,0
    1e46:	0006                	j	1e66 <.Ldebug_info0+0x1b8>
    1e48:	0000                	unimp
    1e4a:	0100                	li	sp,0
    1e4c:	00005677          	0x5677
    1e50:	1000                	ebreak
    1e52:	0006                	j	1e72 <.Ldebug_info0+0x1c4>
    1e54:	0000                	unimp
    1e56:	0100                	li	sp,0
    1e58:	5678                	sw	a4,108(a2)
    1e5a:	0000                	unimp
    1e5c:	1400                	add	s0,s0,zero
    1e5e:	0006                	j	1e7e <.Ldebug_info0+0x1d0>
    1e60:	0000                	unimp
    1e62:	0100                	li	sp,0
    1e64:	5679                	sw	t5,44(sp)
    1e66:	0000                	unimp
    1e68:	1800                	add	a6,a6,zero
    1e6a:	0006                	j	1e8a <.Ldebug_info0+0x1dc>
    1e6c:	0000                	unimp
    1e6e:	0100                	li	sp,0
    1e70:	567a                	beqz	a2,1dce <.Ldebug_info0+0x120>
    1e72:	0000                	unimp
    1e74:	1c00                	add	s8,s8,zero
    1e76:	0006                	j	1e96 <.Ldebug_info0+0x1e8>
    1e78:	0000                	unimp
    1e7a:	0100                	li	sp,0
    1e7c:	0000567b          	0x567b
    1e80:	2000                	0x2000
    1e82:	0006                	j	1ea2 <.Ldebug_info0+0x1f4>
    1e84:	0000                	unimp
    1e86:	0100                	li	sp,0
    1e88:	567c                	sw	a5,108(a2)
    1e8a:	0000                	unimp
    1e8c:	2400                	srai	s0,s0,0x0
    1e8e:	0500                	li	a0,0
    1e90:	0000                	unimp
    1e92:	0000                	unimp
    1e94:	0120                	mv	sp,s0
    1e96:	4e82                	beqz	a3,1f56 <.Ldebug_info0+0x2a8>
    1e98:	0002                	j	1e98 <.Ldebug_info0+0x1ea>
    1e9a:	0600                	li	a2,0
    1e9c:	0000                	unimp
    1e9e:	0000                	unimp
    1ea0:	8301                	addi	s0,a4,0
    1ea2:	0056                	j	1ed6 <.Ldebug_info0+0x228>
    1ea4:	0000                	unimp
    1ea6:	0600                	li	a2,0
    1ea8:	0000                	unimp
    1eaa:	0000                	unimp
    1eac:	8401                	addi	s0,s0,1
    1eae:	0056                	j	1ee2 <.Ldebug_info0+0x234>
    1eb0:	0000                	unimp
    1eb2:	0604                	mv	a2,ra
    1eb4:	0000                	unimp
    1eb6:	0000                	unimp
    1eb8:	8501                	addi	s0,a0,1
    1eba:	0056                	j	1eee <.Ldebug_info0+0x240>
    1ebc:	0000                	unimp
    1ebe:	0608                	mv	a2,sp
    1ec0:	0000                	unimp
    1ec2:	0000                	unimp
    1ec4:	8701                	addi	s0,a4,1
    1ec6:	0056                	j	1efa <.Ldebug_info0+0x24c>
    1ec8:	0000                	unimp
    1eca:	060c                	mv	a2,gp
    1ecc:	0000                	unimp
    1ece:	0000                	unimp
    1ed0:	8901                	addi	s0,a0,2
    1ed2:	0056                	j	1f06 <.Ldebug_info0+0x258>
    1ed4:	0000                	unimp
    1ed6:	0610                	mv	a2,tp
    1ed8:	0000                	unimp
    1eda:	0000                	unimp
    1edc:	8b01                	addi	s0,a4,2
    1ede:	0056                	j	1f12 <.Ldebug_info0+0x264>
    1ee0:	0000                	unimp
    1ee2:	0614                	mv	a2,t0
    1ee4:	0000                	unimp
    1ee6:	0000                	unimp
    1ee8:	9001                	addi	s0,s0,-4
    1eea:	0056                	j	1f1e <.Ldebug_info0+0x270>
    1eec:	0000                	unimp
    1eee:	0618                	mv	a2,t1
    1ef0:	0000                	unimp
    1ef2:	0000                	unimp
    1ef4:	9201                	addi	s0,a2,-4
    1ef6:	0056                	j	1f2a <.Ldebug_info0+0x27c>
    1ef8:	0000                	unimp
    1efa:	001c                	0x1c
    1efc:	0005                	0x5
    1efe:	0000                	unimp
    1f00:	4000                	sw	s0,0(s0)
    1f02:	5902                	beqz	a0,1e82 <.Ldebug_info0+0x1d4>
    1f04:	00000303          	lb	t1,0(zero)
    1f08:	0006                	j	1f28 <.Ldebug_info0+0x27a>
    1f0a:	0000                	unimp
    1f0c:	0200                	li	tp,0
    1f0e:	455a                	beqz	a0,1f64 <.Ldebug_info0+0x2b6>
    1f10:	0001                	0x1
    1f12:	0000                	unimp
    1f14:	0006                	j	1f34 <.Ldebug_info0+0x286>
    1f16:	0000                	unimp
    1f18:	0200                	li	tp,0
    1f1a:	0000445b          	custom2	s0,0,0,0
    1f1e:	1000                	ebreak
    1f20:	0006                	j	1f40 <.Ldebug_info0+0x292>
    1f22:	0000                	unimp
    1f24:	0200                	li	tp,0
    1f26:	445d                	sw	s7,8(sp)
    1f28:	0000                	unimp
    1f2a:	1200                	add	tp,tp,zero
    1f2c:	0006                	j	1f4c <.Ldebug_info0+0x29e>
    1f2e:	0000                	unimp
    1f30:	0200                	li	tp,0
    1f32:	565e                	beqz	a2,1ea8 <.Ldebug_info0+0x1fa>
    1f34:	0000                	unimp
    1f36:	1400                	add	s0,s0,zero
    1f38:	0006                	j	1f58 <.Ldebug_info0+0x2aa>
    1f3a:	0000                	unimp
    1f3c:	0200                	li	tp,0
    1f3e:	685f 0000 1800      	0x18000000685f
    1f44:	0006                	j	1f64 <.Ldebug_info0+0x2b6>
    1f46:	0000                	unimp
    1f48:	0200                	li	tp,0
    1f4a:	6860                	0x6860
    1f4c:	0000                	unimp
    1f4e:	2000                	0x2000
    1f50:	0006                	j	1f70 <.Ldebug_info0+0x2c2>
    1f52:	0000                	unimp
    1f54:	0200                	li	tp,0
    1f56:	6861                	bltz	s0,1fee <.Ldebug_info0+0x340>
    1f58:	0000                	unimp
    1f5a:	2800                	srai	a6,a6,0x0
    1f5c:	0006                	j	1f7c <.Ldebug_info0+0x2ce>
    1f5e:	0000                	unimp
    1f60:	0200                	li	tp,0
    1f62:	5662                	beqz	a2,1eba <.Ldebug_info0+0x20c>
    1f64:	0000                	unimp
    1f66:	3000                	0x3000
    1f68:	0006                	j	1f88 <.Ldebug_info0+0x2da>
    1f6a:	0000                	unimp
    1f6c:	0200                	li	tp,0
    1f6e:	00004463          	bltz	zero,1f76 <.Ldebug_info0+0x2c8>
    1f72:	3400                	srai	s0,s0,0x20
    1f74:	0006                	j	1f94 <.Ldebug_info0+0x2e6>
    1f76:	0000                	unimp
    1f78:	0200                	li	tp,0
    1f7a:	4464                	sw	s1,76(s0)
    1f7c:	0000                	unimp
    1f7e:	3600                	srai	a2,a2,0x20
    1f80:	0006                	j	1fa0 <.Ldebug_info0+0x2f2>
    1f82:	0000                	unimp
    1f84:	0200                	li	tp,0
    1f86:	4466                	beqz	s0,1ffe <.Ldebug_info0+0x350>
    1f88:	0000                	unimp
    1f8a:	3800                	srai	a6,a6,0x20
    1f8c:	0006                	j	1fac <.Ldebug_info0+0x2fe>
    1f8e:	0000                	unimp
    1f90:	0200                	li	tp,0
    1f92:	4468                	sw	a0,76(s0)
    1f94:	0000                	unimp
    1f96:	3a00                	srai	s4,s4,0x20
    1f98:	0006                	j	1fb8 <.Ldebug_info0+0x30a>
    1f9a:	0000                	unimp
    1f9c:	0200                	li	tp,0
    1f9e:	4469                	sw	s10,8(sp)
    1fa0:	0000                	unimp
    1fa2:	3c00                	srai	s8,s8,0x20
    1fa4:	0006                	j	1fc4 <.Ldebug_info0+0x316>
    1fa6:	0000                	unimp
    1fa8:	0200                	li	tp,0
    1faa:	446a                	beqz	s0,2004 <.Ldebug_info0+0x356>
    1fac:	0000                	unimp
    1fae:	3e00                	srai	t3,t3,0x20
    1fb0:	0500                	li	a0,0
    1fb2:	0000                	unimp
    1fb4:	0000                	unimp
    1fb6:	0240                	mv	tp,a6
    1fb8:	8872                	li	a6,28
    1fba:	06000003          	lb	zero,96(zero)
    1fbe:	0000                	unimp
    1fc0:	0000                	unimp
    1fc2:	7302                	bnez	a4,1ec2 <.Ldebug_info0+0x214>
    1fc4:	0056                	j	1ff8 <.Ldebug_info0+0x34a>
    1fc6:	0000                	unimp
    1fc8:	0600                	li	a2,0
    1fca:	0000                	unimp
    1fcc:	0000                	unimp
    1fce:	7402                	bnez	s0,1f0e <.Ldebug_info0+0x260>
    1fd0:	0056                	j	2004 <.Ldebug_info0+0x356>
    1fd2:	0000                	unimp
    1fd4:	0604                	mv	a2,ra
    1fd6:	0000                	unimp
    1fd8:	0000                	unimp
    1fda:	7502                	bnez	a0,1f1a <.Ldebug_info0+0x26c>
    1fdc:	0068                	0x68
    1fde:	0000                	unimp
    1fe0:	0608                	mv	a2,sp
    1fe2:	0000                	unimp
    1fe4:	0000                	unimp
    1fe6:	7602                	bnez	a2,1f26 <.Ldebug_info0+0x278>
    1fe8:	0068                	0x68
    1fea:	0000                	unimp
    1fec:	0610                	mv	a2,tp
    1fee:	0000                	unimp
    1ff0:	0000                	unimp
    1ff2:	7702                	bnez	a4,1f32 <.Ldebug_info0+0x284>
    1ff4:	0068                	0x68
    1ff6:	0000                	unimp
    1ff8:	0618                	mv	a2,t1
    1ffa:	0000                	unimp
    1ffc:	0000                	unimp
    1ffe:	7802                	bnez	s0,1f7e <.Ldebug_info0+0x2d0>
    2000:	0068                	0x68
    2002:	0000                	unimp
    2004:	0620                	mv	a2,s0
    2006:	0000                	unimp
    2008:	0000                	unimp
    200a:	7902                	bnez	a0,1f8a <.Ldebug_info0+0x2dc>
    200c:	0056                	j	2040 <.Ldebug_info0+0x392>
    200e:	0000                	unimp
    2010:	0628                	mv	a2,a0
    2012:	0000                	unimp
    2014:	0000                	unimp
    2016:	7a02                	bnez	a2,1f96 <.Ldebug_info0+0x2e8>
    2018:	0056                	j	204c <.Ldebug_info0+0x39e>
    201a:	0000                	unimp
    201c:	062c                	mv	a2,a1
    201e:	0000                	unimp
    2020:	0000                	unimp
    2022:	7b02                	bnez	a4,1fa2 <.Ldebug_info0+0x2f4>
    2024:	0068                	0x68
    2026:	0000                	unimp
    2028:	0630                	mv	a2,a2
    202a:	0000                	unimp
    202c:	0000                	unimp
    202e:	7c02                	bnez	s0,1fee <.Ldebug_info0+0x340>
    2030:	0068                	0x68
    2032:	0000                	unimp
    2034:	0038                	0x38
    2036:	0005                	0x5
    2038:	0000                	unimp
    203a:	3800                	srai	a6,a6,0x20
    203c:	8202                	jr	tp
    203e:	03f5                	slli	t2,t2,0x1d
    2040:	0000                	unimp
    2042:	0006                	j	2062 <.Ldebug_info0+0x3b4>
    2044:	0000                	unimp
    2046:	0200                	li	tp,0
    2048:	00005683          	lhu	a3,0(zero)
    204c:	0000                	unimp
    204e:	0006                	j	206e <.Ldebug_info0+0x3c0>
    2050:	0000                	unimp
    2052:	0200                	li	tp,0
    2054:	5684                	sw	s1,40(a3)
    2056:	0000                	unimp
    2058:	0400                	li	s0,0
    205a:	0006                	j	207a <.Ldebug_info0+0x3cc>
    205c:	0000                	unimp
    205e:	0200                	li	tp,0
    2060:	6886                	bnez	s1,2100 <.Ldebug_info0+0x452>
    2062:	0000                	unimp
    2064:	0800                	li	a6,0
    2066:	0006                	j	2086 <.Ldebug_info0+0x3d8>
    2068:	0000                	unimp
    206a:	0200                	li	tp,0
    206c:	00006887          	0x6887
    2070:	1000                	ebreak
    2072:	0006                	j	2092 <.Ldebug_info0+0x3e4>
    2074:	0000                	unimp
    2076:	0200                	li	tp,0
    2078:	6889                	bltz	s1,20fa <.Ldebug_info0+0x44c>
    207a:	0000                	unimp
    207c:	1800                	add	a6,a6,zero
    207e:	0006                	j	209e <.Ldebug_info0+0x3f0>
    2080:	0000                	unimp
    2082:	0200                	li	tp,0
    2084:	0000688b          	custom0	a7,zero,0,0
    2088:	2000                	0x2000
    208a:	0006                	j	20aa <.Ldebug_info0+0x3fc>
    208c:	0000                	unimp
    208e:	0200                	li	tp,0
    2090:	688d                	bltz	s1,2132 <.Ldebug_info0+0x484>
    2092:	0000                	unimp
    2094:	2800                	srai	a6,a6,0x0
    2096:	0006                	j	20b6 <.Ldebug_info0+0x408>
    2098:	0000                	unimp
    209a:	0200                	li	tp,0
    209c:	6892                	bnez	s1,2120 <.Ldebug_info0+0x472>
    209e:	0000                	unimp
    20a0:	3000                	0x3000
    20a2:	0900                	li	s2,0
    20a4:	0000                	unimp
    20a6:	0000                	unimp
    20a8:	9d01                	addi	s0,a0,-1
    20aa:	041d                	slli	s0,s0,0x7
	...
    20b4:	0000                	unimp
    20b6:	9c01                	addi	s0,s0,-1
    20b8:	041d                	slli	s0,s0,0x7
    20ba:	0000                	unimp
    20bc:	000a                	j	20be <.Ldebug_info0+0x410>
    20be:	0000                	unimp
    20c0:	0100                	li	sp,0
    20c2:	239d                	srli	t2,t2,0x7
    20c4:	0004                	0x4
    20c6:	0200                	li	tp,0
    20c8:	6c91                	bltz	s1,218c <.Ldebug_info0+0x4de>
    20ca:	0b00                	li	s6,0
    20cc:	5c04                	sw	s1,56(s0)
    20ce:	0001                	0x1
    20d0:	0b00                	li	s6,0
    20d2:	9004                	0x9004
    20d4:	0000                	unimp
    20d6:	0c00                	li	s8,0
    20d8:	0000                	unimp
    20da:	0000                	unimp
    20dc:	a401                	addi	s0,sp,512
    20de:	0056                	j	2112 <.Ldebug_info0+0x464>
	...
    20e8:	0000                	unimp
    20ea:	9c01                	addi	s0,s0,-1
    20ec:	045d                	slli	s0,s0,0x17
    20ee:	0000                	unimp
    20f0:	000a                	j	20f2 <.Ldebug_info0+0x444>
    20f2:	0000                	unimp
    20f4:	0100                	li	sp,0
    20f6:	23a4                	srai	t2,t2,0x9
    20f8:	0004                	0x4
    20fa:	0200                	li	tp,0
    20fc:	6c91                	bltz	s1,21c0 <.Ldebug_info0+0x512>
    20fe:	730d                	bltz	a4,2020 <.Ldebug_info0+0x372>
    2100:	0100                	li	sp,0
    2102:	44a4                	sw	s1,72(s1)
    2104:	0000                	unimp
    2106:	0200                	li	tp,0
    2108:	6a91                	bltz	a3,218c <.Ldebug_info0+0x4de>
    210a:	0c00                	li	s8,0
    210c:	0000                	unimp
    210e:	0000                	unimp
    2110:	aa01                	addi	s0,sp,272
    2112:	0056                	j	2146 <.Ldebug_info0+0x498>
	...
    211c:	0000                	unimp
    211e:	9c01                	addi	s0,s0,-1
    2120:	0491                	slli	s1,s1,0x4
    2122:	0000                	unimp
    2124:	000a                	j	2126 <.Ldebug_info0+0x478>
    2126:	0000                	unimp
    2128:	0100                	li	sp,0
    212a:	23aa                	jal	22f4 <.Ldebug_info0+0x646>
    212c:	0004                	0x4
    212e:	0200                	li	tp,0
    2130:	6c91                	bltz	s1,21f4 <.Ldebug_info0+0x546>
    2132:	730d                	bltz	a4,2054 <.Ldebug_info0+0x3a6>
    2134:	0100                	li	sp,0
    2136:	44aa                	beqz	s1,2180 <.Ldebug_info0+0x4d2>
    2138:	0000                	unimp
    213a:	0200                	li	tp,0
    213c:	6a91                	bltz	a3,21c0 <.Ldebug_info0+0x512>
    213e:	0900                	li	s2,0
    2140:	0000                	unimp
    2142:	0000                	unimp
    2144:	be01                	addi	s0,sp,816
    2146:	04b9                	slli	s1,s1,0xe
	...
    2150:	0000                	unimp
    2152:	9c01                	addi	s0,s0,-1
    2154:	04b9                	slli	s1,s1,0xe
    2156:	0000                	unimp
    2158:	000a                	j	215a <.Ldebug_info0+0x4ac>
    215a:	0000                	unimp
    215c:	0100                	li	sp,0
    215e:	23be                	jal	234c <.Ldebug_info0+0x69e>
    2160:	0004                	0x4
    2162:	0200                	li	tp,0
    2164:	6c91                	bltz	s1,2228 <.Ldebug_info0+0x57a>
    2166:	0b00                	li	s6,0
    2168:	e104                	0xe104
    216a:	0001                	0x1
    216c:	0c00                	li	s8,0
    216e:	0000                	unimp
    2170:	0000                	unimp
    2172:	c501                	lw	a0,0(sp)
    2174:	0056                	j	21a8 <.Ldebug_info0+0x4fa>
	...
    217e:	0000                	unimp
    2180:	9c01                	addi	s0,s0,-1
    2182:	04f4                	mv	s1,t4
    2184:	0000                	unimp
    2186:	000a                	j	2188 <.Ldebug_info0+0x4da>
    2188:	0000                	unimp
    218a:	0100                	li	sp,0
    218c:	23c5                	srli	t2,t2,0x11
    218e:	0004                	0x4
    2190:	0200                	li	tp,0
    2192:	6c91                	bltz	s1,2256 <.Ldebug_info0+0x5a8>
    2194:	700d                	bltz	s0,20b6 <.Ldebug_info0+0x408>
    2196:	0068                	0x68
    2198:	c501                	lw	a0,0(sp)
    219a:	0044                	0x44
    219c:	0000                	unimp
    219e:	9102                	li	sp,-32
    21a0:	006a                	j	21ba <.Ldebug_info0+0x50c>
    21a2:	000c                	0xc
    21a4:	0000                	unimp
    21a6:	0100                	li	sp,0
    21a8:	000056cb          	fnmsub.s	fa3,ft0,ft0,ft0,unknown
	...
    21b4:	0100                	li	sp,0
    21b6:	299c                	srai	s3,s3,0x7
    21b8:	0005                	0x5
    21ba:	0a00                	li	s4,0
    21bc:	0000                	unimp
    21be:	0000                	unimp
    21c0:	cb01                	lw	s6,0(sp)
    21c2:	00000423          	sb	zero,8(zero)
    21c6:	9102                	li	sp,-32
    21c8:	0d6c                	mv	s10,s11
    21ca:	6870                	0x6870
    21cc:	0100                	li	sp,0
    21ce:	000044cb          	fnmsub.s	fs1,ft0,ft0,ft0,rmm
    21d2:	0200                	li	tp,0
    21d4:	6a91                	bltz	a3,2258 <.Ldebug_info0+0x5aa>
    21d6:	0c00                	li	s8,0
    21d8:	0000                	unimp
    21da:	0000                	unimp
    21dc:	d101                	lw	sp,32(sp)
    21de:	0056                	j	2212 <.Ldebug_info0+0x564>
	...
    21e8:	0000                	unimp
    21ea:	9c01                	addi	s0,s0,-1
    21ec:	055e                	j	24a2 <.Ldebug_info0+0x7f4>
    21ee:	0000                	unimp
    21f0:	000a                	j	21f2 <.Ldebug_info0+0x544>
    21f2:	0000                	unimp
    21f4:	0100                	li	sp,0
    21f6:	23d1                	srli	t2,t2,0x14
    21f8:	0004                	0x4
    21fa:	0200                	li	tp,0
    21fc:	6c91                	bltz	s1,22c0 <.Ldebug_info0+0x612>
    21fe:	700d                	bltz	s0,2120 <.Ldebug_info0+0x472>
    2200:	0068                	0x68
    2202:	d101                	lw	sp,32(sp)
    2204:	0044                	0x44
    2206:	0000                	unimp
    2208:	9102                	li	sp,-32
    220a:	006a                	j	2224 <.Ldebug_info0+0x576>
    220c:	000c                	0xc
    220e:	0000                	unimp
    2210:	0100                	li	sp,0
    2212:	000056d7          	0x56d7
	...
    221e:	0100                	li	sp,0
    2220:	939c                	0x939c
    2222:	0005                	0x5
    2224:	0a00                	li	s4,0
    2226:	0000                	unimp
    2228:	0000                	unimp
    222a:	d701                	lw	a4,32(sp)
    222c:	00000423          	sb	zero,8(zero)
    2230:	9102                	li	sp,-32
    2232:	0d6c                	mv	s10,s11
    2234:	6870                	0x6870
    2236:	0100                	li	sp,0
    2238:	000044d7          	0x44d7
    223c:	0200                	li	tp,0
    223e:	6a91                	bltz	a3,22c2 <.Ldebug_info0+0x614>
    2240:	0c00                	li	s8,0
    2242:	0000                	unimp
    2244:	0000                	unimp
    2246:	dd01                	lw	s10,32(sp)
    2248:	0056                	j	227c <.Ldebug_info0+0x5ce>
	...
    2252:	0000                	unimp
    2254:	9c01                	addi	s0,s0,-1
    2256:	05c8                	mv	a1,s2
    2258:	0000                	unimp
    225a:	000a                	j	225c <.Ldebug_info0+0x5ae>
    225c:	0000                	unimp
    225e:	0100                	li	sp,0
    2260:	23dd                	srli	t2,t2,0x17
    2262:	0004                	0x4
    2264:	0200                	li	tp,0
    2266:	6c91                	bltz	s1,232a <.Ldebug_info0+0x67c>
    2268:	700d                	bltz	s0,218a <.Ldebug_info0+0x4dc>
    226a:	0068                	0x68
    226c:	dd01                	lw	s10,32(sp)
    226e:	0044                	0x44
    2270:	0000                	unimp
    2272:	9102                	li	sp,-32
    2274:	006a                	j	228e <.Ldebug_info0+0x5e0>
    2276:	000c                	0xc
    2278:	0000                	unimp
    227a:	0100                	li	sp,0
    227c:	000056e3          	blez	zero,2a88 <.Ldebug_info0+0xdda>
	...
    2288:	0100                	li	sp,0
    228a:	fd9c                	0xfd9c
    228c:	0005                	0x5
    228e:	0a00                	li	s4,0
    2290:	0000                	unimp
    2292:	0000                	unimp
    2294:	e301                	bgez	a4,2294 <.Ldebug_info0+0x5e6>
    2296:	00000423          	sb	zero,8(zero)
    229a:	9102                	li	sp,-32
    229c:	0d6c                	mv	s10,s11
    229e:	6870                	0x6870
    22a0:	0100                	li	sp,0
    22a2:	000044e3          	bltz	zero,2aaa <.Ldebug_info0+0xdfc>
    22a6:	0200                	li	tp,0
    22a8:	6a91                	bltz	a3,232c <.Ldebug_info0+0x67e>
    22aa:	0c00                	li	s8,0
    22ac:	0000                	unimp
    22ae:	0000                	unimp
    22b0:	e901                	bgez	a0,2330 <.Ldebug_info0+0x682>
    22b2:	0056                	j	22e6 <.Ldebug_info0+0x638>
	...
    22bc:	0000                	unimp
    22be:	9c01                	addi	s0,s0,-1
    22c0:	0632                	j	25cc <.Ldebug_info0+0x91e>
    22c2:	0000                	unimp
    22c4:	000a                	j	22c6 <.Ldebug_info0+0x618>
    22c6:	0000                	unimp
    22c8:	0100                	li	sp,0
    22ca:	23e9                	srli	t2,t2,0x1a
    22cc:	0004                	0x4
    22ce:	0200                	li	tp,0
    22d0:	6c91                	bltz	s1,2394 <.Ldebug_info0+0x6e6>
    22d2:	700d                	bltz	s0,21f4 <.Ldebug_info0+0x546>
    22d4:	0068                	0x68
    22d6:	e901                	bgez	a0,2356 <.Ldebug_info0+0x6a8>
    22d8:	0044                	0x44
    22da:	0000                	unimp
    22dc:	9102                	li	sp,-32
    22de:	006a                	j	22f8 <.Ldebug_info0+0x64a>
    22e0:	0009                	0x9
    22e2:	0000                	unimp
    22e4:	0200                	li	tp,0
    22e6:	5aa8                	sw	a0,112(a3)
    22e8:	0006                	j	2308 <.Ldebug_info0+0x65a>
	...
    22f2:	0100                	li	sp,0
    22f4:	5a9c                	sw	a5,48(a3)
    22f6:	0006                	j	2316 <.Ldebug_info0+0x668>
    22f8:	0a00                	li	s4,0
    22fa:	0000                	unimp
    22fc:	0000                	unimp
    22fe:	a802                	jalr	a6
    2300:	0660                	mv	a2,s8
    2302:	0000                	unimp
    2304:	9102                	li	sp,-32
    2306:	006c                	0x6c
    2308:	0303040b          	custom0	8,6,16,1
    230c:	0000                	unimp
    230e:	024e040b          	custom0	8,28,4,1
    2312:	0000                	unimp
    2314:	000c                	0xc
    2316:	0000                	unimp
    2318:	0200                	li	tp,0
    231a:	000056af          	0x56af
	...
    2326:	0100                	li	sp,0
    2328:	9a9c                	0x9a9c
    232a:	0006                	j	234a <.Ldebug_info0+0x69c>
    232c:	0a00                	li	s4,0
    232e:	0000                	unimp
    2330:	0000                	unimp
    2332:	af02                	jalr	t5
    2334:	0660                	mv	a2,s8
    2336:	0000                	unimp
    2338:	9102                	li	sp,-32
    233a:	0d6c                	mv	s10,s11
    233c:	af020073          	0xaf020073
    2340:	0044                	0x44
    2342:	0000                	unimp
    2344:	9102                	li	sp,-32
    2346:	006a                	j	2360 <.Ldebug_info0+0x6b2>
    2348:	000c                	0xc
    234a:	0000                	unimp
    234c:	0200                	li	tp,0
    234e:	56b5                	sw	a3,108(sp)
	...
    2358:	0000                	unimp
    235a:	0100                	li	sp,0
    235c:	ce9c                	lw	a5,24(a3)
    235e:	0006                	j	237e <.Ldebug_info0+0x6d0>
    2360:	0a00                	li	s4,0
    2362:	0000                	unimp
    2364:	0000                	unimp
    2366:	b502                	lui	a0,0xfffe0
    2368:	0660                	mv	a2,s8
    236a:	0000                	unimp
    236c:	9102                	li	sp,-32
    236e:	0d6c                	mv	s10,s11
    2370:	b5020073          	0xb5020073
    2374:	0044                	0x44
    2376:	0000                	unimp
    2378:	9102                	li	sp,-32
    237a:	006a                	j	2394 <.Ldebug_info0+0x6e6>
    237c:	0009                	0x9
    237e:	0000                	unimp
    2380:	0200                	li	tp,0
    2382:	0006f6cb          	fnmsub.s	fa3,fa3,ft0,ft0
	...
    238e:	0100                	li	sp,0
    2390:	f69c                	0xf69c
    2392:	0006                	j	23b2 <.Ldebug_info0+0x704>
    2394:	0a00                	li	s4,0
    2396:	0000                	unimp
    2398:	0000                	unimp
    239a:	cb02                	addi	s6,s6,0
    239c:	0660                	mv	a2,s8
    239e:	0000                	unimp
    23a0:	9102                	li	sp,-32
    23a2:	006c                	0x6c
    23a4:	0388040b          	custom0	8,16,24,1
    23a8:	0000                	unimp
    23aa:	000c                	0xc
    23ac:	0000                	unimp
    23ae:	0200                	li	tp,0
    23b0:	56d2                	beqz	a3,2304 <.Ldebug_info0+0x656>
	...
    23ba:	0000                	unimp
    23bc:	0100                	li	sp,0
    23be:	319c                	srai	gp,gp,0x27
    23c0:	0a000007          	0xa000007
    23c4:	0000                	unimp
    23c6:	0000                	unimp
    23c8:	d202                	addi	tp,tp,-32
    23ca:	0660                	mv	a2,s8
    23cc:	0000                	unimp
    23ce:	9102                	li	sp,-32
    23d0:	0d6c                	mv	s10,s11
    23d2:	6870                	0x6870
    23d4:	0200                	li	tp,0
    23d6:	44d2                	beqz	s1,242a <.Ldebug_info0+0x77c>
    23d8:	0000                	unimp
    23da:	0200                	li	tp,0
    23dc:	6a91                	bltz	a3,2460 <.Ldebug_info0+0x7b2>
    23de:	0c00                	li	s8,0
    23e0:	0000                	unimp
    23e2:	0000                	unimp
    23e4:	d802                	addi	a6,a6,-32
    23e6:	0056                	j	241a <.Ldebug_info0+0x76c>
	...
    23f0:	0000                	unimp
    23f2:	9c01                	addi	s0,s0,-1
    23f4:	0766                	j	27ac <.Ldebug_info0+0xafe>
    23f6:	0000                	unimp
    23f8:	000a                	j	23fa <.Ldebug_info0+0x74c>
    23fa:	0000                	unimp
    23fc:	0200                	li	tp,0
    23fe:	60d8                	0x60d8
    2400:	0006                	j	2420 <.Ldebug_info0+0x772>
    2402:	0200                	li	tp,0
    2404:	6c91                	bltz	s1,24c8 <.Ldebug_info0+0x81a>
    2406:	700d                	bltz	s0,2328 <.Ldebug_info0+0x67a>
    2408:	0068                	0x68
    240a:	d802                	addi	a6,a6,-32
    240c:	0044                	0x44
    240e:	0000                	unimp
    2410:	9102                	li	sp,-32
    2412:	006a                	j	242c <.Ldebug_info0+0x77e>
    2414:	000c                	0xc
    2416:	0000                	unimp
    2418:	0200                	li	tp,0
    241a:	68de                	bnez	s1,24d0 <.Ldebug_info0+0x822>
	...
    2424:	0000                	unimp
    2426:	0100                	li	sp,0
    2428:	9b9c                	0x9b9c
    242a:	0a000007          	0xa000007
    242e:	0000                	unimp
    2430:	0000                	unimp
    2432:	de02                	addi	t3,t3,-32
    2434:	0660                	mv	a2,s8
    2436:	0000                	unimp
    2438:	9102                	li	sp,-32
    243a:	0d6c                	mv	s10,s11
    243c:	6870                	0x6870
    243e:	0200                	li	tp,0
    2440:	44de                	beqz	s1,24b6 <.Ldebug_info0+0x808>
    2442:	0000                	unimp
    2444:	0200                	li	tp,0
    2446:	6a91                	bltz	a3,24ca <.Ldebug_info0+0x81c>
    2448:	0c00                	li	s8,0
    244a:	0000                	unimp
    244c:	0000                	unimp
    244e:	e402                	andi	s0,s0,0
    2450:	0068                	0x68
	...
    245a:	0000                	unimp
    245c:	9c01                	addi	s0,s0,-1
    245e:	07d0                	mv	a5,s4
    2460:	0000                	unimp
    2462:	000a                	j	2464 <.Ldebug_info0+0x7b6>
    2464:	0000                	unimp
    2466:	0200                	li	tp,0
    2468:	60e4                	0x60e4
    246a:	0006                	j	248a <.Ldebug_info0+0x7dc>
    246c:	0200                	li	tp,0
    246e:	6c91                	bltz	s1,2532 <.Ldebug_info0+0x884>
    2470:	700d                	bltz	s0,2392 <.Ldebug_info0+0x6e4>
    2472:	0068                	0x68
    2474:	e402                	andi	s0,s0,0
    2476:	0044                	0x44
    2478:	0000                	unimp
    247a:	9102                	li	sp,-32
    247c:	006a                	j	2496 <.Ldebug_info0+0x7e8>
    247e:	000c                	0xc
    2480:	0000                	unimp
    2482:	0200                	li	tp,0
    2484:	68ea                	bnez	s1,251e <.Ldebug_info0+0x870>
	...
    248e:	0000                	unimp
    2490:	0100                	li	sp,0
    2492:	059c                	mv	a1,t2
    2494:	0008                	0x8
    2496:	0a00                	li	s4,0
    2498:	0000                	unimp
    249a:	0000                	unimp
    249c:	ea02                	andi	s4,s4,0
    249e:	0660                	mv	a2,s8
    24a0:	0000                	unimp
    24a2:	9102                	li	sp,-32
    24a4:	0d6c                	mv	s10,s11
    24a6:	6870                	0x6870
    24a8:	0200                	li	tp,0
    24aa:	44ea                	beqz	s1,2504 <.Ldebug_info0+0x856>
    24ac:	0000                	unimp
    24ae:	0200                	li	tp,0
    24b0:	6a91                	bltz	a3,2534 <.Ldebug_info0+0x886>
    24b2:	0c00                	li	s8,0
    24b4:	0000                	unimp
    24b6:	0000                	unimp
    24b8:	f002                	0xf002
    24ba:	0068                	0x68
	...
    24c4:	0000                	unimp
    24c6:	9c01                	addi	s0,s0,-1
    24c8:	083a                	j	28d6 <.Ldebug_info0+0xc28>
    24ca:	0000                	unimp
    24cc:	000a                	j	24ce <.Ldebug_info0+0x820>
    24ce:	0000                	unimp
    24d0:	0200                	li	tp,0
    24d2:	60f0                	0x60f0
    24d4:	0006                	j	24f4 <.Ldebug_info0+0x846>
    24d6:	0200                	li	tp,0
    24d8:	6c91                	bltz	s1,259c <.Ldebug_info0+0x8ee>
    24da:	700d                	bltz	s0,23fc <.Ldebug_info0+0x74e>
    24dc:	0068                	0x68
    24de:	f002                	0xf002
    24e0:	0044                	0x44
    24e2:	0000                	unimp
    24e4:	9102                	li	sp,-32
    24e6:	006a                	j	2500 <.Ldebug_info0+0x852>
    24e8:	000c                	0xc
    24ea:	0000                	unimp
    24ec:	0200                	li	tp,0
    24ee:	68f6                	bnez	s1,25aa <.Ldebug_info0+0x8fc>
	...
    24f8:	0000                	unimp
    24fa:	0100                	li	sp,0
    24fc:	6f9c                	sll	a5,a5,a5
    24fe:	0008                	0x8
    2500:	0a00                	li	s4,0
    2502:	0000                	unimp
    2504:	0000                	unimp
    2506:	f602                	andi	a2,a2,-32
    2508:	0660                	mv	a2,s8
    250a:	0000                	unimp
    250c:	9102                	li	sp,-32
    250e:	0d6c                	mv	s10,s11
    2510:	6870                	0x6870
    2512:	0200                	li	tp,0
    2514:	44f6                	beqz	s1,2590 <.Ldebug_info0+0x8e2>
    2516:	0000                	unimp
    2518:	0200                	li	tp,0
    251a:	6a91                	bltz	a3,259e <.Ldebug_info0+0x8f0>
    251c:	0e00                	li	t3,0
    251e:	0000                	unimp
    2520:	0000                	unimp
    2522:	002f5d03          	lhu	s10,2(t5)
	...
    252e:	0000                	unimp
    2530:	9c01                	addi	s0,s0,-1
    2532:	00000897          	auipc	a7,0x0
    2536:	000a                	j	2538 <.Ldebug_info0+0x88a>
    2538:	0000                	unimp
    253a:	0300                	li	t1,0
    253c:	975d                	ori	a5,a4,-3
    253e:	0008                	0x8
    2540:	0200                	li	tp,0
    2542:	6c91                	bltz	s1,2606 <.Ldebug_info0+0x958>
    2544:	0f00                	li	t5,0
    2546:	0e04                	mv	t3,ra
    2548:	0000                	unimp
    254a:	0000                	unimp
    254c:	00446603          	0x446603
	...
    2558:	0000                	unimp
    255a:	9c01                	addi	s0,s0,-1
    255c:	08c1                	slli	a7,a7,0x10
    255e:	0000                	unimp
    2560:	000a                	j	2562 <.Ldebug_info0+0x8b4>
    2562:	0000                	unimp
    2564:	0300                	li	t1,0
    2566:	9766                	li	a4,-7
    2568:	0008                	0x8
    256a:	0200                	li	tp,0
    256c:	6c91                	bltz	s1,2630 <.Ldebug_info0+0x982>
    256e:	0e00                	li	t3,0
    2570:	0000                	unimp
    2572:	0000                	unimp
    2574:	00566e03          	0x566e03
	...
    2580:	0000                	unimp
    2582:	9c01                	addi	s0,s0,-1
    2584:	08f6                	j	2a00 <.Ldebug_info0+0xd52>
    2586:	0000                	unimp
    2588:	000a                	j	258a <.Ldebug_info0+0x8dc>
    258a:	0000                	unimp
    258c:	0300                	li	t1,0
    258e:	976e                	li	a4,-5
    2590:	0008                	0x8
    2592:	0200                	li	tp,0
    2594:	6c91                	bltz	s1,2658 <.Ldebug_info0+0x9aa>
    2596:	700d                	bltz	s0,24b8 <.Ldebug_info0+0x80a>
    2598:	0068                	0x68
    259a:	00446e03          	0x446e03
    259e:	0000                	unimp
    25a0:	9102                	li	sp,-32
    25a2:	006a                	j	25bc <.Ldebug_info0+0x90e>
    25a4:	000e                	j	25c6 <.Ldebug_info0+0x918>
    25a6:	0000                	unimp
    25a8:	0300                	li	t1,0
    25aa:	5676                	beqz	a2,2526 <.Ldebug_info0+0x878>
	...
    25b4:	0000                	unimp
    25b6:	0100                	li	sp,0
    25b8:	2b9c                	srai	s7,s7,0x7
    25ba:	0009                	0x9
    25bc:	0a00                	li	s4,0
    25be:	0000                	unimp
    25c0:	0000                	unimp
    25c2:	08977603          	0x8977603
    25c6:	0000                	unimp
    25c8:	9102                	li	sp,-32
    25ca:	0d6c                	mv	s10,s11
    25cc:	6870                	0x6870
    25ce:	0300                	li	t1,0
    25d0:	4476                	beqz	s0,264c <.Ldebug_info0+0x99e>
    25d2:	0000                	unimp
    25d4:	0200                	li	tp,0
    25d6:	6a91                	bltz	a3,265a <.Ldebug_info0+0x9ac>
    25d8:	0e00                	li	t3,0
    25da:	0000                	unimp
    25dc:	0000                	unimp
    25de:	00687e03          	0x687e03
	...
    25ea:	0000                	unimp
    25ec:	9c01                	addi	s0,s0,-1
    25ee:	0960                	mv	s2,s8
    25f0:	0000                	unimp
    25f2:	000a                	j	25f4 <.Ldebug_info0+0x946>
    25f4:	0000                	unimp
    25f6:	0300                	li	t1,0
    25f8:	977e                	li	a4,-1
    25fa:	0008                	0x8
    25fc:	0200                	li	tp,0
    25fe:	6c91                	bltz	s1,26c2 <.Ldebug_info0+0xa14>
    2600:	700d                	bltz	s0,2522 <.Ldebug_info0+0x874>
    2602:	0068                	0x68
    2604:	00447e03          	0x447e03
    2608:	0000                	unimp
    260a:	9102                	li	sp,-32
    260c:	006a                	j	2626 <.Ldebug_info0+0x978>
    260e:	000e                	j	2630 <.Ldebug_info0+0x982>
    2610:	0000                	unimp
    2612:	0300                	li	t1,0
    2614:	6886                	bnez	s1,26b4 <.Ldebug_info0+0xa06>
	...
    261e:	0000                	unimp
    2620:	0100                	li	sp,0
    2622:	959c                	0x959c
    2624:	0009                	0x9
    2626:	0a00                	li	s4,0
    2628:	0000                	unimp
    262a:	0000                	unimp
    262c:	08978603          	lb	a2,137(a5)
    2630:	0000                	unimp
    2632:	9102                	li	sp,-32
    2634:	0d6c                	mv	s10,s11
    2636:	6870                	0x6870
    2638:	0300                	li	t1,0
    263a:	4486                	beqz	s1,269a <.Ldebug_info0+0x9ec>
    263c:	0000                	unimp
    263e:	0200                	li	tp,0
    2640:	6a91                	bltz	a3,26c4 <.Ldebug_info0+0xa16>
    2642:	0e00                	li	t3,0
    2644:	0000                	unimp
    2646:	0000                	unimp
    2648:	00688e03          	lb	t3,6(a7) # 2538 <.Ldebug_info0+0x88a>
	...
    2654:	0000                	unimp
    2656:	9c01                	addi	s0,s0,-1
    2658:	09ca                	j	2b2a <.Ldebug_info0+0xe7c>
    265a:	0000                	unimp
    265c:	000a                	j	265e <.Ldebug_info0+0x9b0>
    265e:	0000                	unimp
    2660:	0300                	li	t1,0
    2662:	978e                	li	a5,-29
    2664:	0008                	0x8
    2666:	0200                	li	tp,0
    2668:	6c91                	bltz	s1,272c <.Ldebug_info0+0xa7e>
    266a:	700d                	bltz	s0,258c <.Ldebug_info0+0x8de>
    266c:	0068                	0x68
    266e:	00448e03          	lb	t3,4(s1)
    2672:	0000                	unimp
    2674:	9102                	li	sp,-32
    2676:	006a                	j	2690 <.Ldebug_info0+0x9e2>
    2678:	000e                	j	269a <.Ldebug_info0+0x9ec>
    267a:	0000                	unimp
    267c:	0300                	li	t1,0
    267e:	6896                	bnez	s1,2722 <.Ldebug_info0+0xa74>
	...
    2688:	0000                	unimp
    268a:	0100                	li	sp,0
    268c:	ff9c                	0xff9c
    268e:	0009                	0x9
    2690:	0a00                	li	s4,0
    2692:	0000                	unimp
    2694:	0000                	unimp
    2696:	08979603          	lh	a2,137(a5)
    269a:	0000                	unimp
    269c:	9102                	li	sp,-32
    269e:	0d6c                	mv	s10,s11
    26a0:	6870                	0x6870
    26a2:	0300                	li	t1,0
    26a4:	4496                	beqz	s1,2708 <.Ldebug_info0+0xa5a>
    26a6:	0000                	unimp
    26a8:	0200                	li	tp,0
    26aa:	6a91                	bltz	a3,272e <.Ldebug_info0+0xa80>
    26ac:	0e00                	li	t3,0
    26ae:	0000                	unimp
    26b0:	0000                	unimp
    26b2:	00689e03          	lh	t3,6(a7)
	...
    26be:	0000                	unimp
    26c0:	9c01                	addi	s0,s0,-1
    26c2:	0a34                	mv	s4,a3
    26c4:	0000                	unimp
    26c6:	000a                	j	26c8 <.Ldebug_info0+0xa1a>
    26c8:	0000                	unimp
    26ca:	0300                	li	t1,0
    26cc:	979e                	li	a5,-25
    26ce:	0008                	0x8
    26d0:	0200                	li	tp,0
    26d2:	6c91                	bltz	s1,2796 <.Ldebug_info0+0xae8>
    26d4:	700d                	bltz	s0,25f6 <.Ldebug_info0+0x948>
    26d6:	0068                	0x68
    26d8:	00449e03          	lh	t3,4(s1)
    26dc:	0000                	unimp
    26de:	9102                	li	sp,-32
    26e0:	006a                	j	26fa <.Ldebug_info0+0xa4c>
    26e2:	000e                	j	2704 <.Ldebug_info0+0xa56>
    26e4:	0000                	unimp
    26e6:	0300                	li	t1,0
    26e8:	5ca6                	beqz	s1,26d0 <.Ldebug_info0+0xa22>
    26ea:	000a                	j	26ec <.Ldebug_info0+0xa3e>
	...
    26f4:	0100                	li	sp,0
    26f6:	5c9c                	sw	a5,56(s1)
    26f8:	000a                	j	26fa <.Ldebug_info0+0xa4c>
    26fa:	0a00                	li	s4,0
    26fc:	0000                	unimp
    26fe:	0000                	unimp
    2700:	0897a603          	lw	a2,137(a5)
    2704:	0000                	unimp
    2706:	9102                	li	sp,-32
    2708:	006c                	0x6c
    270a:	0a62040b          	custom0	8,4,6,5
    270e:	0000                	unimp
    2710:	0102                	j	2790 <.Ldebug_info0+0xae2>
    2712:	0008                	0x8
    2714:	0000                	unimp
    2716:	0e00                	li	t3,0
    2718:	0000                	unimp
    271a:	0000                	unimp
    271c:	0a5cae03          	lw	t3,165(s9)
	...
    2728:	0000                	unimp
    272a:	9c01                	addi	s0,s0,-1
    272c:	0a9f 0000 000a      	0xa00000a9f
    2732:	0000                	unimp
    2734:	0300                	li	t1,0
    2736:	97ae                	li	a5,-21
    2738:	0008                	0x8
    273a:	0200                	li	tp,0
    273c:	6c91                	bltz	s1,2800 <.Ldebug_info0+0xb52>
    273e:	000a                	j	2740 <.Ldebug_info0+0xa92>
    2740:	0000                	unimp
    2742:	0300                	li	t1,0
    2744:	2fae                	jal	2f2e <.Ldebug_info0+0x3a1>
    2746:	0000                	unimp
    2748:	0200                	li	tp,0
    274a:	6891                	bltz	s1,27ce <.Ldebug_info0+0xb20>
    274c:	0e00                	li	t3,0
    274e:	0000                	unimp
    2750:	0000                	unimp
    2752:	0061b703          	0x61b703
	...
    275e:	0000                	unimp
    2760:	9c01                	addi	s0,s0,-1
    2762:	00000ac7          	fmsub.s	fs5,ft0,ft0,ft0,rne
    2766:	000a                	j	2768 <.Ldebug_info0+0xaba>
    2768:	0000                	unimp
    276a:	0300                	li	t1,0
    276c:	000897b7          	lui	a5,0x89
    2770:	0200                	li	tp,0
    2772:	6c91                	bltz	s1,2836 <.Ldebug_info0+0xb88>
    2774:	0e00                	li	t3,0
    2776:	0000                	unimp
    2778:	0000                	unimp
    277a:	0a5cbf03          	0xa5cbf03
	...
    2786:	0000                	unimp
    2788:	9c01                	addi	s0,s0,-1
    278a:	00000afb          	custom3	21,0,0,0
    278e:	000a                	j	2790 <.Ldebug_info0+0xae2>
    2790:	0000                	unimp
    2792:	0300                	li	t1,0
    2794:	000897bf 6c910200 	0x6c910200000897bf
    279c:	690d                	bltz	a0,283e <.Ldebug_info0+0xb90>
    279e:	0300                	li	t1,0
    27a0:	00002fbf 68910200 	0x6891020000002fbf
    27a8:	0e00                	li	t3,0
    27aa:	0000                	unimp
    27ac:	0000                	unimp
    27ae:	0056c703          	lbu	a4,5(a3)
	...
    27ba:	0000                	unimp
    27bc:	9c01                	addi	s0,s0,-1
    27be:	00000b2f          	0xb2f
    27c2:	000a                	j	27c4 <.Ldebug_info0+0xb16>
    27c4:	0000                	unimp
    27c6:	0300                	li	t1,0
    27c8:	000897c7          	fmsub.s	fa5,fa7,ft0,ft0,rtz
    27cc:	0200                	li	tp,0
    27ce:	6c91                	bltz	s1,2892 <.Ldebug_info0+0xbe4>
    27d0:	690d                	bltz	a0,2872 <.Ldebug_info0+0xbc4>
    27d2:	0300                	li	t1,0
    27d4:	00002fc7          	fmsub.s	ft11,ft0,ft0,ft0,rdn
    27d8:	0200                	li	tp,0
    27da:	6891                	bltz	s1,285e <.Ldebug_info0+0xbb0>
    27dc:	0e00                	li	t3,0
    27de:	0000                	unimp
    27e0:	0000                	unimp
    27e2:	0056cf03          	lbu	t5,5(a3)
	...
    27ee:	0000                	unimp
    27f0:	9c01                	addi	s0,s0,-1
    27f2:	00000b63          	beqz	zero,2808 <.Ldebug_info0+0xb5a>
    27f6:	000a                	j	27f8 <.Ldebug_info0+0xb4a>
    27f8:	0000                	unimp
    27fa:	0300                	li	t1,0
    27fc:	000897cf          	fnmadd.s	fa5,fa7,ft0,ft0,rtz
    2800:	0200                	li	tp,0
    2802:	6c91                	bltz	s1,28c6 <.Ldebug_info0+0xc18>
    2804:	690d                	bltz	a0,28a6 <.Ldebug_info0+0xbf8>
    2806:	0300                	li	t1,0
    2808:	00002fcf          	fnmadd.s	ft11,ft0,ft0,ft0,rdn
    280c:	0200                	li	tp,0
    280e:	6891                	bltz	s1,2892 <.Ldebug_info0+0xbe4>
    2810:	0e00                	li	t3,0
    2812:	0000                	unimp
    2814:	0000                	unimp
    2816:	0068d703          	lhu	a4,6(a7)
	...
    2822:	0000                	unimp
    2824:	9c01                	addi	s0,s0,-1
    2826:	00000b97          	auipc	s7,0x0
    282a:	000a                	j	282c <.Ldebug_info0+0xb7e>
    282c:	0000                	unimp
    282e:	0300                	li	t1,0
    2830:	000897d7          	0x897d7
    2834:	0200                	li	tp,0
    2836:	6c91                	bltz	s1,28fa <.Ldebug_info0+0xc4c>
    2838:	690d                	bltz	a0,28da <.Ldebug_info0+0xc2c>
    283a:	0300                	li	t1,0
    283c:	00002fd7          	0x2fd7
    2840:	0200                	li	tp,0
    2842:	6891                	bltz	s1,28c6 <.Ldebug_info0+0xc18>
    2844:	0e00                	li	t3,0
    2846:	0000                	unimp
    2848:	0000                	unimp
    284a:	0068df03          	lhu	t5,6(a7)
	...
    2856:	0000                	unimp
    2858:	9c01                	addi	s0,s0,-1
    285a:	00000bcb          	fnmsub.s	fs7,ft0,ft0,ft0,rne
    285e:	000a                	j	2860 <.Ldebug_info0+0xbb2>
    2860:	0000                	unimp
    2862:	0300                	li	t1,0
    2864:	97df 0008 0200      	0x200000897df
    286a:	6c91                	bltz	s1,292e <.Ldebug_info0+0xc80>
    286c:	690d                	bltz	a0,290e <.Ldebug_info0+0xc60>
    286e:	0300                	li	t1,0
    2870:	2fdf 0000 0200      	0x20000002fdf
    2876:	6891                	bltz	s1,28fa <.Ldebug_info0+0xc4c>
    2878:	0e00                	li	t3,0
    287a:	0000                	unimp
    287c:	0000                	unimp
    287e:	0897e803          	0x897e803
	...
    288a:	0000                	unimp
    288c:	9c01                	addi	s0,s0,-1
    288e:	0bff                	0xbff
    2890:	0000                	unimp
    2892:	000a                	j	2894 <.Ldebug_info0+0xbe6>
    2894:	0000                	unimp
    2896:	0300                	li	t1,0
    2898:	97e8                	0x97e8
    289a:	0008                	0x8
    289c:	0200                	li	tp,0
    289e:	6c91                	bltz	s1,2962 <.Ldebug_info0+0xcb4>
    28a0:	690d                	bltz	a0,2942 <.Ldebug_info0+0xc94>
    28a2:	0300                	li	t1,0
    28a4:	2fe8                	srai	t6,t6,0x1a
    28a6:	0000                	unimp
    28a8:	0200                	li	tp,0
    28aa:	6891                	bltz	s1,292e <.Ldebug_info0+0xc80>
    28ac:	0e00                	li	t3,0
    28ae:	0000                	unimp
    28b0:	0000                	unimp
    28b2:	0897f003          	0x897f003
	...
    28be:	0000                	unimp
    28c0:	9c01                	addi	s0,s0,-1
    28c2:	0c35                	slli	s8,s8,0xd
    28c4:	0000                	unimp
    28c6:	000a                	j	28c8 <.Ldebug_info0+0xc1a>
    28c8:	0000                	unimp
    28ca:	0300                	li	t1,0
    28cc:	97f0                	0x97f0
    28ce:	0008                	0x8
    28d0:	0200                	li	tp,0
    28d2:	6c91                	bltz	s1,2996 <.Ldebug_info0+0xce8>
    28d4:	000a                	j	28d6 <.Ldebug_info0+0xc28>
    28d6:	0000                	unimp
    28d8:	0300                	li	t1,0
    28da:	5cf0                	sw	a2,124(s1)
    28dc:	000a                	j	28de <.Ldebug_info0+0xc30>
    28de:	0200                	li	tp,0
    28e0:	6891                	bltz	s1,2964 <.Ldebug_info0+0xcb6>
    28e2:	1000                	ebreak
    28e4:	0000                	unimp
    28e6:	0000                	unimp
    28e8:	0000f803          	0xf803
    28ec:	0000                	unimp
    28ee:	0000                	unimp
    28f0:	0000                	unimp
    28f2:	9c01                	addi	s0,s0,-1
    28f4:	0cac                	mv	s9,a1
    28f6:	0000                	unimp
    28f8:	000a                	j	28fa <.Ldebug_info0+0xc4c>
    28fa:	0000                	unimp
    28fc:	0300                	li	t1,0
    28fe:	97f8                	0x97f8
    2900:	0008                	0x8
    2902:	0200                	li	tp,0
    2904:	6c91                	bltz	s1,29c8 <.Ldebug_info0+0xd1a>
    2906:	700d                	bltz	s0,2828 <.Ldebug_info0+0xb7a>
    2908:	0068                	0x68
    290a:	0044f803          	0x44f803
    290e:	0000                	unimp
    2910:	9102                	li	sp,-32
    2912:	0a6a                	j	2e2c <.Ldebug_info0+0x29f>
    2914:	0000                	unimp
    2916:	0000                	unimp
    2918:	0cacf803          	0xcacf803
    291c:	0000                	unimp
    291e:	9102                	li	sp,-32
    2920:	0a64                	mv	s4,s9
    2922:	0000                	unimp
    2924:	0000                	unimp
    2926:	0cacf903          	0xcacf903
    292a:	0000                	unimp
    292c:	9102                	li	sp,-32
    292e:	0a60                	mv	s4,s8
    2930:	0000                	unimp
    2932:	0000                	unimp
    2934:	0cacf903          	0xcacf903
    2938:	0000                	unimp
    293a:	9102                	li	sp,-32
    293c:	0a5c                	mv	s4,s7
    293e:	0000                	unimp
    2940:	0000                	unimp
    2942:	0cacf903          	0xcacf903
    2946:	0000                	unimp
    2948:	9102                	li	sp,-32
    294a:	0a58                	mv	s4,s6
    294c:	0000                	unimp
    294e:	0000                	unimp
    2950:	0cacfa03          	0xcacfa03
    2954:	0000                	unimp
    2956:	9102                	li	sp,-32
    2958:	0054                	0x54
    295a:	0068040b          	custom0	8,16,6,0
    295e:	0000                	unimp
    2960:	0011                	0x11
    2962:	0000                	unimp
    2964:	0300                	li	t1,0
    2966:	0104                	mv	sp,ra
    2968:	0068                	0x68
	...
    2972:	0000                	unimp
    2974:	9c01                	addi	s0,s0,-1
    2976:	0cdc                	mv	s9,s7
    2978:	0000                	unimp
    297a:	0012                	j	297e <.Ldebug_info0+0xcd0>
    297c:	0000                	unimp
    297e:	0300                	li	t1,0
    2980:	0104                	mv	sp,ra
    2982:	00000897          	auipc	a7,0x0
    2986:	9102                	li	sp,-32
    2988:	006c                	0x6c
    298a:	0011                	0x11
    298c:	0000                	unimp
    298e:	0300                	li	t1,0
    2990:	010c                	mv	sp,gp
    2992:	0000002f          	0x2f
	...
    299e:	9c01                	addi	s0,s0,-1
    29a0:	0d8a                	j	3062 <.Ldebug_info0+0x4d5>
    29a2:	0000                	unimp
    29a4:	0012                	j	29a8 <.Ldebug_info0+0xcfa>
    29a6:	0000                	unimp
    29a8:	0300                	li	t1,0
    29aa:	010c                	mv	sp,gp
    29ac:	00000897          	auipc	a7,0x0
    29b0:	7fbc9103          	lh	sp,2043(s9)
    29b4:	0012                	j	29b8 <.Ldebug_info0+0xd0a>
    29b6:	0000                	unimp
    29b8:	0300                	li	t1,0
    29ba:	010c                	mv	sp,gp
    29bc:	0000002f          	0x2f
    29c0:	7fb89103          	lh	sp,2043(a7) # 31a7 <.Ldebug_info0+0x61a>
    29c4:	6e696d13          	ori	s10,s2,1766
    29c8:	0300                	li	t1,0
    29ca:	010c                	mv	sp,gp
    29cc:	0cac                	mv	s9,a1
    29ce:	0000                	unimp
    29d0:	7fb49103          	lh	sp,2043(s1)
    29d4:	78616d13          	ori	s10,sp,1926
    29d8:	0300                	li	t1,0
    29da:	010c                	mv	sp,gp
    29dc:	0cac                	mv	s9,a1
    29de:	0000                	unimp
    29e0:	7fb09103          	lh	sp,2043(ra)
    29e4:	0014                	0x14
    29e6:	0000                	unimp
    29e8:	0300                	li	t1,0
    29ea:	010e                	j	2a8c <.Ldebug_info0+0xdde>
    29ec:	0068                	0x68
    29ee:	0000                	unimp
    29f0:	9102                	li	sp,-32
    29f2:	1468                	add	s0,s0,s10
    29f4:	0000                	unimp
    29f6:	0000                	unimp
    29f8:	68010f03          	lb	t5,1664(sp)
    29fc:	0000                	unimp
    29fe:	0200                	li	tp,0
    2a00:	6091                	bltz	s1,2a04 <.Ldebug_info0+0xd56>
    2a02:	6915                	bltz	a0,2aa6 <.Ldebug_info0+0xdf8>
    2a04:	0300                	li	t1,0
    2a06:	0110                	mv	sp,tp
    2a08:	0000002f          	0x2f
    2a0c:	9102                	li	sp,-32
    2a0e:	165c                	add	a2,a2,s7
	...
    2a18:	0014                	0x14
    2a1a:	0000                	unimp
    2a1c:	0300                	li	t1,0
    2a1e:	00680117          	auipc	sp,0x680
    2a22:	0000                	unimp
    2a24:	9102                	li	sp,-32
    2a26:	1450                	add	s0,s0,s4
    2a28:	0000                	unimp
    2a2a:	0000                	unimp
    2a2c:	68011703          	lh	a4,1664(sp) # 68309e <.L0 +0x66edee>
    2a30:	0000                	unimp
    2a32:	0200                	li	tp,0
    2a34:	4891                	sw	tp,80(sp)
    2a36:	0000                	unimp
    2a38:	0011                	0x11
    2a3a:	0000                	unimp
    2a3c:	0300                	li	t1,0
    2a3e:	002f0133          	add	sp,t5,sp
	...
    2a4a:	0000                	unimp
    2a4c:	9c01                	addi	s0,s0,-1
    2a4e:	00000def          	jal	s11,2a4e <.Ldebug_info0+0xda0>
    2a52:	0012                	j	2a56 <.Ldebug_info0+0xda8>
    2a54:	0000                	unimp
    2a56:	0300                	li	t1,0
    2a58:	08970133          	0x8970133
    2a5c:	0000                	unimp
    2a5e:	9102                	li	sp,-32
    2a60:	135c                	add	t1,t1,s7
    2a62:	6870                	0x6870
    2a64:	0300                	li	t1,0
    2a66:	00440133          	add	sp,s0,tp
    2a6a:	0000                	unimp
    2a6c:	9102                	li	sp,-32
    2a6e:	125a                	j	2384 <.Ldebug_info0+0x6d6>
    2a70:	0000                	unimp
    2a72:	0000                	unimp
    2a74:	68013303          	0x68013303
    2a78:	0000                	unimp
    2a7a:	0200                	li	tp,0
    2a7c:	5091                	sw	tp,96(sp)
    2a7e:	6d15                	bltz	a0,2b62 <.Ldebug_info0+0xeb4>
    2a80:	6e69                	bltz	a2,2b5a <.Ldebug_info0+0xeac>
    2a82:	0300                	li	t1,0
    2a84:	0135                	slli	sp,sp,0xd
    2a86:	0068                	0x68
    2a88:	0000                	unimp
    2a8a:	9102                	li	sp,-32
    2a8c:	1568                	add	a0,a0,s10
    2a8e:	616d                	bltz	a0,2ac8 <.Ldebug_info0+0xe1a>
    2a90:	0078                	0x78
    2a92:	68013603          	0x68013603
    2a96:	0000                	unimp
    2a98:	0200                	li	tp,0
    2a9a:	6091                	bltz	s1,2a9e <.Ldebug_info0+0xdf0>
    2a9c:	1100                	add	sp,sp,zero
    2a9e:	0000                	unimp
    2aa0:	0000                	unimp
    2aa2:	68013f03          	0x68013f03
	...
    2aae:	0000                	unimp
    2ab0:	0100                	li	sp,0
    2ab2:	639c                	xor	a5,a5,a5
    2ab4:	000e                	j	2ad6 <.Ldebug_info0+0xe28>
    2ab6:	1200                	add	tp,tp,zero
    2ab8:	0000                	unimp
    2aba:	0000                	unimp
    2abc:	97013f03          	0x97013f03
    2ac0:	0008                	0x8
    2ac2:	0200                	li	tp,0
    2ac4:	4c91                	sw	tp,88(sp)
    2ac6:	00687013          	andi	zero,a6,6
    2aca:	44013f03          	0x44013f03
    2ace:	0000                	unimp
    2ad0:	0200                	li	tp,0
    2ad2:	4a91                	sw	tp,84(sp)
    2ad4:	0012                	j	2ad8 <.Ldebug_info0+0xe2a>
    2ad6:	0000                	unimp
    2ad8:	0300                	li	t1,0
    2ada:	0068013f 91020000 	0x910200000068013f
    2ae2:	1440                	add	s0,s0,a6
    2ae4:	0000                	unimp
    2ae6:	0000                	unimp
    2ae8:	68014103          	lbu	sp,1664(sp)
    2aec:	0000                	unimp
    2aee:	0200                	li	tp,0
    2af0:	6891                	bltz	s1,2b74 <.Ldebug_info0+0xec6>
    2af2:	0014                	0x14
    2af4:	0000                	unimp
    2af6:	0300                	li	t1,0
    2af8:	0142                	j	2b88 <.Ldebug_info0+0xeda>
    2afa:	0068                	0x68
    2afc:	0000                	unimp
    2afe:	9102                	li	sp,-32
    2b00:	1460                	add	s0,s0,s8
    2b02:	0000                	unimp
    2b04:	0000                	unimp
    2b06:	68014303          	lbu	t1,1664(sp)
    2b0a:	0000                	unimp
    2b0c:	0200                	li	tp,0
    2b0e:	5891                	sw	tp,112(sp)
    2b10:	1700                	add	a4,a4,zero
    2b12:	0000                	unimp
    2b14:	0000                	unimp
    2b16:	2f014b03          	lbu	s6,752(sp)
	...
    2b22:	0000                	unimp
    2b24:	0100                	li	sp,0
    2b26:	129c                	add	t0,t0,t2
    2b28:	0000                	unimp
    2b2a:	0000                	unimp
    2b2c:	97014b03          	lbu	s6,-1680(sp)
    2b30:	0008                	0x8
    2b32:	0300                	li	t1,0
    2b34:	bc91                	addi	a2,sp,624
    2b36:	127f                	0x127f
    2b38:	0000                	unimp
    2b3a:	0000                	unimp
    2b3c:	2f014b03          	lbu	s6,752(sp)
    2b40:	0000                	unimp
    2b42:	0300                	li	t1,0
    2b44:	b891                	addi	a2,sp,112
    2b46:	157f                	0x157f
    2b48:	0069                	0x69
    2b4a:	2f014d03          	lbu	s10,752(sp)
    2b4e:	0000                	unimp
    2b50:	0200                	li	tp,0
    2b52:	5c91                	sw	tp,120(sp)
    2b54:	0016                	j	2b78 <.Ldebug_info0+0xeca>
    2b56:	0000                	unimp
    2b58:	0000                	unimp
    2b5a:	0000                	unimp
    2b5c:	1400                	add	s0,s0,zero
    2b5e:	0000                	unimp
    2b60:	0000                	unimp
    2b62:	68015503          	lhu	a0,1664(sp)
    2b66:	0000                	unimp
    2b68:	0200                	li	tp,0
    2b6a:	5091                	sw	tp,96(sp)
    2b6c:	7315                	bltz	a4,2a90 <.Ldebug_info0+0xde2>
    2b6e:	6372                	bnez	a4,2b8a <.Ldebug_info0+0xedc>
    2b70:	0300                	li	t1,0
    2b72:	0155                	slli	sp,sp,0x15
    2b74:	0068                	0x68
    2b76:	0000                	unimp
    2b78:	9102                	li	sp,-32
    2b7a:	1540                	add	a0,a0,a6
    2b7c:	656c                	sltu	a0,a0,a1
    2b7e:	006e                	j	2bb8 <.Ldebug_info0+0x2b>
    2b80:	85015603          	lhu	a2,-1968(sp)
    2b84:	0000                	unimp
    2b86:	0200                	li	tp,0
    2b88:	4c91                	sw	tp,88(sp)
    2b8a:	0000                	unimp
	...

00002b8d <.Ldebug_info0>:
    2b8d:	07a5                	slli	a5,a5,0x9
    2b8f:	0000                	unimp
    2b91:	0004                	0x4
    2b93:	0000                	unimp
    2b95:	0000                	unimp
    2b97:	0104                	mv	sp,ra
    2b99:	0000                	unimp
    2b9b:	0000                	unimp
    2b9d:	000c                	0xc
	...
    2bab:	0000                	unimp
    2bad:	0200                	li	tp,0
    2baf:	0000                	unimp
    2bb1:	0000                	unimp
    2bb3:	026e                	j	2ced <.Ldebug_info0+0x160>
    2bb5:	0000d613          	srli	a2,ra,0x0
    2bb9:	0300                	li	t1,0
    2bbb:	0000                	unimp
    2bbd:	0000                	unimp
    2bbf:	1402                	j	25bf <.Ldebug_info0+0x911>
    2bc1:	00d6                	j	2c35 <.Ldebug_info0+0xa8>
    2bc3:	0000                	unimp
    2bc5:	0300                	li	t1,0
    2bc7:	0000                	unimp
    2bc9:	0000                	unimp
    2bcb:	1502                	j	264b <.Ldebug_info0+0x99d>
    2bcd:	00f4                	mv	ra,t4
    2bcf:	0000                	unimp
    2bd1:	0306                	j	2d71 <.Ldebug_info0+0x1e4>
    2bd3:	0000                	unimp
    2bd5:	0000                	unimp
    2bd7:	1602                	j	26d7 <.Ldebug_info0+0xa29>
    2bd9:	00f4                	mv	ra,t4
    2bdb:	0000                	unimp
    2bdd:	030e                	j	2d7f <.Ldebug_info0+0x1f2>
    2bdf:	0000                	unimp
    2be1:	0000                	unimp
    2be3:	1702                	j	2763 <.Ldebug_info0+0xab5>
    2be5:	00f4                	mv	ra,t4
    2be7:	0000                	unimp
    2be9:	0316                	j	2d8d <.Ldebug_info0+0x200>
    2beb:	0000                	unimp
    2bed:	0000                	unimp
    2bef:	1802                	j	27ef <.Ldebug_info0+0xb41>
    2bf1:	00f4                	mv	ra,t4
    2bf3:	0000                	unimp
    2bf5:	031e                	j	2d9b <.Ldebug_info0+0x20e>
    2bf7:	0000                	unimp
    2bf9:	0000                	unimp
    2bfb:	1902                	j	287b <.Ldebug_info0+0xbcd>
    2bfd:	00f4                	mv	ra,t4
    2bff:	0000                	unimp
    2c01:	0326                	j	2da9 <.Ldebug_info0+0x21c>
    2c03:	0000                	unimp
    2c05:	0000                	unimp
    2c07:	1a02                	j	2907 <.Ldebug_info0+0xc59>
    2c09:	00f4                	mv	ra,t4
    2c0b:	0000                	unimp
    2c0d:	032e                	j	2db7 <.Ldebug_info0+0x22a>
    2c0f:	0000                	unimp
    2c11:	0000                	unimp
    2c13:	1b02                	j	2993 <.Ldebug_info0+0xce5>
    2c15:	00f4                	mv	ra,t4
    2c17:	0000                	unimp
    2c19:	0336                	j	2dc5 <.Ldebug_info0+0x238>
    2c1b:	0000                	unimp
    2c1d:	0000                	unimp
    2c1f:	1c02                	j	2a1f <.Ldebug_info0+0xd71>
    2c21:	00f4                	mv	ra,t4
    2c23:	0000                	unimp
    2c25:	033e                	j	2dd3 <.Ldebug_info0+0x246>
    2c27:	0000                	unimp
    2c29:	0000                	unimp
    2c2b:	1d02                	j	2aab <.Ldebug_info0+0xdfd>
    2c2d:	00f4                	mv	ra,t4
    2c2f:	0000                	unimp
    2c31:	0346                	j	2de1 <.Ldebug_info0+0x254>
    2c33:	0000                	unimp
    2c35:	0000                	unimp
    2c37:	1e02                	j	2b37 <.Ldebug_info0+0xe89>
    2c39:	00f4                	mv	ra,t4
    2c3b:	0000                	unimp
    2c3d:	034e                	j	2def <.Ldebug_info0+0x262>
    2c3f:	0000                	unimp
    2c41:	0000                	unimp
    2c43:	1f02                	j	2bc3 <.Ldebug_info0+0x36>
    2c45:	00f4                	mv	ra,t4
    2c47:	0000                	unimp
    2c49:	0356                	j	2dfd <.Ldebug_info0+0x270>
    2c4b:	0000                	unimp
    2c4d:	0000                	unimp
    2c4f:	2002                	jal	2c4f <.Ldebug_info0+0xc2>
    2c51:	00f4                	mv	ra,t4
    2c53:	0000                	unimp
    2c55:	035e                	j	2e0b <.Ldebug_info0+0x27e>
    2c57:	0000                	unimp
    2c59:	0000                	unimp
    2c5b:	2102                	jal	2cdb <.Ldebug_info0+0x14e>
    2c5d:	00f4                	mv	ra,t4
    2c5f:	0000                	unimp
    2c61:	0066                	j	2c99 <.Ldebug_info0+0x10c>
    2c63:	ed04                	0xed04
    2c65:	0000                	unimp
    2c67:	e600                	0xe600
    2c69:	0000                	unimp
    2c6b:	0500                	li	a0,0
    2c6d:	00e6                	j	2ce5 <.Ldebug_info0+0x158>
    2c6f:	0000                	unimp
    2c71:	0005                	0x5
    2c73:	0406                	j	2e93 <.Ldebug_info0+0x306>
    2c75:	00000007          	0x7
    2c79:	0600                	li	a2,0
    2c7b:	0801                	slli	a6,a6,0x0
    2c7d:	0000                	unimp
    2c7f:	0000                	unimp
    2c81:	ed04                	0xed04
    2c83:	0000                	unimp
    2c85:	0400                	li	s0,0
    2c87:	0001                	0x1
    2c89:	0500                	li	a0,0
    2c8b:	00e6                	j	2d03 <.Ldebug_info0+0x176>
    2c8d:	0000                	unimp
    2c8f:	00020007          	0x20007
    2c93:	0000                	unimp
    2c95:	0800                	li	a6,0
    2c97:	2802                	jal	3097 <.Ldebug_info0+0x50a>
    2c99:	0129                	slli	sp,sp,0xa
    2c9b:	0000                	unimp
    2c9d:	00000003          	lb	zero,0(zero)
    2ca1:	0200                	li	tp,0
    2ca3:	292a                	jal	312d <.Ldebug_info0+0x5a0>
    2ca5:	0001                	0x1
    2ca7:	0000                	unimp
    2ca9:	00000003          	lb	zero,0(zero)
    2cad:	0200                	li	tp,0
    2caf:	292c                	srai	s2,s2,0xb
    2cb1:	0001                	0x1
    2cb3:	0400                	li	s0,0
    2cb5:	0600                	li	a2,0
    2cb7:	0704                	mv	a4,ra
    2cb9:	0000                	unimp
    2cbb:	0000                	unimp
    2cbd:	00000007          	0x7
    2cc1:	0100                	li	sp,0
    2cc3:	00016533          	or	a0,sp,zero
    2cc7:	0100                	li	sp,0
    2cc9:	0165                	slli	sp,sp,0x19
    2ccb:	0000                	unimp
    2ccd:	6108                	xor	a0,a0,a0
    2ccf:	0100                	li	sp,0
    2cd1:	00016c33          	or	s8,sp,zero
    2cd5:	0800                	li	a6,0
    2cd7:	0062                	j	2cef <.Ldebug_info0+0x162>
    2cd9:	3301                	srli	t1,t1,0x20
    2cdb:	016c                	mv	sp,s11
    2cdd:	0000                	unimp
    2cdf:	6e08                	sll	a0,a2,a0
    2ce1:	0100                	li	sp,0
    2ce3:	00017733          	and	a4,sp,zero
    2ce7:	0900                	li	s2,0
    2ce9:	0069                	0x69
    2ceb:	3501                	srli	a0,a0,0x20
    2ced:	00000177          	0x177
    2cf1:	0a00                	li	s4,0
    2cf3:	0504                	mv	a0,ra
    2cf5:	6e69                	bltz	a2,2dcf <.Ldebug_info0+0x242>
    2cf7:	0074                	0x74
    2cf9:	0172040b          	custom0	8,4,23,0
    2cfd:	0000                	unimp
    2cff:	ed0c                	0xed0c
    2d01:	0000                	unimp
    2d03:	0600                	li	a2,0
    2d05:	0704                	mv	a4,ra
    2d07:	0000                	unimp
    2d09:	0000                	unimp
    2d0b:	00000007          	0x7
    2d0f:	0100                	li	sp,0
    2d11:	7712                	bnez	a4,2c55 <.Ldebug_info0+0xc8>
    2d13:	0001                	0x1
    2d15:	0100                	li	sp,0
    2d17:	000001a3          	sb	zero,3(zero)
    2d1b:	6e08                	sll	a0,a2,a0
    2d1d:	0100                	li	sp,0
    2d1f:	7712                	bnez	a4,2c63 <.Ldebug_info0+0xd6>
    2d21:	0001                	0x1
    2d23:	0d00                	li	s10,0
    2d25:	0000                	unimp
    2d27:	0000                	unimp
    2d29:	1201                	slli	tp,tp,0x20
    2d2b:	00000177          	0x177
    2d2f:	0700                	li	a4,0
    2d31:	0000                	unimp
    2d33:	0000                	unimp
    2d35:	5001                	sw	zero,32(sp)
    2d37:	0129                	slli	sp,sp,0xa
    2d39:	0000                	unimp
    2d3b:	c801                	lw	a6,0(sp)
    2d3d:	0001                	0x1
    2d3f:	0800                	li	a6,0
    2d41:	00727473          	csrrc	s0,0x7,4
    2d45:	5001                	sw	zero,32(sp)
    2d47:	016c                	mv	sp,s11
    2d49:	0000                	unimp
    2d4b:	7309                	bltz	a4,2c4d <.Ldebug_info0+0xc0>
    2d4d:	0100                	li	sp,0
    2d4f:	6c51                	bltz	s0,2e23 <.Ldebug_info0+0x296>
    2d51:	0001                	0x1
    2d53:	0000                	unimp
    2d55:	00000007          	0x7
    2d59:	0100                	li	sp,0
    2d5b:	f945                	bgez	a0,2d0b <.Ldebug_info0+0x17e>
    2d5d:	0001                	0x1
    2d5f:	0100                	li	sp,0
    2d61:	01f9                	slli	gp,gp,0x1e
    2d63:	0000                	unimp
    2d65:	7408                	0x7408
    2d67:	4501006f          	j	131b7 <elf_getProgramHeaderFileSize+0xb>
    2d6b:	01f9                	slli	gp,gp,0x1e
    2d6d:	0000                	unimp
    2d6f:	000d                	0xd
    2d71:	0000                	unimp
    2d73:	0100                	li	sp,0
    2d75:	6c45                	bltz	s0,2e65 <.Ldebug_info0+0x2d8>
    2d77:	0001                	0x1
    2d79:	0e00                	li	t3,0
    2d7b:	0000                	unimp
    2d7d:	0000                	unimp
    2d7f:	4601                	sw	zero,12(sp)
    2d81:	01f9                	slli	gp,gp,0x1e
    2d83:	0000                	unimp
    2d85:	0b00                	li	s6,0
    2d87:	ed04                	0xed04
    2d89:	0000                	unimp
    2d8b:	0700                	li	a4,0
    2d8d:	0000                	unimp
    2d8f:	0000                	unimp
    2d91:	1801                	slli	a6,a6,0x20
    2d93:	00000177          	0x177
    2d97:	3601                	srli	a2,a2,0x20
    2d99:	0002                	j	2d99 <.Ldebug_info0+0x20c>
    2d9b:	0800                	li	a6,0
    2d9d:	18010073          	0x18010073
    2da1:	01f9                	slli	gp,gp,0x1e
    2da3:	0000                	unimp
    2da5:	000d                	0xd
    2da7:	0000                	unimp
    2da9:	0100                	li	sp,0
    2dab:	2918                	srai	s2,s2,0x6
    2dad:	0001                	0x1
    2daf:	0900                	li	s2,0
    2db1:	0072                	j	2dcd <.Ldebug_info0+0x240>
    2db3:	1a01                	slli	s4,s4,0x20
    2db5:	00000177          	0x177
    2db9:	6909                	bltz	a0,2e3b <.Ldebug_info0+0x2ae>
    2dbb:	0100                	li	sp,0
    2dbd:	0001771b          	0x1771b
    2dc1:	0000                	unimp
    2dc3:	0001ff0f          	0x1ff0f
	...
    2dcf:	0100                	li	sp,0
    2dd1:	6b9c                	0x6b9c
    2dd3:	0002                	j	2dd3 <.Ldebug_info0+0x246>
    2dd5:	1000                	ebreak
    2dd7:	0000020f          	0x20f
    2ddb:	0000                	unimp
    2ddd:	0000                	unimp
    2ddf:	2311                	srli	t1,t1,0x4
    2de1:	0002                	j	2de1 <.Ldebug_info0+0x254>
    2de3:	0000                	unimp
    2de5:	0000                	unimp
    2de7:	1100                	add	sp,sp,zero
    2de9:	022c                	mv	tp,a1
    2deb:	0000                	unimp
    2ded:	0000                	unimp
    2def:	0000                	unimp
    2df1:	1812                	j	29f5 <.Ldebug_info0+0xd47>
    2df3:	0002                	j	2df3 <.Ldebug_info0+0x266>
    2df5:	0800                	li	a6,0
    2df7:	1300                	add	t1,t1,zero
    2df9:	0000                	unimp
    2dfb:	0000                	unimp
    2dfd:	5d01                	sw	zero,184(sp)
    2dff:	0165                	slli	sp,sp,0x19
	...
    2e09:	0000                	unimp
    2e0b:	9c01                	addi	s0,s0,-1
    2e0d:	03bd                	slli	t2,t2,0xf
    2e0f:	0000                	unimp
    2e11:	0014                	0x14
    2e13:	0000                	unimp
    2e15:	0100                	li	sp,0
    2e17:	bd5d                	addi	a5,sp,692
    2e19:	00000003          	lb	zero,0(zero)
    2e1d:	0000                	unimp
    2e1f:	1400                	add	s0,s0,zero
    2e21:	0000                	unimp
    2e23:	0000                	unimp
    2e25:	5e01                	sw	zero,60(sp)
    2e27:	000003c3          	fmadd.s	ft7,ft0,ft0,ft0,rne
    2e2b:	0000                	unimp
    2e2d:	0000                	unimp
    2e2f:	0014                	0x14
    2e31:	0000                	unimp
    2e33:	0100                	li	sp,0
    2e35:	c95e                	addi	s2,s2,23
    2e37:	00000003          	lb	zero,0(zero)
    2e3b:	0000                	unimp
    2e3d:	1400                	add	s0,s0,zero
    2e3f:	0000                	unimp
    2e41:	0000                	unimp
    2e43:	5e01                	sw	zero,60(sp)
    2e45:	000003cf          	fnmadd.s	ft7,ft0,ft0,ft0,rne
    2e49:	0000                	unimp
    2e4b:	0000                	unimp
    2e4d:	0014                	0x14
    2e4f:	0000                	unimp
    2e51:	0100                	li	sp,0
    2e53:	d75f 0003 0000      	0x3d75f
    2e59:	0000                	unimp
    2e5b:	1500                	add	a0,a0,zero
    2e5d:	0000                	unimp
    2e5f:	0000                	unimp
    2e61:	6101                	bltz	a0,2e61 <.Ldebug_info0+0x2d4>
    2e63:	00000177          	0x177
    2e67:	0000                	unimp
    2e69:	0000                	unimp
    2e6b:	0015                	0x15
    2e6d:	0000                	unimp
    2e6f:	0100                	li	sp,0
    2e71:	7770                	0x7770
    2e73:	0001                	0x1
    2e75:	0000                	unimp
    2e77:	0000                	unimp
    2e79:	1600                	add	a2,a2,zero
    2e7b:	0130                	mv	sp,a2
	...
    2e85:	0000                	unimp
    2e87:	6301                	bltz	a4,2e87 <.Ldebug_info0+0x2fa>
    2e89:	0000032f          	0x32f
    2e8d:	5212                	beqz	a2,2d91 <.Ldebug_info0+0x204>
    2e8f:	0001                	0x1
    2e91:	0600                	li	a2,0
    2e93:	00014917          	auipc	s2,0x14
    2e97:	0600                	li	a2,0
    2e99:	00000003          	lb	zero,0(zero)
    2e9d:	9f00                	0x9f00
    2e9f:	4010                	sw	a2,0(s0)
    2ea1:	0001                	0x1
    2ea3:	0000                	unimp
    2ea5:	0000                	unimp
    2ea7:	1800                	add	a6,a6,zero
	...
    2eb1:	5b11                	sw	tp,180(sp)
    2eb3:	0001                	0x1
    2eb5:	0000                	unimp
    2eb7:	0000                	unimp
    2eb9:	0000                	unimp
    2ebb:	1600                	add	a2,a2,zero
    2ebd:	0130                	mv	sp,a2
	...
    2ec7:	0000                	unimp
    2ec9:	6c01                	bltz	s0,2f89 <.Ldebug_info0+0x3fc>
    2ecb:	0371                	slli	t1,t1,0x1c
    2ecd:	0000                	unimp
    2ecf:	5210                	sw	a2,32(a2)
    2ed1:	0001                	0x1
    2ed3:	0000                	unimp
    2ed5:	0000                	unimp
    2ed7:	1000                	ebreak
    2ed9:	0149                	slli	sp,sp,0x12
    2edb:	0000                	unimp
    2edd:	0000                	unimp
    2edf:	0000                	unimp
    2ee1:	4010                	sw	a2,0(s0)
    2ee3:	0001                	0x1
    2ee5:	0000                	unimp
    2ee7:	0000                	unimp
    2ee9:	1800                	add	a6,a6,zero
	...
    2ef3:	5b11                	sw	tp,180(sp)
    2ef5:	0001                	0x1
    2ef7:	0000                	unimp
    2ef9:	0000                	unimp
    2efb:	0000                	unimp
    2efd:	1600                	add	a2,a2,zero
    2eff:	017e                	j	2fbd <.Ldebug_info0+0x430>
	...
    2f09:	0000                	unimp
    2f0b:	7201                	bltz	a2,2e0b <.Ldebug_info0+0x27e>
    2f0d:	00000397          	auipc	t2,0x0
    2f11:	9710                	0x9710
    2f13:	0001                	0x1
    2f15:	0000                	unimp
    2f17:	0000                	unimp
    2f19:	1000                	ebreak
    2f1b:	018e                	j	2ffd <.Ldebug_info0+0x470>
    2f1d:	0000                	unimp
    2f1f:	0000                	unimp
    2f21:	0000                	unimp
    2f23:	1900                	add	s2,s2,zero
    2f25:	0000                	unimp
    2f27:	0000                	unimp
    2f29:	0236                	j	3055 <.Ldebug_info0+0x4c8>
    2f2b:	0000                	unimp
    2f2d:	000003ab          	custom1	7,0,0,0
    2f31:	011a                	j	2fb7 <.Ldebug_info0+0x42a>
    2f33:	025a                	j	3049 <.Ldebug_info0+0x4bc>
    2f35:	3678                	srai	a2,a2,0x3e
    2f37:	1b00                	add	s6,s6,zero
    2f39:	0000                	unimp
    2f3b:	0000                	unimp
    2f3d:	0236                	j	3069 <.Ldebug_info0+0x4dc>
    2f3f:	0000                	unimp
    2f41:	011a                	j	2fc7 <.Ldebug_info0+0x43a>
    2f43:	035a                	j	30d9 <.Ldebug_info0+0x54c>
    2f45:	de78                	lw	a4,124(a2)
    2f47:	0000                	unimp
    2f49:	0b00                	li	s6,0
    2f4b:	2104                	srai	sp,sp,0x1
    2f4d:	0000                	unimp
    2f4f:	0b00                	li	s6,0
    2f51:	6c04                	sll	s1,s0,s1
    2f53:	0001                	0x1
    2f55:	0b00                	li	s6,0
    2f57:	7704                	0x7704
    2f59:	0001                	0x1
    2f5b:	0b00                	li	s6,0
    2f5d:	d504                	lw	s1,40(a0)
    2f5f:	1c000003          	lb	zero,448(zero)
    2f63:	0b04                	mv	s6,ra
    2f65:	bd04                	add	a5,a0,s1
    2f67:	13000003          	lb	zero,304(zero)
    2f6b:	0000                	unimp
    2f6d:	0000                	unimp
    2f6f:	8401                	addi	s0,s0,1
    2f71:	03d5                	slli	t2,t2,0x15
	...
    2f7b:	0000                	unimp
    2f7d:	9c01                	addi	s0,s0,-1
    2f7f:	04a2                	j	31c7 <.Ldebug_info0+0x63a>
    2f81:	0000                	unimp
    2f83:	0014                	0x14
    2f85:	0000                	unimp
    2f87:	0100                	li	sp,0
    2f89:	d584                	lw	s1,40(a1)
    2f8b:	00000003          	lb	zero,0(zero)
    2f8f:	0000                	unimp
    2f91:	1d00                	add	s10,s10,zero
    2f93:	006e                	j	2fcd <.Ldebug_info0+0x440>
    2f95:	8401                	addi	s0,s0,1
    2f97:	0165                	slli	sp,sp,0x19
    2f99:	0000                	unimp
    2f9b:	0000                	unimp
    2f9d:	0000                	unimp
    2f9f:	0014                	0x14
    2fa1:	0000                	unimp
    2fa3:	0100                	li	sp,0
    2fa5:	c384                	lw	s1,0(a5)
    2fa7:	00000003          	lb	zero,0(zero)
    2fab:	0000                	unimp
    2fad:	1400                	add	s0,s0,zero
    2faf:	0000                	unimp
    2fb1:	0000                	unimp
    2fb3:	8401                	addi	s0,s0,1
    2fb5:	03c9                	slli	t2,t2,0x12
    2fb7:	0000                	unimp
    2fb9:	0000                	unimp
    2fbb:	0000                	unimp
    2fbd:	691e                	bnez	a0,3063 <.Ldebug_info0+0x4d6>
    2fbf:	0100                	li	sp,0
    2fc1:	6586                	bnez	a1,3021 <.Ldebug_info0+0x494>
    2fc3:	0001                	0x1
    2fc5:	0000                	unimp
    2fc7:	0000                	unimp
    2fc9:	1500                	add	a0,a0,zero
    2fcb:	0000                	unimp
    2fcd:	0000                	unimp
    2fcf:	8701                	addi	s0,a4,1
    2fd1:	03bd                	slli	t2,t2,0xf
    2fd3:	0000                	unimp
    2fd5:	0000                	unimp
    2fd7:	0000                	unimp
    2fd9:	001f 0000 0100      	0x1000000001f
    2fdf:	d588                	lw	a0,40(a1)
    2fe1:	02000003          	lb	zero,32(zero)
    2fe5:	5891                	sw	tp,112(sp)
    2fe7:	0020                	0x20
    2fe9:	0000                	unimp
    2feb:	1f00                	add	t5,t5,zero
    2fed:	0000                	unimp
    2fef:	0000                	unimp
    2ff1:	8c01                	addi	s0,s0,3
    2ff3:	03bd                	slli	t2,t2,0xf
    2ff5:	0000                	unimp
    2ff7:	9102                	li	sp,-32
    2ff9:	155c                	add	a0,a0,s7
    2ffb:	0000                	unimp
    2ffd:	0000                	unimp
    2fff:	8d01                	addi	s0,a0,3
    3001:	0165                	slli	sp,sp,0x19
    3003:	0000                	unimp
    3005:	0000                	unimp
    3007:	0000                	unimp
    3009:	0000001b          	0x1b
    300d:	6b00                	0x6b00
    300f:	0002                	j	300f <.Ldebug_info0+0x482>
    3011:	1a00                	add	s4,s4,zero
    3013:	5b01                	sw	zero,180(sp)
    3015:	8202                	jr	tp
    3017:	1a00                	add	s4,s4,zero
    3019:	5c01                	sw	zero,56(sp)
    301b:	8302                	jr	t1
    301d:	1a00                	add	s4,s4,zero
    301f:	5d01                	sw	zero,184(sp)
    3021:	7fa89103          	lh	sp,2042(a7)
    3025:	011a                	j	30ab <.Ldebug_info0+0x51e>
    3027:	035e                	j	31dd <.Ldebug_info0+0x650>
    3029:	ac91                	addi	a2,sp,592
    302b:	007f                	0x7f
    302d:	0000                	unimp
    302f:	00000013          	nop
    3033:	0100                	li	sp,0
    3035:	d59e                	addi	a1,a1,-25
    3037:	00000003          	lb	zero,0(zero)
    303b:	0000                	unimp
    303d:	0000                	unimp
    303f:	0000                	unimp
    3041:	0100                	li	sp,0
    3043:	c89c                	lw	a5,16(s1)
    3045:	0005                	0x5
    3047:	1400                	add	s0,s0,zero
    3049:	0000                	unimp
    304b:	0000                	unimp
    304d:	9e01                	addi	s0,a2,-1
    304f:	03d5                	slli	t2,t2,0x15
    3051:	0000                	unimp
    3053:	0000                	unimp
    3055:	0000                	unimp
    3057:	0014                	0x14
    3059:	0000                	unimp
    305b:	0100                	li	sp,0
    305d:	6c9e                	bnez	s1,3143 <.Ldebug_info0+0x5b6>
    305f:	0001                	0x1
    3061:	0000                	unimp
    3063:	0000                	unimp
    3065:	1400                	add	s0,s0,zero
    3067:	0000                	unimp
    3069:	0000                	unimp
    306b:	9e01                	addi	s0,a2,-1
    306d:	03c9                	slli	t2,t2,0x12
    306f:	0000                	unimp
    3071:	0000                	unimp
    3073:	0000                	unimp
    3075:	0015                	0x15
    3077:	0000                	unimp
    3079:	0100                	li	sp,0
    307b:	bda0                	sub	a5,a1,s0
    307d:	00000003          	lb	zero,0(zero)
    3081:	0000                	unimp
    3083:	2000                	0x2000
    3085:	0000                	unimp
    3087:	0000                	unimp
    3089:	001f 0000 0100      	0x1000000001f
    308f:	bda4                	sub	a5,a1,s1
    3091:	02000003          	lb	zero,32(zero)
    3095:	6491                	bltz	s1,30d9 <.Ldebug_info0+0x54c>
    3097:	001f 0000 0100      	0x1000000001f
    309d:	d5a5                	lw	a1,104(sp)
    309f:	02000003          	lb	zero,32(zero)
    30a3:	6891                	bltz	s1,3127 <.Ldebug_info0+0x59a>
    30a5:	001f 0000 0100      	0x1000000001f
    30ab:	6ca6                	bnez	s1,3193 <.Ldebug_info0+0x606>
    30ad:	0001                	0x1
    30af:	0200                	li	tp,0
    30b1:	6c91                	bltz	s1,3175 <.Ldebug_info0+0x5e8>
    30b3:	0015                	0x15
    30b5:	0000                	unimp
    30b7:	0100                	li	sp,0
    30b9:	65a8                	srl	a1,a1,a0
    30bb:	0001                	0x1
    30bd:	0000                	unimp
    30bf:	0000                	unimp
    30c1:	1600                	add	a2,a2,zero
    30c3:	0130                	mv	sp,a2
	...
    30cd:	0000                	unimp
    30cf:	ac01                	addi	s0,sp,528
    30d1:	00000577          	0x577
    30d5:	5210                	sw	a2,32(a2)
    30d7:	0001                	0x1
    30d9:	0000                	unimp
    30db:	0000                	unimp
    30dd:	1000                	ebreak
    30df:	0149                	slli	sp,sp,0x12
    30e1:	0000                	unimp
    30e3:	0000                	unimp
    30e5:	0000                	unimp
    30e7:	4010                	sw	a2,0(s0)
    30e9:	0001                	0x1
    30eb:	0000                	unimp
    30ed:	0000                	unimp
    30ef:	1800                	add	a6,a6,zero
	...
    30f9:	5b11                	sw	tp,180(sp)
    30fb:	0001                	0x1
    30fd:	0000                	unimp
    30ff:	0000                	unimp
    3101:	0000                	unimp
    3103:	1900                	add	s2,s2,zero
    3105:	0000                	unimp
    3107:	0000                	unimp
    3109:	0000026b          	0x26b
    310d:	05a4                	mv	a1,s1
    310f:	0000                	unimp
    3111:	011a                	j	3197 <.Ldebug_info0+0x60a>
    3113:	035a                	j	32a9 <.Ldebug_info0+0x71c>
    3115:	1a5a01f3          	0x1a5a01f3
    3119:	5b01                	sw	zero,180(sp)
    311b:	9102                	li	sp,-32
    311d:	1a4c                	add	s4,s4,s3
    311f:	5c01                	sw	zero,56(sp)
    3121:	7802                	bnez	s0,30a1 <.Ldebug_info0+0x514>
    3123:	1a00                	add	s4,s4,zero
    3125:	5d01                	sw	zero,184(sp)
    3127:	9102                	li	sp,-32
    3129:	1a48                	add	s4,s4,s2
    312b:	5e01                	sw	zero,60(sp)
    312d:	9102                	li	sp,-32
    312f:	0044                	0x44
    3131:	0000001b          	0x1b
    3135:	6b00                	0x6b00
    3137:	0002                	j	3137 <.Ldebug_info0+0x5aa>
    3139:	1a00                	add	s4,s4,zero
    313b:	5b01                	sw	zero,180(sp)
    313d:	9102                	li	sp,-32
    313f:	1a4c                	add	s4,s4,s3
    3141:	5c01                	sw	zero,56(sp)
    3143:	7802                	bnez	s0,30c3 <.Ldebug_info0+0x536>
    3145:	1a00                	add	s4,s4,zero
    3147:	5d01                	sw	zero,184(sp)
    3149:	9102                	li	sp,-32
    314b:	1a48                	add	s4,s4,s2
    314d:	5e01                	sw	zero,60(sp)
    314f:	9102                	li	sp,-32
    3151:	0044                	0x44
    3153:	0000                	unimp
    3155:	00000013          	nop
    3159:	0100                	li	sp,0
    315b:	65b2                	bnez	a1,31a7 <.Ldebug_info0+0x61a>
    315d:	0001                	0x1
	...
    3167:	0100                	li	sp,0
    3169:	d99c                	lw	a5,48(a1)
    316b:	0006                	j	318b <.Ldebug_info0+0x5fe>
    316d:	1400                	add	s0,s0,zero
    316f:	0000                	unimp
    3171:	0000                	unimp
    3173:	b201                	addi	s0,sp,288
    3175:	03d5                	slli	t2,t2,0x15
    3177:	0000                	unimp
    3179:	0000                	unimp
    317b:	0000                	unimp
    317d:	0014                	0x14
    317f:	0000                	unimp
    3181:	0100                	li	sp,0
    3183:	d9b2                	addi	s3,s3,-20
    3185:	0006                	j	31a5 <.Ldebug_info0+0x618>
    3187:	0000                	unimp
    3189:	0000                	unimp
    318b:	1500                	add	a0,a0,zero
    318d:	0000                	unimp
    318f:	0000                	unimp
    3191:	b301                	addi	s0,sp,416
    3193:	03bd                	slli	t2,t2,0xf
    3195:	0000                	unimp
    3197:	0000                	unimp
    3199:	0000                	unimp
    319b:	001f 0000 0100      	0x1000000001f
    31a1:	0003bdb3          	sltu	s11,t2,zero
    31a5:	0200                	li	tp,0
    31a7:	6091                	bltz	s1,31ab <.Ldebug_info0+0x61e>
    31a9:	001f 0000 0100      	0x1000000001f
    31af:	6cb4                	srl	a3,s1,a3
    31b1:	0001                	0x1
    31b3:	0200                	li	tp,0
    31b5:	6491                	bltz	s1,31f9 <.Ldebug_info0+0x66c>
    31b7:	001f 0000 0100      	0x1000000001f
    31bd:	d5b5                	lw	a1,108(sp)
    31bf:	02000003          	lb	zero,32(zero)
    31c3:	6891                	bltz	s1,3247 <.Ldebug_info0+0x6ba>
    31c5:	0015                	0x15
    31c7:	0000                	unimp
    31c9:	0100                	li	sp,0
    31cb:	65b6                	bnez	a1,3237 <.Ldebug_info0+0x6aa>
    31cd:	0001                	0x1
    31cf:	0000                	unimp
    31d1:	0000                	unimp
    31d3:	1f00                	add	t5,t5,zero
    31d5:	0000                	unimp
    31d7:	0000                	unimp
    31d9:	b701                	addi	s0,sp,928
    31db:	00000177          	0x177
    31df:	9102                	li	sp,-32
    31e1:	0e6c                	mv	t3,s11
    31e3:	0000                	unimp
    31e5:	0000                	unimp
    31e7:	b701                	addi	s0,sp,928
    31e9:	00000177          	0x177
    31ed:	a316                	lui	t1,0x5
    31ef:	0001                	0x1
	...
    31f9:	0100                	li	sp,0
    31fb:	000690cb          	fnmsub.s	ft1,fa3,ft0,ft0,rtz
    31ff:	1000                	ebreak
    3201:	000001b3          	add	gp,zero,zero
    3205:	0000                	unimp
    3207:	0000                	unimp
    3209:	0018                	0x18
    320b:	0000                	unimp
    320d:	0000                	unimp
    320f:	0000                	unimp
    3211:	1100                	add	sp,sp,zero
    3213:	01be                	j	3301 <.Ldebug_info0+0x774>
	...
    321d:	0019                	0x19
    321f:	0000                	unimp
    3221:	6b00                	0x6b00
    3223:	0002                	j	3223 <.Ldebug_info0+0x696>
    3225:	b600                	add	a3,a2,s0
    3227:	0006                	j	3247 <.Ldebug_info0+0x6ba>
    3229:	1a00                	add	s4,s4,zero
    322b:	5b01                	sw	zero,180(sp)
    322d:	9102                	li	sp,-32
    322f:	1a44                	add	s4,s4,a7
    3231:	5c01                	sw	zero,56(sp)
    3233:	9102                	li	sp,-32
    3235:	1a4c                	add	s4,s4,s3
    3237:	5d01                	sw	zero,184(sp)
    3239:	9102                	li	sp,-32
    323b:	1a48                	add	s4,s4,s2
    323d:	5e01                	sw	zero,60(sp)
    323f:	9102                	li	sp,-32
    3241:	0040                	0x40
    3243:	0000001b          	0x1b
    3247:	6b00                	0x6b00
    3249:	0002                	j	3249 <.Ldebug_info0+0x6bc>
    324b:	1a00                	add	s4,s4,zero
    324d:	5b01                	sw	zero,180(sp)
    324f:	9102                	li	sp,-32
    3251:	1a44                	add	s4,s4,a7
    3253:	5c01                	sw	zero,56(sp)
    3255:	9102                	li	sp,-32
    3257:	1a4c                	add	s4,s4,s3
    3259:	5d01                	sw	zero,184(sp)
    325b:	9102                	li	sp,-32
    325d:	1a48                	add	s4,s4,s2
    325f:	5e01                	sw	zero,60(sp)
    3261:	9102                	li	sp,-32
    3263:	0040                	0x40
    3265:	0b00                	li	s6,0
    3267:	0404                	mv	s0,ra
    3269:	0001                	0x1
    326b:	2100                	srai	sp,sp,0x0
    326d:	0000                	unimp
    326f:	0000                	unimp
    3271:	d501                	lw	a0,32(sp)
	...
    327b:	9c01                	addi	s0,s0,-1
    327d:	07a2                	j	3645 <.Ldebug_info0+0xab8>
    327f:	0000                	unimp
    3281:	0022                	j	3289 <.Ldebug_info0+0x6fc>
    3283:	0000                	unimp
    3285:	0100                	li	sp,0
    3287:	d5d5                	lw	a1,116(sp)
    3289:	01000003          	lb	zero,16(zero)
    328d:	235a                	jal	3423 <.Ldebug_info0+0x896>
    328f:	7562                	bnez	a0,31e7 <.Ldebug_info0+0x65a>
    3291:	0066                	j	32c9 <.Ldebug_info0+0x73c>
    3293:	d501                	lw	a0,32(sp)
    3295:	07a2                	j	365d <.Ldebug_info0+0xad0>
    3297:	0000                	unimp
    3299:	5b01                	sw	zero,180(sp)
    329b:	0022                	j	32a3 <.Ldebug_info0+0x716>
    329d:	0000                	unimp
    329f:	0100                	li	sp,0
    32a1:	77d5                	bltz	a5,3215 <.Ldebug_info0+0x688>
    32a3:	0001                	0x1
    32a5:	0100                	li	sp,0
    32a7:	1f62                	j	323f <.Ldebug_info0+0x6b2>
    32a9:	0000                	unimp
    32ab:	0000                	unimp
    32ad:	d601                	lw	a2,32(sp)
    32af:	016c                	mv	sp,s11
    32b1:	0000                	unimp
    32b3:	9102                	li	sp,-32
    32b5:	0e60                	mv	t3,s8
    32b7:	0000                	unimp
    32b9:	0000                	unimp
    32bb:	d701                	lw	a4,32(sp)
    32bd:	03bd                	slli	t2,t2,0xf
    32bf:	0000                	unimp
    32c1:	001f 0000 0100      	0x1000000001f
    32c7:	0003bdd7          	0x3bdd7
    32cb:	0200                	li	tp,0
    32cd:	6491                	bltz	s1,3311 <.Ldebug_info0+0x784>
    32cf:	001f 0000 0100      	0x1000000001f
    32d5:	d5d8                	lw	a4,44(a1)
    32d7:	02000003          	lb	zero,32(zero)
    32db:	6891                	bltz	s1,335f <.Ldebug_info0+0x7d2>
    32dd:	000e                	j	32ff <.Ldebug_info0+0x772>
    32df:	0000                	unimp
    32e1:	0100                	li	sp,0
    32e3:	65d9                	bltz	a1,3339 <.Ldebug_info0+0x7ac>
    32e5:	0001                	0x1
    32e7:	2400                	srai	s0,s0,0x0
    32e9:	0069                	0x69
    32eb:	da01                	lw	s4,32(sp)
    32ed:	00000177          	0x177
    32f1:	5901                	sw	zero,176(sp)
    32f3:	001f 0000 0100      	0x1000000001f
    32f9:	77da                	bnez	a5,324f <.Ldebug_info0+0x6c2>
    32fb:	0001                	0x1
    32fd:	0200                	li	tp,0
    32ff:	6c91                	bltz	s1,33c3 <.Ldebug_info0+0x836>
    3301:	c825                	lw	a6,72(sp)
    3303:	0001                	0x1
	...
    330d:	0100                	li	sp,0
    330f:	17e2                	j	2ee7 <.Ldebug_info0+0x35a>
    3311:	01e2                	j	33e9 <.Ldebug_info0+0x85c>
    3313:	0000                	unimp
    3315:	5e01                	sw	zero,60(sp)
    3317:	0001d817          	auipc	a6,0x1d
    331b:	0100                	li	sp,0
    331d:	185d                	slli	a6,a6,0x37
	...
    3327:	ed26                	andi	s10,s10,9
    3329:	0001                	0x1
    332b:	0000                	unimp
    332d:	0000                	unimp
    332f:	01f9040b          	custom0	8,18,31,0
    3333:	0000                	unimp
	...

Disassembly of section .debug_abbrev:

00000000 <.Ldebug_abbrev0>:
   0:	1101                	slli	sp,sp,0x20
   2:	2501                	srli	a0,a0,0x0
   4:	130e                	j	fffff9a6 <.L0 +0xfffeb6f6>
   6:	110e030b          	custom0	6,28,16,8
   a:	1201                	slli	tp,tp,0x20
   c:	1006                	j	fffff82c <.L0 +0xfffeb57c>
   e:	02000017          	auipc	zero,0x2000
  12:	0024                	0x24
  14:	0b3e0b0b          	custom0	22,28,19,5
  18:	00000e03          	lb	t3,0(zero) # 200000e <.L0 +0x1febd5e>
  1c:	03001603          	lh	a2,48(zero)
  20:	3a0e                	jal	fffffd42 <.L0 +0xfffeba92>
  22:	490b3b0b          	custom0	22,s6,a6,36
  26:	04000013          	li	zero,64
  2a:	0024                	0x24
  2c:	0b3e0b0b          	custom0	22,28,19,5
  30:	00000803          	lb	a6,0(zero)
  34:	1305                	slli	t1,t1,0x21
  36:	0301                	slli	t1,t1,0x0
  38:	0b0e                	j	5da <.Ldebug_abbrev0+0x7c>
  3a:	3b0b3a0b          	custom0	20,s6,a6,29
  3e:	0013010b          	custom0	2,6,1,0
  42:	0600                	li	a2,0
  44:	000d                	0xd
  46:	0b3a0e03          	lb	t3,179(s4)
  4a:	13490b3b          	0x13490b3b
  4e:	0b38                	mv	s6,a4
  50:	0000                	unimp
  52:	49010107          	0x49010107
  56:	00130113          	addi	sp,t1,1
  5a:	0800                	li	a6,0
  5c:	0021                	0x21
  5e:	1349                	slli	t1,t1,0x32
  60:	00000b2f          	0xb2f
  64:	1609                	slli	a2,a2,0x22
  66:	0300                	li	t1,0
  68:	3a0e                	jal	fffffd8a <.L0 +0xfffebada>
  6a:	49053b0b          	custom0	22,a0,a6,36
  6e:	0a000013          	li	zero,160
  72:	0b0b000f          	0xb0b000f
  76:	1349                	slli	t1,t1,0x32
  78:	0000                	unimp
  7a:	2701150b          	0x2701150b
  7e:	0119                	slli	sp,sp,0x6
  80:	0c000013          	li	zero,192
  84:	0005                	0x5
  86:	1349                	slli	t1,t1,0x32
  88:	0000                	unimp
  8a:	0f0d                	slli	t5,t5,0x3
  8c:	0b00                	li	s6,0
  8e:	0e00000b          	custom0	0,0,0,7
  92:	012e                	j	13c <.Ldebug_abbrev0+0x13c>
  94:	0b3a0e03          	lb	t3,179(s4)
  98:	19270b3b          	0x19270b3b
  9c:	1349                	slli	t1,t1,0x32
  9e:	0111                	slli	sp,sp,0x4
  a0:	0612                	j	3a4 <.Ldebug_abbrev0+0x28>
  a2:	1840                	add	a6,a6,a6
  a4:	01194297          	auipc	t0,0x1194
  a8:	0f000013          	li	zero,240
  ac:	0005                	0x5
  ae:	0b3a0e03          	lb	t3,179(s4)
  b2:	13490b3b          	0x13490b3b
  b6:	1802                	j	fffffcb6 <.L0 +0xfffeba06>
  b8:	0000                	unimp
  ba:	2e10                	srai	t3,t3,0x4
  bc:	0301                	slli	t1,t1,0x0
  be:	3a0e                	jal	fffffde0 <.L0 +0xfffebb30>
  c0:	270b3b0b          	custom0	22,s6,a6,19
  c4:	4919                	sw	t1,144(sp)
  c6:	12011113          	0x12011113
  ca:	4006                	beqz	s0,ea <.Ldebug_abbrev0+0xea>
  cc:	9618                	0x9618
  ce:	1942                	j	fffffd5e <.L0 +0xfffebaae>
  d0:	1301                	slli	t1,t1,0x20
  d2:	0000                	unimp
  d4:	0511                	slli	a0,a0,0x4
  d6:	0300                	li	t1,0
  d8:	3a08                	srai	s4,s4,0x22
  da:	490b3b0b          	custom0	22,s6,a6,36
  de:	00180213          	addi	tp,a6,1 # 20318 <.L0 +0xc068>
  e2:	1200                	add	tp,tp,zero
  e4:	012e                	j	18e <.Ldebug_abbrev0+0x18e>
  e6:	0e03193f 0b3b0b3a 	0xb3b0b3a0e03193f
  ee:	01111927          	0x1111927
  f2:	0612                	j	3f6 <.Ldebug_abbrev0+0x7a>
  f4:	1840                	add	a6,a6,a6
  f6:	4296                	beqz	a3,11a <.Ldebug_abbrev0+0x11a>
  f8:	0119                	slli	sp,sp,0x6
  fa:	13000013          	li	zero,304
  fe:	0034                	0x34
 100:	0b3a0803          	lb	a6,179(s4)
 104:	13490b3b          	0x13490b3b
 108:	1802                	j	fffffd08 <.L0 +0xfffeba58>
 10a:	0000                	unimp
 10c:	3414                	srai	s0,s0,0x25
 10e:	0300                	li	t1,0
 110:	3a0e                	jal	fffffe32 <.L0 +0xfffebb82>
 112:	490b3b0b          	custom0	22,s6,a6,36
 116:	00180213          	addi	tp,a6,1
 11a:	1500                	add	a0,a0,zero
 11c:	0111010b          	custom0	2,2,17,0
 120:	0612                	j	424 <.Ldebug_abbrev0+0xa8>
 122:	1301                	slli	t1,t1,0x20
 124:	0000                	unimp
 126:	0b16                	j	6ca <.Ldebug_abbrev0+0x35>
 128:	1101                	slli	sp,sp,0x20
 12a:	1201                	slli	tp,tp,0x20
 12c:	0006                	j	14c <.Ldebug_abbrev0+0x14c>
 12e:	1700                	add	a4,a4,zero
 130:	012e                	j	1da <.Ldebug_abbrev0+0x1da>
 132:	0b3a0e03          	lb	t3,179(s4)
 136:	19270b3b          	0x19270b3b
 13a:	0111                	slli	sp,sp,0x4
 13c:	0612                	j	440 <.Ldebug_abbrev0+0x15>
 13e:	1840                	add	a6,a6,a6
 140:	4296                	beqz	a3,164 <.Ldebug_abbrev0+0x164>
 142:	0119                	slli	sp,sp,0x6
 144:	18000013          	li	zero,384
 148:	012e                	j	1f2 <.Ldebug_abbrev0+0x1f2>
 14a:	0b3a0e03          	lb	t3,179(s4)
 14e:	1927053b          	0x1927053b
 152:	1349                	slli	t1,t1,0x32
 154:	0111                	slli	sp,sp,0x4
 156:	0612                	j	45a <.Ldebug_abbrev0+0x2f>
 158:	1840                	add	a6,a6,a6
 15a:	4296                	beqz	a3,17e <.Ldebug_abbrev0+0x17e>
 15c:	0119                	slli	sp,sp,0x6
 15e:	19000013          	li	zero,400
 162:	0005                	0x5
 164:	0b3a0e03          	lb	t3,179(s4)
 168:	1349053b          	0x1349053b
 16c:	1802                	j	fffffd6c <.L0 +0xfffebabc>
 16e:	0000                	unimp
 170:	051a                	j	3f6 <.Ldebug_abbrev0+0x7a>
 172:	0300                	li	t1,0
 174:	3a08                	srai	s4,s4,0x22
 176:	49053b0b          	custom0	22,a0,a6,36
 17a:	00180213          	addi	tp,a6,1
 17e:	1b00                	add	s6,s6,zero
 180:	0034                	0x34
 182:	0b3a0e03          	lb	t3,179(s4)
 186:	1349053b          	0x1349053b
 18a:	1802                	j	fffffd8a <.L0 +0xfffebada>
 18c:	0000                	unimp
 18e:	261c                	srai	a2,a2,0x7
 190:	4900                	sw	s0,16(a0)
 192:	1d000013          	li	zero,464
 196:	012e                	j	240 <.Ldebug_abbrev0+0xf>
 198:	0e03193f 053b0b3a 	0x53b0b3a0e03193f
 1a0:	01111927          	0x1111927
 1a4:	0612                	j	4a8 <.Ldebug_abbrev0+0x3d>
 1a6:	1840                	add	a6,a6,a6
 1a8:	4296                	beqz	a3,1cc <.Ldebug_abbrev0+0x1cc>
 1aa:	0119                	slli	sp,sp,0x6
 1ac:	1e000013          	li	zero,480
 1b0:	0034                	0x34
 1b2:	0b3a0803          	lb	a6,179(s4)
 1b6:	1349053b          	0x1349053b
 1ba:	1802                	j	fffffdba <.L0 +0xfffebb0a>
 1bc:	0000                	unimp
 1be:	0b1f 5501 0017      	0x1755010b1f
 1c4:	2000                	0x2000
 1c6:	0021                	0x21
 1c8:	0000                	unimp
 1ca:	3421                	srli	s0,s0,0x28
 1cc:	0300                	li	t1,0
 1ce:	3a0e                	jal	fffffef0 <.L0 +0xfffebc40>
 1d0:	490b3b0b          	custom0	22,s6,a6,36
 1d4:	3c193f13          	sltiu	t5,s2,961
 1d8:	0019                	0x19
 1da:	2200                	srai	tp,tp,0x0
 1dc:	0021                	0x21
 1de:	1349                	slli	t1,t1,0x32
 1e0:	0000052f          	0x52f
 1e4:	03003423          	0x3003423
 1e8:	3a0e                	jal	ffffff0a <.L0 +0xfffebc5a>
 1ea:	490b3b0b          	custom0	22,s6,a6,36
 1ee:	02193f13          	sltiu	t5,s2,33
 1f2:	0018                	0x18
 1f4:	2400                	srai	s0,s0,0x0
 1f6:	0034                	0x34
 1f8:	0b3a0e03          	lb	t3,179(s4)
 1fc:	1349053b          	0x1349053b
 200:	1802193f 01000000 	0x10000001802193f

00000207 <.Ldebug_abbrev0>:
 207:	1101                	slli	sp,sp,0x20
 209:	2501                	srli	a0,a0,0x0
 20b:	130e                	j	fffffbad <.L0 +0xfffeb8fd>
 20d:	110e030b          	custom0	6,28,16,8
 211:	1201                	slli	tp,tp,0x20
 213:	1006                	j	fffffa33 <.L0 +0xfffeb783>
 215:	02000017          	auipc	zero,0x2000
 219:	002e                	j	243 <.Ldebug_abbrev0+0x12>
 21b:	0e03193f 0b3b0b3a 	0xb3b0b3a0e03193f
 223:	01111927          	0x1111927
 227:	0612                	j	52b <.Ldebug_abbrev0+0xc0>
 229:	1840                	add	a6,a6,a6
 22b:	4296                	beqz	a3,24f <.Ldebug_abbrev0+0x1e>
 22d:	0019                	0x19
	...

00000231 <.Ldebug_abbrev0>:
 231:	1101                	slli	sp,sp,0x20
 233:	2501                	srli	a0,a0,0x0
 235:	130e                	j	fffffbd7 <.L0 +0xfffeb927>
 237:	110e030b          	custom0	6,28,16,8
 23b:	1201                	slli	tp,tp,0x20
 23d:	1006                	j	fffffa5d <.L0 +0xfffeb7ad>
 23f:	02000017          	auipc	zero,0x2000
 243:	0024                	0x24
 245:	0b3e0b0b          	custom0	22,28,19,5
 249:	00000e03          	lb	t3,0(zero) # 200023f <.L0 +0x1febf8f>
 24d:	0b002403          	lw	s0,176(zero)
 251:	030b3e0b          	custom0	28,s6,a6,1
 255:	0008                	0x8
 257:	0400                	li	s0,0
 259:	0016                	j	27d <.Ldebug_abbrev0+0x4c>
 25b:	0b3a0e03          	lb	t3,179(s4)
 25f:	13490b3b          	0x13490b3b
 263:	0000                	unimp
 265:	0f05                	slli	t5,t5,0x1
 267:	0b00                	li	s6,0
 269:	000e030b          	custom0	6,28,0,0
 26d:	0600                	li	a2,0
 26f:	0115                	slli	sp,sp,0x5
 271:	13011927          	0x13011927
 275:	0000                	unimp
 277:	49000507          	0x49000507
 27b:	08000013          	li	zero,128
 27f:	0b0b000f          	0xb0b000f
 283:	0000                	unimp
 285:	1309                	slli	t1,t1,0x22
 287:	0301                	slli	t1,t1,0x0
 289:	0b0e                	j	82b <.Ldebug_abbrev0+0x5f>
 28b:	3b0b3a0b          	custom0	20,s6,a6,29
 28f:	0013010b          	custom0	2,6,1,0
 293:	0a00                	li	s4,0
 295:	000d                	0xd
 297:	0b3a0e03          	lb	t3,179(s4)
 29b:	13490b3b          	0x13490b3b
 29f:	0b38                	mv	s6,a4
 2a1:	0000                	unimp
 2a3:	03000d0b          	custom0	26,0,16,1
 2a7:	3a08                	srai	s4,s4,0x22
 2a9:	490b3b0b          	custom0	22,s6,a6,36
 2ad:	000b3813          	sltiu	a6,s6,0
 2b1:	0c00                	li	s8,0
 2b3:	0b0b000f          	0xb0b000f
 2b7:	1349                	slli	t1,t1,0x32
 2b9:	0000                	unimp
 2bb:	2e0d                	srli	t3,t3,0x3
 2bd:	0301                	slli	t1,t1,0x0
 2bf:	3a0e                	jal	ffffffe1 <.L0 +0xfffebd31>
 2c1:	270b3b0b          	custom0	22,s6,a6,19
 2c5:	1119                	slli	sp,sp,0x26
 2c7:	1201                	slli	tp,tp,0x20
 2c9:	4006                	beqz	s0,2e9 <.Ldebug_abbrev0+0xb8>
 2cb:	9618                	0x9618
 2cd:	1942                	j	ffffff5d <.L0 +0xfffebcad>
 2cf:	1301                	slli	t1,t1,0x20
 2d1:	0000                	unimp
 2d3:	050e                	j	575 <.Ldebug_abbrev0+0x17>
 2d5:	0300                	li	t1,0
 2d7:	3a0e                	jal	fffffff9 <.L0 +0xfffebd49>
 2d9:	490b3b0b          	custom0	22,s6,a6,36
 2dd:	00180213          	addi	tp,a6,1
 2e1:	0f00                	li	t5,0
 2e3:	0005                	0x5
 2e5:	0b3a0803          	lb	a6,179(s4)
 2e9:	13490b3b          	0x13490b3b
 2ed:	1802                	j	fffffeed <.L0 +0xfffebc3d>
 2ef:	0000                	unimp
 2f1:	3410                	srai	s0,s0,0x24
 2f3:	0300                	li	t1,0
 2f5:	3a08                	srai	s4,s4,0x22
 2f7:	490b3b0b          	custom0	22,s6,a6,36
 2fb:	00180213          	addi	tp,a6,1
 2ff:	1100                	add	sp,sp,zero
 301:	0026                	j	329 <.Ldebug_abbrev0+0xf8>
 303:	1349                	slli	t1,t1,0x32
 305:	0000                	unimp
 307:	3412                	jal	fffffd0b <.L0 +0xfffeba5b>
 309:	0300                	li	t1,0
 30b:	3a0e                	jal	2d <.Ldebug_abbrev0+0x2d>
 30d:	490b3b0b          	custom0	22,s6,a6,36
 311:	00180213          	addi	tp,a6,1
 315:	1300                	add	t1,t1,zero
 317:	0101                	slli	sp,sp,0x0
 319:	1349                	slli	t1,t1,0x32
 31b:	1301                	slli	t1,t1,0x20
 31d:	0000                	unimp
 31f:	2114                	srai	sp,sp,0x5
 321:	4900                	sw	s0,16(a0)
 323:	000b2f13          	slti	t5,s6,0
 327:	1500                	add	a0,a0,zero
 329:	012e                	j	3d3 <.Ldebug_abbrev0+0x57>
 32b:	0e03193f 0b3b0b3a 	0xb3b0b3a0e03193f
 333:	13491927          	0x13491927
 337:	0111                	slli	sp,sp,0x4
 339:	0612                	j	63d <.Ldebug_abbrev0+0xdf>
 33b:	1840                	add	a6,a6,a6
 33d:	4296                	beqz	a3,361 <.Ldebug_abbrev0+0x130>
 33f:	0119                	slli	sp,sp,0x6
 341:	16000013          	li	zero,352
 345:	0018                	0x18
 347:	0000                	unimp
 349:	03012e17          	auipc	t3,0x3012
 34d:	3a0e                	jal	6f <.Ldebug_abbrev0+0x6f>
 34f:	270b3b0b          	custom0	22,s6,a6,19
 353:	1119                	slli	sp,sp,0x26
 355:	1201                	slli	tp,tp,0x20
 357:	4006                	beqz	s0,377 <.Ldebug_abbrev0+0x146>
 359:	9718                	0x9718
 35b:	1942                	j	ffffffeb <.L0 +0xfffebd3b>
 35d:	1301                	slli	t1,t1,0x20
 35f:	0000                	unimp
 361:	2e18                	srai	t3,t3,0x6
 363:	3f01                	srli	t5,t5,0x20
 365:	0319                	slli	t1,t1,0x6
 367:	3a0e                	jal	89 <.Ldebug_abbrev0+0x89>
 369:	270b3b0b          	custom0	22,s6,a6,19
 36d:	4919                	sw	t1,144(sp)
 36f:	12011113          	0x12011113
 373:	4006                	beqz	s0,393 <.Ldebug_abbrev0+0x17>
 375:	9618                	0x9618
 377:	1942                	j	7 <.Ldebug_abbrev0+0x7>
 379:	0000                	unimp
	...

0000037c <.Ldebug_abbrev0>:
 37c:	1101                	slli	sp,sp,0x20
 37e:	2501                	srli	a0,a0,0x0
 380:	130e                	j	fffffd22 <.L0 +0xfffeba72>
 382:	110e030b          	custom0	6,28,16,8
 386:	1201                	slli	tp,tp,0x20
 388:	1006                	j	fffffba8 <.L0 +0xfffeb8f8>
 38a:	02000017          	auipc	zero,0x2000
 38e:	0024                	0x24
 390:	0b3e0b0b          	custom0	22,28,19,5
 394:	00000e03          	lb	t3,0(zero) # 200038a <.L0 +0x1fec0da>
 398:	0b002403          	lw	s0,176(zero)
 39c:	030b3e0b          	custom0	28,s6,a6,1
 3a0:	0008                	0x8
 3a2:	0400                	li	s0,0
 3a4:	0016                	j	3c8 <.Ldebug_abbrev0+0x4c>
 3a6:	0b3a0e03          	lb	t3,179(s4)
 3aa:	13490b3b          	0x13490b3b
 3ae:	0000                	unimp
 3b0:	2e05                	srli	t3,t3,0x1
 3b2:	3f01                	srli	t5,t5,0x20
 3b4:	0319                	slli	t1,t1,0x6
 3b6:	3a0e                	jal	d8 <.Ldebug_abbrev0+0xd8>
 3b8:	270b3b0b          	custom0	22,s6,a6,19
 3bc:	4919                	sw	t1,144(sp)
 3be:	12011113          	0x12011113
 3c2:	4006                	beqz	s0,3e2 <.Ldebug_abbrev0+0x66>
 3c4:	9718                	0x9718
 3c6:	1942                	j	56 <.Ldebug_abbrev0+0x56>
 3c8:	1301                	slli	t1,t1,0x20
 3ca:	0000                	unimp
 3cc:	0506                	j	66c <.Ldebug_abbrev0+0x10e>
 3ce:	0300                	li	t1,0
 3d0:	3a08                	srai	s4,s4,0x22
 3d2:	490b3b0b          	custom0	22,s6,a6,36
 3d6:	00180213          	addi	tp,a6,1
 3da:	0700                	li	a4,0
 3dc:	0b0b000f          	0xb0b000f
 3e0:	1349                	slli	t1,t1,0x32
 3e2:	0000                	unimp
 3e4:	2608                	srai	a2,a2,0x2
 3e6:	4900                	sw	s0,16(a0)
 3e8:	09000013          	li	zero,144
 3ec:	0034                	0x34
 3ee:	0b3a0803          	lb	a6,179(s4)
 3f2:	13490b3b          	0x13490b3b
 3f6:	1802                	j	fffffff6 <.L0 +0xfffebd46>
 3f8:	0000                	unimp
 3fa:	0f0a                	j	b7c <.LASF14>
 3fc:	0b00                	li	s6,0
 3fe:	0b00000b          	custom0	0,0,16,5
 402:	012e                	j	4ac <.Ldebug_abbrev0+0x41>
 404:	0e03193f 0b3b0b3a 	0xb3b0b3a0e03193f
 40c:	13491927          	0x13491927
 410:	0111                	slli	sp,sp,0x4
 412:	0612                	j	716 <.Ldebug_abbrev0+0x81>
 414:	1840                	add	a6,a6,a6
 416:	00194297          	auipc	t0,0x194
 41a:	0c00                	li	s8,0
 41c:	0005                	0x5
 41e:	0b3a0e03          	lb	t3,179(s4)
 422:	13490b3b          	0x13490b3b
 426:	1802                	j	26 <.Ldebug_abbrev0+0x26>
 428:	0000                	unimp
	...

0000042b <.Ldebug_abbrev0>:
 42b:	1101                	slli	sp,sp,0x20
 42d:	2501                	srli	a0,a0,0x0
 42f:	130e                	j	fffffdd1 <.L0 +0xfffebb21>
 431:	110e030b          	custom0	6,28,16,8
 435:	1201                	slli	tp,tp,0x20
 437:	1006                	j	fffffc57 <.L0 +0xfffeb9a7>
 439:	02000017          	auipc	zero,0x2000
 43d:	0024                	0x24
 43f:	0b3e0b0b          	custom0	22,28,19,5
 443:	00000e03          	lb	t3,0(zero) # 2000439 <.L0 +0x1fec189>
 447:	0b002403          	lw	s0,176(zero)
 44b:	030b3e0b          	custom0	28,s6,a6,1
 44f:	0008                	0x8
 451:	0400                	li	s0,0
 453:	002e                	j	47d <.Ldebug_abbrev0+0x12>
 455:	0e03193f 0b3b0b3a 	0xb3b0b3a0e03193f
 45d:	01111927          	0x1111927
 461:	0612                	j	765 <.Ldebug_abbrev0+0xd0>
 463:	1840                	add	a6,a6,a6
 465:	00194297          	auipc	t0,0x194
	...

0000046b <.Ldebug_abbrev0>:
 46b:	1101                	slli	sp,sp,0x20
 46d:	2501                	srli	a0,a0,0x0
 46f:	130e                	j	fffffe11 <.L0 +0xfffebb61>
 471:	110e030b          	custom0	6,28,16,8
 475:	1201                	slli	tp,tp,0x20
 477:	1006                	j	fffffc97 <.L0 +0xfffeb9e7>
 479:	02000017          	auipc	zero,0x2000
 47d:	0024                	0x24
 47f:	0b3e0b0b          	custom0	22,28,19,5
 483:	00000e03          	lb	t3,0(zero) # 2000479 <.L0 +0x1fec1c9>
 487:	0b002403          	lw	s0,176(zero)
 48b:	030b3e0b          	custom0	28,s6,a6,1
 48f:	0008                	0x8
 491:	0400                	li	s0,0
 493:	0016                	j	4b7 <.Ldebug_abbrev0+0x4c>
 495:	0b3a0e03          	lb	t3,179(s4)
 499:	13490b3b          	0x13490b3b
 49d:	0000                	unimp
 49f:	2e05                	srli	t3,t3,0x1
 4a1:	0301                	slli	t1,t1,0x0
 4a3:	3a0e                	jal	1c5 <.Ldebug_abbrev0+0x1c5>
 4a5:	270b3b0b          	custom0	22,s6,a6,19
 4a9:	4919                	sw	t1,144(sp)
 4ab:	12011113          	0x12011113
 4af:	4006                	beqz	s0,4cf <.Ldebug_abbrev0+0x64>
 4b1:	9718                	0x9718
 4b3:	1942                	j	143 <.Ldebug_abbrev0+0x143>
 4b5:	1301                	slli	t1,t1,0x20
 4b7:	0000                	unimp
 4b9:	0506                	j	759 <.Ldebug_abbrev0+0xc4>
 4bb:	0300                	li	t1,0
 4bd:	3a08                	srai	s4,s4,0x22
 4bf:	490b3b0b          	custom0	22,s6,a6,36
 4c3:	00180213          	addi	tp,a6,1
 4c7:	0700                	li	a4,0
 4c9:	0005                	0x5
 4cb:	0b3a0e03          	lb	t3,179(s4)
 4cf:	13490b3b          	0x13490b3b
 4d3:	1802                	j	d3 <.Ldebug_abbrev0+0xd3>
 4d5:	0000                	unimp
 4d7:	3408                	srai	s0,s0,0x22
 4d9:	0300                	li	t1,0
 4db:	3a08                	srai	s4,s4,0x22
 4dd:	490b3b0b          	custom0	22,s6,a6,36
 4e1:	00180213          	addi	tp,a6,1
 4e5:	0900                	li	s2,0
 4e7:	0034                	0x34
 4e9:	0b3a0e03          	lb	t3,179(s4)
 4ed:	13490b3b          	0x13490b3b
 4f1:	1802                	j	f1 <.Ldebug_abbrev0+0xf1>
 4f3:	0000                	unimp
 4f5:	0b0a                	j	a77 <.Ldebug_abbrev0+0x133>
 4f7:	1101                	slli	sp,sp,0x20
 4f9:	1201                	slli	tp,tp,0x20
 4fb:	0006                	j	51b <.Ldebug_abbrev0+0xb0>
 4fd:	0b00                	li	s6,0
 4ff:	0101                	slli	sp,sp,0x0
 501:	1349                	slli	t1,t1,0x32
 503:	1301                	slli	t1,t1,0x20
 505:	0000                	unimp
 507:	210c                	srai	sp,sp,0x3
 509:	4900                	sw	s0,16(a0)
 50b:	000b2f13          	slti	t5,s6,0
 50f:	0d00                	li	s10,0
 511:	0035                	0x35
 513:	1349                	slli	t1,t1,0x32
 515:	0000                	unimp
 517:	2e0e                	jal	c39 <.LASF19+0x8>
 519:	3f01                	srli	t5,t5,0x20
 51b:	0319                	slli	t1,t1,0x6
 51d:	3a0e                	jal	23f <.Ldebug_abbrev0+0xe>
 51f:	270b3b0b          	custom0	22,s6,a6,19
 523:	4919                	sw	t1,144(sp)
 525:	12011113          	0x12011113
 529:	4006                	beqz	s0,549 <.Ldebug_abbrev0+0xde>
 52b:	9618                	0x9618
 52d:	1942                	j	1bd <.Ldebug_abbrev0+0x1bd>
 52f:	1301                	slli	t1,t1,0x20
 531:	0000                	unimp
 533:	0b000f0f          	0xb000f0f
 537:	0013490b          	custom0	s2,6,1,0
 53b:	1000                	ebreak
 53d:	0034                	0x34
 53f:	0b3a0803          	lb	a6,179(s4)
 543:	13490b3b          	0x13490b3b
 547:	0000                	unimp
 549:	3411                	srli	s0,s0,0x24
 54b:	0300                	li	t1,0
 54d:	3a0e                	jal	26f <.Ldebug_abbrev0+0x3e>
 54f:	490b3b0b          	custom0	22,s6,a6,36
 553:	12000013          	li	zero,288
 557:	0b0b000f          	0xb0b000f
 55b:	0000                	unimp
	...

0000055e <.Ldebug_abbrev0>:
 55e:	1101                	slli	sp,sp,0x20
 560:	2501                	srli	a0,a0,0x0
 562:	130e                	j	ffffff04 <.L0 +0xfffebc54>
 564:	110e030b          	custom0	6,28,16,8
 568:	1201                	slli	tp,tp,0x20
 56a:	1006                	j	fffffd8a <.L0 +0xfffebada>
 56c:	02000017          	auipc	zero,0x2000
 570:	0024                	0x24
 572:	0b3e0b0b          	custom0	22,28,19,5
 576:	00000e03          	lb	t3,0(zero) # 200056c <.L0 +0x1fec2bc>
 57a:	0b002403          	lw	s0,176(zero)
 57e:	030b3e0b          	custom0	28,s6,a6,1
 582:	0008                	0x8
 584:	0400                	li	s0,0
 586:	0016                	j	5aa <.Ldebug_abbrev0+0x4c>
 588:	0b3a0e03          	lb	t3,179(s4)
 58c:	13490b3b          	0x13490b3b
 590:	0000                	unimp
 592:	1305                	slli	t1,t1,0x21
 594:	0301                	slli	t1,t1,0x0
 596:	0b0e                	j	b38 <.Ldebug_abbrev0+0x1f4>
 598:	3b0b3a0b          	custom0	20,s6,a6,29
 59c:	0013010b          	custom0	2,6,1,0
 5a0:	0600                	li	a2,0
 5a2:	000d                	0xd
 5a4:	0b3a0e03          	lb	t3,179(s4)
 5a8:	13490b3b          	0x13490b3b
 5ac:	0b38                	mv	s6,a4
 5ae:	0000                	unimp
 5b0:	49010107          	0x49010107
 5b4:	00130113          	addi	sp,t1,1
 5b8:	0800                	li	a6,0
 5ba:	0021                	0x21
 5bc:	1349                	slli	t1,t1,0x32
 5be:	00000b2f          	0xb2f
 5c2:	2e09                	srli	t3,t3,0x2
 5c4:	0301                	slli	t1,t1,0x0
 5c6:	3a0e                	jal	2e8 <.Ldebug_abbrev0+0xb7>
 5c8:	270b3b0b          	custom0	22,s6,a6,19
 5cc:	4919                	sw	t1,144(sp)
 5ce:	12011113          	0x12011113
 5d2:	4006                	beqz	s0,5f2 <.Ldebug_abbrev0+0x94>
 5d4:	9718                	0x9718
 5d6:	1942                	j	266 <.Ldebug_abbrev0+0x35>
 5d8:	1301                	slli	t1,t1,0x20
 5da:	0000                	unimp
 5dc:	050a                	j	85e <.Ldebug_abbrev0+0x92>
 5de:	0300                	li	t1,0
 5e0:	3a0e                	jal	302 <.Ldebug_abbrev0+0xd1>
 5e2:	490b3b0b          	custom0	22,s6,a6,36
 5e6:	00180213          	addi	tp,a6,1
 5ea:	0b00                	li	s6,0
 5ec:	0b0b000f          	0xb0b000f
 5f0:	1349                	slli	t1,t1,0x32
 5f2:	0000                	unimp
 5f4:	2e0c                	srai	t3,t3,0x3
 5f6:	3f01                	srli	t5,t5,0x20
 5f8:	0319                	slli	t1,t1,0x6
 5fa:	3a0e                	jal	31c <.Ldebug_abbrev0+0xeb>
 5fc:	270b3b0b          	custom0	22,s6,a6,19
 600:	4919                	sw	t1,144(sp)
 602:	12011113          	0x12011113
 606:	4006                	beqz	s0,626 <.Ldebug_abbrev0+0xc8>
 608:	9718                	0x9718
 60a:	1942                	j	29a <.Ldebug_abbrev0+0x69>
 60c:	1301                	slli	t1,t1,0x20
 60e:	0000                	unimp
 610:	2e0d                	srli	t3,t3,0x3
 612:	3f01                	srli	t5,t5,0x20
 614:	0319                	slli	t1,t1,0x6
 616:	3a0e                	jal	338 <.Ldebug_abbrev0+0x107>
 618:	270b3b0b          	custom0	22,s6,a6,19
 61c:	4919                	sw	t1,144(sp)
 61e:	12011113          	0x12011113
 622:	4006                	beqz	s0,642 <.Ldebug_abbrev0+0xe4>
 624:	9618                	0x9618
 626:	1942                	j	2b6 <.Ldebug_abbrev0+0x85>
 628:	1301                	slli	t1,t1,0x20
 62a:	0000                	unimp
 62c:	340e                	jal	4e <.Ldebug_abbrev0+0x4e>
 62e:	0300                	li	t1,0
 630:	3a0e                	jal	352 <.Ldebug_abbrev0+0x121>
 632:	490b3b0b          	custom0	22,s6,a6,36
 636:	00180213          	addi	tp,a6,1
 63a:	0f00                	li	t5,0
 63c:	0005                	0x5
 63e:	0b3a0803          	lb	a6,179(s4)
 642:	13490b3b          	0x13490b3b
 646:	1802                	j	246 <.Ldebug_abbrev0+0x15>
 648:	0000                	unimp
 64a:	0f10                	mv	t5,tp
 64c:	0b00                	li	s6,0
 64e:	1100000b          	custom0	0,0,16,8
 652:	0034                	0x34
 654:	0b3a0803          	lb	a6,179(s4)
 658:	13490b3b          	0x13490b3b
 65c:	1802                	j	25c <.Ldebug_abbrev0+0x2b>
 65e:	0000                	unimp
 660:	2e12                	jal	d64 <.L0 +0x4>
 662:	3f01                	srli	t5,t5,0x20
 664:	0319                	slli	t1,t1,0x6
 666:	3a0e                	jal	388 <.Ldebug_abbrev0+0xc>
 668:	270b3b0b          	custom0	22,s6,a6,19
 66c:	1119                	slli	sp,sp,0x26
 66e:	1201                	slli	tp,tp,0x20
 670:	4006                	beqz	s0,690 <.Ldebug_abbrev0+0x132>
 672:	9618                	0x9618
 674:	1942                	j	304 <.Ldebug_abbrev0+0xd3>
 676:	1301                	slli	t1,t1,0x20
 678:	0000                	unimp
 67a:	3f012e13          	slti	t3,sp,1008
 67e:	0319                	slli	t1,t1,0x6
 680:	3a0e                	jal	3a2 <.Ldebug_abbrev0+0x26>
 682:	270b3b0b          	custom0	22,s6,a6,19
 686:	4919                	sw	t1,144(sp)
 688:	12011113          	0x12011113
 68c:	4006                	beqz	s0,6ac <.Ldebug_abbrev0+0x17>
 68e:	9718                	0x9718
 690:	1942                	j	320 <.Ldebug_abbrev0+0xef>
 692:	0000                	unimp
	...

00000695 <.Ldebug_abbrev0>:
 695:	1101                	slli	sp,sp,0x20
 697:	2501                	srli	a0,a0,0x0
 699:	130e                	j	3b <.Ldebug_abbrev0+0x3b>
 69b:	110e030b          	custom0	6,28,16,8
 69f:	1201                	slli	tp,tp,0x20
 6a1:	1006                	j	fffffec1 <.L0 +0xfffebc11>
 6a3:	02000017          	auipc	zero,0x2000
 6a7:	0024                	0x24
 6a9:	0b3e0b0b          	custom0	22,28,19,5
 6ad:	00000e03          	lb	t3,0(zero) # 20006a3 <.L0 +0x1fec3f3>
 6b1:	0b002403          	lw	s0,176(zero)
 6b5:	030b3e0b          	custom0	28,s6,a6,1
 6b9:	0008                	0x8
 6bb:	0400                	li	s0,0
 6bd:	0016                	j	6e1 <.Ldebug_abbrev0+0x4c>
 6bf:	0b3a0e03          	lb	t3,179(s4)
 6c3:	13490b3b          	0x13490b3b
 6c7:	0000                	unimp
 6c9:	0105                	slli	sp,sp,0x1
 6cb:	4901                	sw	zero,144(sp)
 6cd:	00130113          	addi	sp,t1,1
 6d1:	0600                	li	a2,0
 6d3:	0021                	0x21
 6d5:	1349                	slli	t1,t1,0x32
 6d7:	00000b2f          	0xb2f
 6db:	03011307          	0x3011307
 6df:	0b0e                	j	c81 <.L0 +0x5>
 6e1:	3b0b3a0b          	custom0	20,s6,a6,29
 6e5:	0013010b          	custom0	2,6,1,0
 6e9:	0800                	li	a6,0
 6eb:	000d                	0xd
 6ed:	0b3a0e03          	lb	t3,179(s4)
 6f1:	13490b3b          	0x13490b3b
 6f5:	0b38                	mv	s6,a4
 6f7:	0000                	unimp
 6f9:	2e09                	srli	t3,t3,0x2
 6fb:	0301                	slli	t1,t1,0x0
 6fd:	3a0e                	jal	41f <.Ldebug_abbrev0+0xa3>
 6ff:	270b3b0b          	custom0	22,s6,a6,19
 703:	4919                	sw	t1,144(sp)
 705:	12011113          	0x12011113
 709:	4006                	beqz	s0,729 <.Ldebug_abbrev0+0x94>
 70b:	9718                	0x9718
 70d:	1942                	j	39d <.Ldebug_abbrev0+0x21>
 70f:	1301                	slli	t1,t1,0x20
 711:	0000                	unimp
 713:	050a                	j	995 <.Ldebug_abbrev0+0x51>
 715:	0300                	li	t1,0
 717:	3a0e                	jal	439 <.Ldebug_abbrev0+0xe>
 719:	490b3b0b          	custom0	22,s6,a6,36
 71d:	00180213          	addi	tp,a6,1
 721:	0b00                	li	s6,0
 723:	0b0b000f          	0xb0b000f
 727:	1349                	slli	t1,t1,0x32
 729:	0000                	unimp
 72b:	2e0c                	srai	t3,t3,0x3
 72d:	3f01                	srli	t5,t5,0x20
 72f:	0319                	slli	t1,t1,0x6
 731:	3a0e                	jal	453 <.Ldebug_abbrev0+0x28>
 733:	270b3b0b          	custom0	22,s6,a6,19
 737:	4919                	sw	t1,144(sp)
 739:	12011113          	0x12011113
 73d:	4006                	beqz	s0,75d <.Ldebug_abbrev0+0xc8>
 73f:	9718                	0x9718
 741:	1942                	j	3d1 <.Ldebug_abbrev0+0x55>
 743:	1301                	slli	t1,t1,0x20
 745:	0000                	unimp
 747:	340d                	srli	s0,s0,0x23
 749:	0300                	li	t1,0
 74b:	3a0e                	jal	46d <.Ldebug_abbrev0+0x2>
 74d:	490b3b0b          	custom0	22,s6,a6,36
 751:	00180213          	addi	tp,a6,1
 755:	0e00                	li	t3,0
 757:	0b0b000f          	0xb0b000f
 75b:	0000                	unimp
 75d:	3f012e0f          	0x3f012e0f
 761:	0319                	slli	t1,t1,0x6
 763:	3a0e                	jal	485 <.Ldebug_abbrev0+0x1a>
 765:	270b3b0b          	custom0	22,s6,a6,19
 769:	4919                	sw	t1,144(sp)
 76b:	12011113          	0x12011113
 76f:	4006                	beqz	s0,78f <.Ldebug_abbrev0+0xfa>
 771:	9618                	0x9618
 773:	1942                	j	403 <.Ldebug_abbrev0+0x87>
 775:	1301                	slli	t1,t1,0x20
 777:	0000                	unimp
 779:	0510                	mv	a0,tp
 77b:	0300                	li	t1,0
 77d:	3a08                	srai	s4,s4,0x22
 77f:	490b3b0b          	custom0	22,s6,a6,36
 783:	00180213          	addi	tp,a6,1
 787:	1100                	add	sp,sp,zero
 789:	0034                	0x34
 78b:	0b3a0803          	lb	a6,179(s4)
 78f:	13490b3b          	0x13490b3b
 793:	1802                	j	393 <.Ldebug_abbrev0+0x17>
 795:	0000                	unimp
 797:	2e12                	jal	e9b <.LASF36>
 799:	3f01                	srli	t5,t5,0x20
 79b:	0319                	slli	t1,t1,0x6
 79d:	3a0e                	jal	4bf <.Ldebug_abbrev0+0x54>
 79f:	270b3b0b          	custom0	22,s6,a6,19
 7a3:	1119                	slli	sp,sp,0x26
 7a5:	1201                	slli	tp,tp,0x20
 7a7:	4006                	beqz	s0,7c7 <.Ldebug_abbrev0+0x132>
 7a9:	9618                	0x9618
 7ab:	1942                	j	43b <.Ldebug_abbrev0+0x10>
 7ad:	1301                	slli	t1,t1,0x20
 7af:	0000                	unimp
 7b1:	3f012e13          	slti	t3,sp,1008
 7b5:	0319                	slli	t1,t1,0x6
 7b7:	3a0e                	jal	4d9 <.Ldebug_abbrev0+0x6e>
 7b9:	270b3b0b          	custom0	22,s6,a6,19
 7bd:	4919                	sw	t1,144(sp)
 7bf:	12011113          	0x12011113
 7c3:	4006                	beqz	s0,7e3 <.Ldebug_abbrev0+0x17>
 7c5:	9718                	0x9718
 7c7:	1942                	j	457 <.Ldebug_abbrev0+0x2c>
 7c9:	0000                	unimp
	...

000007cc <.Ldebug_abbrev0>:
 7cc:	1101                	slli	sp,sp,0x20
 7ce:	2501                	srli	a0,a0,0x0
 7d0:	130e                	j	172 <.Ldebug_abbrev0+0x172>
 7d2:	110e030b          	custom0	6,28,16,8
 7d6:	1201                	slli	tp,tp,0x20
 7d8:	1006                	j	fffffff8 <.L0 +0xfffebd48>
 7da:	02000017          	auipc	zero,0x2000
 7de:	0024                	0x24
 7e0:	0b3e0b0b          	custom0	22,28,19,5
 7e4:	00000e03          	lb	t3,0(zero) # 20007da <.L0 +0x1fec52a>
 7e8:	0b002403          	lw	s0,176(zero)
 7ec:	030b3e0b          	custom0	28,s6,a6,1
 7f0:	0008                	0x8
 7f2:	0400                	li	s0,0
 7f4:	0016                	j	818 <.Ldebug_abbrev0+0x4c>
 7f6:	0b3a0e03          	lb	t3,179(s4)
 7fa:	13490b3b          	0x13490b3b
 7fe:	0000                	unimp
 800:	1305                	slli	t1,t1,0x21
 802:	0301                	slli	t1,t1,0x0
 804:	0b0e                	j	da6 <.L0 +0xa>
 806:	3b0b3a0b          	custom0	20,s6,a6,29
 80a:	0013010b          	custom0	2,6,1,0
 80e:	0600                	li	a2,0
 810:	000d                	0xd
 812:	0b3a0e03          	lb	t3,179(s4)
 816:	13490b3b          	0x13490b3b
 81a:	0b38                	mv	s6,a4
 81c:	0000                	unimp
 81e:	49010107          	0x49010107
 822:	00130113          	addi	sp,t1,1
 826:	0800                	li	a6,0
 828:	0021                	0x21
 82a:	1349                	slli	t1,t1,0x32
 82c:	00000b2f          	0xb2f
 830:	2e09                	srli	t3,t3,0x2
 832:	0301                	slli	t1,t1,0x0
 834:	3a0e                	jal	556 <.Ldebug_abbrev0+0xeb>
 836:	270b3b0b          	custom0	22,s6,a6,19
 83a:	4919                	sw	t1,144(sp)
 83c:	12011113          	0x12011113
 840:	4006                	beqz	s0,860 <.Ldebug_abbrev0+0x94>
 842:	9718                	0x9718
 844:	1942                	j	4d4 <.Ldebug_abbrev0+0x69>
 846:	1301                	slli	t1,t1,0x20
 848:	0000                	unimp
 84a:	050a                	j	acc <.Ldebug_abbrev0+0x188>
 84c:	0300                	li	t1,0
 84e:	3a0e                	jal	570 <.Ldebug_abbrev0+0x12>
 850:	490b3b0b          	custom0	22,s6,a6,36
 854:	00180213          	addi	tp,a6,1
 858:	0b00                	li	s6,0
 85a:	0b0b000f          	0xb0b000f
 85e:	1349                	slli	t1,t1,0x32
 860:	0000                	unimp
 862:	2e0c                	srai	t3,t3,0x3
 864:	0301                	slli	t1,t1,0x0
 866:	3a0e                	jal	588 <.Ldebug_abbrev0+0x2a>
 868:	270b3b0b          	custom0	22,s6,a6,19
 86c:	4919                	sw	t1,144(sp)
 86e:	12011113          	0x12011113
 872:	4006                	beqz	s0,892 <.Ldebug_abbrev0+0xc6>
 874:	9618                	0x9618
 876:	1942                	j	506 <.Ldebug_abbrev0+0x9b>
 878:	1301                	slli	t1,t1,0x20
 87a:	0000                	unimp
 87c:	050d                	slli	a0,a0,0x3
 87e:	0300                	li	t1,0
 880:	3a08                	srai	s4,s4,0x22
 882:	490b3b0b          	custom0	22,s6,a6,36
 886:	00180213          	addi	tp,a6,1
 88a:	0e00                	li	t3,0
 88c:	012e                	j	936 <.Ldebug_abbrev0+0x16a>
 88e:	0e03193f 0b3b0b3a 	0xb3b0b3a0e03193f
 896:	13491927          	0x13491927
 89a:	0111                	slli	sp,sp,0x4
 89c:	0612                	j	ba0 <.L0 >
 89e:	1840                	add	a6,a6,a6
 8a0:	4296                	beqz	a3,8c4 <.Ldebug_abbrev0+0xf8>
 8a2:	0119                	slli	sp,sp,0x6
 8a4:	0f000013          	li	zero,240
 8a8:	0b0b000f          	0xb0b000f
 8ac:	0000                	unimp
 8ae:	2e10                	srai	t3,t3,0x4
 8b0:	3f01                	srli	t5,t5,0x20
 8b2:	0319                	slli	t1,t1,0x6
 8b4:	3a0e                	jal	5d6 <.Ldebug_abbrev0+0x78>
 8b6:	270b3b0b          	custom0	22,s6,a6,19
 8ba:	1119                	slli	sp,sp,0x26
 8bc:	1201                	slli	tp,tp,0x20
 8be:	4006                	beqz	s0,8de <.Ldebug_abbrev0+0x112>
 8c0:	9618                	0x9618
 8c2:	1942                	j	552 <.Ldebug_abbrev0+0xe7>
 8c4:	1301                	slli	t1,t1,0x20
 8c6:	0000                	unimp
 8c8:	2e11                	srli	t3,t3,0x4
 8ca:	3f01                	srli	t5,t5,0x20
 8cc:	0319                	slli	t1,t1,0x6
 8ce:	3a0e                	jal	5f0 <.Ldebug_abbrev0+0x92>
 8d0:	27053b0b          	custom0	22,a0,a6,19
 8d4:	4919                	sw	t1,144(sp)
 8d6:	12011113          	0x12011113
 8da:	4006                	beqz	s0,8fa <.Ldebug_abbrev0+0x12e>
 8dc:	9618                	0x9618
 8de:	1942                	j	56e <.Ldebug_abbrev0+0x10>
 8e0:	1301                	slli	t1,t1,0x20
 8e2:	0000                	unimp
 8e4:	0512                	j	b68 <.L0 +0x4>
 8e6:	0300                	li	t1,0
 8e8:	3a0e                	jal	60a <.Ldebug_abbrev0+0xac>
 8ea:	49053b0b          	custom0	22,a0,a6,36
 8ee:	00180213          	addi	tp,a6,1
 8f2:	1300                	add	t1,t1,zero
 8f4:	0005                	0x5
 8f6:	0b3a0803          	lb	a6,179(s4)
 8fa:	1349053b          	0x1349053b
 8fe:	1802                	j	4fe <.Ldebug_abbrev0+0x93>
 900:	0000                	unimp
 902:	3414                	srai	s0,s0,0x25
 904:	0300                	li	t1,0
 906:	3a0e                	jal	628 <.Ldebug_abbrev0+0xca>
 908:	49053b0b          	custom0	22,a0,a6,36
 90c:	00180213          	addi	tp,a6,1
 910:	1500                	add	a0,a0,zero
 912:	0034                	0x34
 914:	0b3a0803          	lb	a6,179(s4)
 918:	1349053b          	0x1349053b
 91c:	1802                	j	51c <.Ldebug_abbrev0+0xb1>
 91e:	0000                	unimp
 920:	0b16                	j	ec4 <.LASF32+0x6>
 922:	1101                	slli	sp,sp,0x20
 924:	1201                	slli	tp,tp,0x20
 926:	0006                	j	946 <.Ldebug_abbrev0+0x2>
 928:	1700                	add	a4,a4,zero
 92a:	012e                	j	9d4 <.Ldebug_abbrev0+0x90>
 92c:	0e03193f 053b0b3a 	0x53b0b3a0e03193f
 934:	13491927          	0x13491927
 938:	0111                	slli	sp,sp,0x4
 93a:	0612                	j	c3e <.L0 +0x2>
 93c:	1840                	add	a6,a6,a6
 93e:	4296                	beqz	a3,962 <.Ldebug_abbrev0+0x1e>
 940:	0019                	0x19
	...

00000944 <.Ldebug_abbrev0>:
 944:	1101                	slli	sp,sp,0x20
 946:	2501                	srli	a0,a0,0x0
 948:	130e                	j	2ea <.Ldebug_abbrev0+0xb9>
 94a:	110e030b          	custom0	6,28,16,8
 94e:	1201                	slli	tp,tp,0x20
 950:	1006                	j	170 <.Ldebug_abbrev0+0x170>
 952:	02000017          	auipc	zero,0x2000
 956:	0e030113          	addi	sp,t1,224
 95a:	0b3a0b0b          	custom0	22,20,19,5
 95e:	13010b3b          	0x13010b3b
 962:	0000                	unimp
 964:	03000d03          	lb	s10,48(zero) # 2000982 <.L0 +0x1fec6d2>
 968:	3a0e                	jal	68a <.Ldebug_abbrev0+0x12c>
 96a:	490b3b0b          	custom0	22,s6,a6,36
 96e:	000b3813          	sltiu	a6,s6,0
 972:	0400                	li	s0,0
 974:	0101                	slli	sp,sp,0x0
 976:	1349                	slli	t1,t1,0x32
 978:	1301                	slli	t1,t1,0x20
 97a:	0000                	unimp
 97c:	2105                	srli	sp,sp,0x1
 97e:	4900                	sw	s0,16(a0)
 980:	000b2f13          	slti	t5,s6,0
 984:	0600                	li	a2,0
 986:	0024                	0x24
 988:	0b3e0b0b          	custom0	22,28,19,5
 98c:	00000e03          	lb	t3,0(zero)
 990:	03012e07          	flw	ft8,48(sp)
 994:	3a0e                	jal	6b6 <.Ldebug_abbrev0+0x21>
 996:	270b3b0b          	custom0	22,s6,a6,19
 99a:	4919                	sw	t1,144(sp)
 99c:	010b2013          	slti	zero,s6,16
 9a0:	08000013          	li	zero,128
 9a4:	0005                	0x5
 9a6:	0b3a0803          	lb	a6,179(s4)
 9aa:	13490b3b          	0x13490b3b
 9ae:	0000                	unimp
 9b0:	3409                	srli	s0,s0,0x22
 9b2:	0300                	li	t1,0
 9b4:	3a08                	srai	s4,s4,0x22
 9b6:	490b3b0b          	custom0	22,s6,a6,36
 9ba:	0a000013          	li	zero,160
 9be:	0024                	0x24
 9c0:	0b3e0b0b          	custom0	22,28,19,5
 9c4:	00000803          	lb	a6,0(zero)
 9c8:	0b000f0b          	custom0	30,0,16,5
 9cc:	0013490b          	custom0	s2,6,1,0
 9d0:	0c00                	li	s8,0
 9d2:	0026                	j	9fa <.Ldebug_abbrev0+0xb6>
 9d4:	1349                	slli	t1,t1,0x32
 9d6:	0000                	unimp
 9d8:	050d                	slli	a0,a0,0x3
 9da:	0300                	li	t1,0
 9dc:	3a0e                	jal	6fe <.Ldebug_abbrev0+0x69>
 9de:	490b3b0b          	custom0	22,s6,a6,36
 9e2:	0e000013          	li	zero,224
 9e6:	0034                	0x34
 9e8:	0b3a0e03          	lb	t3,179(s4)
 9ec:	13490b3b          	0x13490b3b
 9f0:	0000                	unimp
 9f2:	31012e0f          	0x31012e0f
 9f6:	12011113          	0x12011113
 9fa:	4006                	beqz	s0,a1a <.Ldebug_abbrev0+0xd6>
 9fc:	9718                	0x9718
 9fe:	1942                	j	68e <.Ldebug_abbrev0+0x130>
 a00:	1301                	slli	t1,t1,0x20
 a02:	0000                	unimp
 a04:	0510                	mv	a0,tp
 a06:	3100                	srai	sp,sp,0x20
 a08:	00170213          	addi	tp,a4,1
 a0c:	1100                	add	sp,sp,zero
 a0e:	0034                	0x34
 a10:	1331                	slli	t1,t1,0x2c
 a12:	1702                	j	592 <.Ldebug_abbrev0+0x34>
 a14:	0000                	unimp
 a16:	0512                	j	c9a <.L0 +0x1e>
 a18:	3100                	srai	sp,sp,0x20
 a1a:	000b1c13          	slli	s8,s6,0x0
 a1e:	1300                	add	t1,t1,zero
 a20:	012e                	j	aca <.Ldebug_abbrev0+0x186>
 a22:	0e03193f 0b3b0b3a 	0xb3b0b3a0e03193f
 a2a:	13491927          	0x13491927
 a2e:	0111                	slli	sp,sp,0x4
 a30:	0612                	j	d34 <.L0 +0xc>
 a32:	1840                	add	a6,a6,a6
 a34:	01194297          	auipc	t0,0x1194
 a38:	14000013          	li	zero,320
 a3c:	0005                	0x5
 a3e:	0b3a0e03          	lb	t3,179(s4)
 a42:	13490b3b          	0x13490b3b
 a46:	1702                	j	5c6 <.Ldebug_abbrev0+0x68>
 a48:	0000                	unimp
 a4a:	3415                	srli	s0,s0,0x25
 a4c:	0300                	li	t1,0
 a4e:	3a0e                	jal	770 <.Ldebug_abbrev0+0xdb>
 a50:	490b3b0b          	custom0	22,s6,a6,36
 a54:	00170213          	addi	tp,a4,1
 a58:	1600                	add	a2,a2,zero
 a5a:	011d                	slli	sp,sp,0x7
 a5c:	1331                	slli	t1,t1,0x2c
 a5e:	0111                	slli	sp,sp,0x4
 a60:	0612                	j	d64 <.L0 +0x4>
 a62:	0b58                	mv	s6,s6
 a64:	0b59                	slli	s6,s6,0x16
 a66:	1301                	slli	t1,t1,0x20
 a68:	0000                	unimp
 a6a:	31000517          	auipc	a0,0x31000
 a6e:	00180213          	addi	tp,a6,1
 a72:	1800                	add	a6,a6,zero
 a74:	0111010b          	custom0	2,2,17,0
 a78:	0612                	j	d7c <.L0 >
 a7a:	0000                	unimp
 a7c:	8919                	addi	a4,a0,2
 a7e:	0182                	j	b3e <.LASF22+0x4>
 a80:	1101                	slli	sp,sp,0x20
 a82:	3101                	srli	sp,sp,0x20
 a84:	00130113          	addi	sp,t1,1
 a88:	1a00                	add	s4,s4,zero
 a8a:	828a                	li	t0,2
 a8c:	0001                	0x1
 a8e:	1802                	j	68e <.Ldebug_abbrev0+0x130>
 a90:	4291                	sw	tp,68(sp)
 a92:	0018                	0x18
 a94:	1b00                	add	s6,s6,zero
 a96:	8289                	addi	a0,a3,0
 a98:	0101                	slli	sp,sp,0x0
 a9a:	0111                	slli	sp,sp,0x4
 a9c:	1331                	slli	t1,t1,0x2c
 a9e:	0000                	unimp
 aa0:	0f1c                	mv	t5,t2
 aa2:	0b00                	li	s6,0
 aa4:	1d00000b          	custom0	0,0,16,14
 aa8:	0005                	0x5
 aaa:	0b3a0803          	lb	a6,179(s4)
 aae:	13490b3b          	0x13490b3b
 ab2:	1702                	j	632 <.Ldebug_abbrev0+0xd4>
 ab4:	0000                	unimp
 ab6:	341e                	jal	4dc <.Ldebug_abbrev0+0x71>
 ab8:	0300                	li	t1,0
 aba:	3a08                	srai	s4,s4,0x22
 abc:	490b3b0b          	custom0	22,s6,a6,36
 ac0:	00170213          	addi	tp,a4,1
 ac4:	1f00                	add	t5,t5,zero
 ac6:	0034                	0x34
 ac8:	0b3a0e03          	lb	t3,179(s4)
 acc:	13490b3b          	0x13490b3b
 ad0:	1802                	j	6d0 <.Ldebug_abbrev0+0x3b>
 ad2:	0000                	unimp
 ad4:	0b20                	mv	s6,s0
 ad6:	5501                	sw	zero,168(sp)
 ad8:	21000017          	auipc	zero,0x21000
 adc:	012e                	j	b86 <.L0 +0x2>
 ade:	0e03193f 0b3b0b3a 	0xb3b0b3a0e03193f
 ae6:	01111927          	0x1111927
 aea:	0612                	j	dee <.LASF65+0x9>
 aec:	1840                	add	a6,a6,a6
 aee:	4296                	beqz	a3,b12 <.Ldebug_abbrev0+0x1ce>
 af0:	0119                	slli	sp,sp,0x6
 af2:	22000013          	li	zero,544 # 21000cf8 <.L0 +0x20feca48>
 af6:	0005                	0x5
 af8:	0b3a0e03          	lb	t3,179(s4)
 afc:	13490b3b          	0x13490b3b
 b00:	1802                	j	700 <.Ldebug_abbrev0+0x6b>
 b02:	0000                	unimp
 b04:	03000523          	sb	a6,42(zero)
 b08:	3a08                	srai	s4,s4,0x22
 b0a:	490b3b0b          	custom0	22,s6,a6,36
 b0e:	00180213          	addi	tp,a6,1
 b12:	2400                	srai	s0,s0,0x0
 b14:	0034                	0x34
 b16:	0b3a0803          	lb	a6,179(s4)
 b1a:	13490b3b          	0x13490b3b
 b1e:	1802                	j	71e <.Ldebug_abbrev0+0x89>
 b20:	0000                	unimp
 b22:	1d25                	slli	s10,s10,0x29
 b24:	3101                	srli	sp,sp,0x20
 b26:	12011113          	0x12011113
 b2a:	5806                	beqz	s0,aca <.Ldebug_abbrev0+0x186>
 b2c:	000b590b          	0xb590b
 b30:	2600                	srai	a2,a2,0x0
 b32:	0034                	0x34
 b34:	1331                	slli	t1,t1,0x2c
 b36:	0000                	unimp
	...

Disassembly of section .debug_aranges:

00000000 <.debug_aranges>:
   0:	001c                	0x1c
   2:	0000                	unimp
   4:	0002                	j	4 <.debug_aranges+0x4>
   6:	0000                	unimp
   8:	0000                	unimp
   a:	0004                	0x4
	...
  20:	001c                	0x1c
  22:	0000                	unimp
  24:	0002                	j	24 <.debug_aranges+0x24>
  26:	0000                	unimp
  28:	0000                	unimp
  2a:	0004                	0x4
	...
  40:	001c                	0x1c
  42:	0000                	unimp
  44:	0002                	j	44 <.debug_aranges+0x44>
  46:	0000                	unimp
  48:	0000                	unimp
  4a:	0004                	0x4
	...
  60:	001c                	0x1c
  62:	0000                	unimp
  64:	0002                	j	64 <.debug_aranges+0x64>
  66:	0000                	unimp
  68:	0000                	unimp
  6a:	0004                	0x4
	...
  80:	001c                	0x1c
  82:	0000                	unimp
  84:	0002                	j	84 <.debug_aranges+0x84>
  86:	0000                	unimp
  88:	0000                	unimp
  8a:	0004                	0x4
	...
  a0:	001c                	0x1c
  a2:	0000                	unimp
  a4:	0002                	j	a4 <.debug_aranges+0xa4>
  a6:	0000                	unimp
  a8:	0000                	unimp
  aa:	0004                	0x4
	...
  c0:	001c                	0x1c
  c2:	0000                	unimp
  c4:	0002                	j	c4 <.debug_aranges+0xc4>
  c6:	0000                	unimp
  c8:	0000                	unimp
  ca:	0004                	0x4
	...
  e0:	001c                	0x1c
  e2:	0000                	unimp
  e4:	0002                	j	e4 <.debug_aranges+0xe4>
  e6:	0000                	unimp
  e8:	0000                	unimp
  ea:	0004                	0x4
	...
 100:	001c                	0x1c
 102:	0000                	unimp
 104:	0002                	j	104 <.debug_aranges+0x104>
 106:	0000                	unimp
 108:	0000                	unimp
 10a:	0004                	0x4
	...
 120:	001c                	0x1c
 122:	0000                	unimp
 124:	0002                	j	124 <.debug_aranges+0x124>
 126:	0000                	unimp
 128:	0000                	unimp
 12a:	0004                	0x4
	...

Disassembly of section .debug_ranges:

00000000 <.Ldebug_ranges0>:
	...

00000018 <.Ldebug_ranges0>:
	...

Disassembly of section .debug_line:

00000000 <.Ldebug_line0>:
       0:	07f5                	slli	a5,a5,0x1d
       2:	0000                	unimp
       4:	0004                	0x4
       6:	0100                	li	sp,0
       8:	0000                	unimp
       a:	0101                	slli	sp,sp,0x0
       c:	f601                	bgez	a2,ffffff4c <.L0 +0xfffebc9c>
       e:	0df2                	j	6ea <.Ldebug_line0+0x6ea>
      10:	0100                	li	sp,0
      12:	0101                	slli	sp,sp,0x0
      14:	0001                	0x1
      16:	0000                	unimp
      18:	0001                	0x1
      1a:	0100                	li	sp,0
      1c:	6d6f682f          	0x6d6f682f
      20:	2f65                	srli	t5,t5,0x19
      22:	6568                	sltu	a0,a0,a0
      24:	6d616873          	csrrs	a6,0x6d6,2
      28:	6f72502f          	0x6f72502f
      2c:	656a                	bnez	a0,86 <.Ldebug_line0+0x86>
      2e:	2f737463          	bleu	s7,t1,316 <.Ldebug_line0+0x316>
      32:	344c6573          	csrrs	a0,mip,24
      36:	4c65732f          	0x4c65732f
      3a:	7234                	0x7234
      3c:	7369                	bltz	a4,ffffff56 <.L0 +0xfffebca6>
      3e:	6d2d7663          	bleu	s2,s10,70a <.Ldebug_line0+0x70a>
      42:	6c75                	bltz	s0,13e <.Ldebug_line0+0x13e>
      44:	6974                	0x6974
      46:	6e72656b          	0x6e72656b
      4a:	6c65                	bltz	s0,142 <.Ldebug_line0+0x142>
      4c:	6f6f742f          	0x6f6f742f
      50:	736c                	0x736c
      52:	6d6f632f          	0x6d6f632f
      56:	6f6d                	bltz	a4,150 <.Ldebug_line0+0x150>
      58:	2f6e                	jal	812 <.Ldebug_line0+0x19>
      5a:	2e2e                	jal	784 <.Ldebug_line0+0x784>
      5c:	666c652f          	0x666c652f
      60:	6f6c                	sltu	a1,a4,a1
      62:	6461                	bltz	s0,ba <.Ldebug_line0+0xba>
      64:	7265                	bltz	a2,ffffff9c <.L0 +0xfffebcec>
      66:	6372732f          	0x6372732f
      6a:	6372612f          	0x6372612f
      6e:	2d68                	srai	s10,s10,0x1a
      70:	6972                	bnez	a0,10c <.Ldebug_line0+0x10c>
      72:	00766373          	csrrs	t1,0x7,12
      76:	6d6f682f          	0x6d6f682f
      7a:	2f65                	srli	t5,t5,0x19
      7c:	6568                	sltu	a0,a0,a0
      7e:	6d616873          	csrrs	a6,0x6d6,2
      82:	6f72502f          	0x6f72502f
      86:	656a                	bnez	a0,e0 <.Ldebug_line0+0xe0>
      88:	2f737463          	bleu	s7,t1,370 <.Ldebug_line0+0x370>
      8c:	344c6573          	csrrs	a0,mip,24
      90:	4c65732f          	0x4c65732f
      94:	7234                	0x7234
      96:	7369                	bltz	a4,ffffffb0 <.L0 +0xfffebd00>
      98:	6d2d7663          	bleu	s2,s10,764 <.Ldebug_line0+0x764>
      9c:	6c75                	bltz	s0,198 <.Ldebug_line0+0x198>
      9e:	6974                	0x6974
      a0:	6e72656b          	0x6e72656b
      a4:	6c65                	bltz	s0,19c <.Ldebug_line0+0x19c>
      a6:	6f6f742f          	0x6f6f742f
      aa:	736c                	0x736c
      ac:	6d6f632f          	0x6d6f632f
      b0:	6f6d                	bltz	a4,1aa <.Ldebug_line0+0x1aa>
      b2:	2f6e                	jal	86c <.Ldebug_line0+0x73>
      b4:	2e2e                	jal	7de <.Ldebug_line0+0x7de>
      b6:	666c652f          	0x666c652f
      ba:	6f6c                	sltu	a1,a4,a1
      bc:	6461                	bltz	s0,114 <.Ldebug_line0+0x114>
      be:	7265                	bltz	a2,fffffff6 <.L0 +0xfffebd46>
      c0:	6372732f          	0x6372732f
      c4:	6372612f          	0x6372612f
      c8:	2d68                	srai	s10,s10,0x1a
      ca:	6972                	bnez	a0,166 <.Ldebug_line0+0x166>
      cc:	2f766373          	csrrs	t1,0x2f7,12
      d0:	6c65                	bltz	s0,1c8 <.Ldebug_line0+0x1c8>
      d2:	0066                	j	10a <.Ldebug_line0+0x10a>
      d4:	6500                	sll	a0,a0,s0
      d6:	666c                	sltu	a2,a2,a1
      d8:	666c652f          	0x666c652f
      dc:	682e3233          	0x682e3233
      e0:	0100                	li	sp,0
      e2:	0000                	unimp
      e4:	6f62                	bnez	a4,1bc <.Ldebug_line0+0x1bc>
      e6:	632e746f          	jal	s0,e7718 <.L0 +0xd3468>
      ea:	0100                	li	sp,0
      ec:	0000                	unimp
      ee:	69647473          	csrrc	s0,0x696,8
      f2:	746e                	bnez	s0,6c <.Ldebug_line0+0x6c>
      f4:	682e                	bnez	s0,19e <.Ldebug_line0+0x19e>
      f6:	0100                	li	sp,0
      f8:	0000                	unimp
      fa:	6c65                	bltz	s0,1f2 <.Ldebug_line0+0x1f2>
      fc:	6c66                	bnez	s0,1f4 <.Ldebug_line0+0x1f4>
      fe:	6564616f          	jal	sp,46754 <.L0 +0x324a4>
     102:	2e72                	jal	81e <.Ldebug_line0+0x25>
     104:	0068                	0x68
     106:	0001                	0x1
     108:	0000                	unimp
     10a:	0500                	li	a0,0
     10c:	0002                	j	10c <.Ldebug_line0+0x10c>
     10e:	0000                	unimp
     110:	d400                	lw	s0,40(s0)
     112:	0500                	li	a0,0
     114:	0002                	j	114 <.Ldebug_line0+0x114>
     116:	0000                	unimp
     118:	1900                	add	s2,s2,zero
     11a:	0500                	li	a0,0
     11c:	0002                	j	11c <.Ldebug_line0+0x11c>
     11e:	0000                	unimp
     120:	1800                	add	a6,a6,zero
     122:	0500                	li	a0,0
     124:	0002                	j	124 <.Ldebug_line0+0x124>
     126:	0000                	unimp
     128:	2200                	srai	tp,tp,0x0
     12a:	0500                	li	a0,0
     12c:	0002                	j	12c <.Ldebug_line0+0x12c>
     12e:	0000                	unimp
     130:	1800                	add	a6,a6,zero
     132:	0500                	li	a0,0
     134:	0002                	j	134 <.Ldebug_line0+0x134>
     136:	0000                	unimp
     138:	1800                	add	a6,a6,zero
     13a:	0500                	li	a0,0
     13c:	0002                	j	13c <.Ldebug_line0+0x13c>
     13e:	0000                	unimp
     140:	0400                	li	s0,0
     142:	0302                	j	2c2 <.Ldebug_line0+0x2c2>
     144:	7fb5                	bltz	a5,130 <.Ldebug_line0+0x130>
     146:	0001                	0x1
     148:	0205                	slli	tp,tp,0x1
     14a:	0000                	unimp
     14c:	0000                	unimp
     14e:	0020                	0x20
     150:	0205                	slli	tp,tp,0x1
     152:	0000                	unimp
     154:	0000                	unimp
     156:	0018                	0x18
     158:	0205                	slli	tp,tp,0x1
     15a:	0000                	unimp
     15c:	0000                	unimp
     15e:	0019                	0x19
     160:	0205                	slli	tp,tp,0x1
     162:	0000                	unimp
     164:	0000                	unimp
     166:	0030                	0x30
     168:	0205                	slli	tp,tp,0x1
     16a:	0000                	unimp
     16c:	0000                	unimp
     16e:	0200                	li	tp,0
     170:	0304                	mv	t1,ra
     172:	0019                	0x19
     174:	0205                	slli	tp,tp,0x1
     176:	0000                	unimp
     178:	0000                	unimp
     17a:	0015                	0x15
     17c:	0205                	slli	tp,tp,0x1
     17e:	0000                	unimp
     180:	0000                	unimp
     182:	0200                	li	tp,0
     184:	0104                	mv	sp,ra
     186:	0106                	j	226 <.Ldebug_line0+0x226>
     188:	0500                	li	a0,0
     18a:	0002                	j	18a <.Ldebug_line0+0x18a>
     18c:	0000                	unimp
     18e:	0000                	unimp
     190:	0402                	j	390 <.Ldebug_line0+0x390>
     192:	0600                	li	a2,0
     194:	001d                	0x1d
     196:	0205                	slli	tp,tp,0x1
     198:	0000                	unimp
     19a:	0000                	unimp
     19c:	0200                	li	tp,0
     19e:	0304                	mv	t1,ra
     1a0:	0019                	0x19
     1a2:	0205                	slli	tp,tp,0x1
     1a4:	0000                	unimp
     1a6:	0000                	unimp
     1a8:	0015                	0x15
     1aa:	0205                	slli	tp,tp,0x1
     1ac:	0000                	unimp
     1ae:	0000                	unimp
     1b0:	0200                	li	tp,0
     1b2:	0104                	mv	sp,ra
     1b4:	0106                	j	254 <.Ldebug_line0+0x254>
     1b6:	0500                	li	a0,0
     1b8:	0002                	j	1b8 <.Ldebug_line0+0x1b8>
     1ba:	0000                	unimp
     1bc:	0000                	unimp
     1be:	0402                	j	3be <.Ldebug_line0+0x3be>
     1c0:	0600                	li	a2,0
     1c2:	001d                	0x1d
     1c4:	0205                	slli	tp,tp,0x1
     1c6:	0000                	unimp
     1c8:	0000                	unimp
     1ca:	0019                	0x19
     1cc:	0205                	slli	tp,tp,0x1
     1ce:	0000                	unimp
     1d0:	0000                	unimp
     1d2:	0018                	0x18
     1d4:	0205                	slli	tp,tp,0x1
     1d6:	0000                	unimp
     1d8:	0000                	unimp
     1da:	0018                	0x18
     1dc:	0205                	slli	tp,tp,0x1
     1de:	0000                	unimp
     1e0:	0000                	unimp
     1e2:	001a                	j	1e8 <.Ldebug_line0+0x1e8>
     1e4:	0205                	slli	tp,tp,0x1
     1e6:	0000                	unimp
     1e8:	0000                	unimp
     1ea:	001c                	0x1c
     1ec:	0205                	slli	tp,tp,0x1
     1ee:	0000                	unimp
     1f0:	0000                	unimp
     1f2:	0018                	0x18
     1f4:	0205                	slli	tp,tp,0x1
     1f6:	0000                	unimp
     1f8:	0000                	unimp
     1fa:	001e                	j	220 <.Ldebug_line0+0x220>
     1fc:	0205                	slli	tp,tp,0x1
     1fe:	0000                	unimp
     200:	0000                	unimp
     202:	0018                	0x18
     204:	0205                	slli	tp,tp,0x1
     206:	0000                	unimp
     208:	0000                	unimp
     20a:	0018                	0x18
     20c:	0205                	slli	tp,tp,0x1
     20e:	0000                	unimp
     210:	0000                	unimp
     212:	0019                	0x19
     214:	0205                	slli	tp,tp,0x1
     216:	0000                	unimp
     218:	0000                	unimp
     21a:	0018                	0x18
     21c:	0205                	slli	tp,tp,0x1
     21e:	0000                	unimp
     220:	0000                	unimp
     222:	0019                	0x19
     224:	0205                	slli	tp,tp,0x1
     226:	0000                	unimp
     228:	0000                	unimp
     22a:	0018                	0x18
     22c:	0205                	slli	tp,tp,0x1
     22e:	0000                	unimp
     230:	0000                	unimp
     232:	0020                	0x20
     234:	0205                	slli	tp,tp,0x1
     236:	0000                	unimp
     238:	0000                	unimp
     23a:	0019                	0x19
     23c:	0205                	slli	tp,tp,0x1
     23e:	0000                	unimp
     240:	0000                	unimp
     242:	0018                	0x18
     244:	0205                	slli	tp,tp,0x1
     246:	0000                	unimp
     248:	0000                	unimp
     24a:	0016                	j	26e <.Ldebug_line0+0x26e>
     24c:	0205                	slli	tp,tp,0x1
     24e:	0000                	unimp
     250:	0000                	unimp
     252:	0019                	0x19
     254:	0205                	slli	tp,tp,0x1
     256:	0000                	unimp
     258:	0000                	unimp
     25a:	0018                	0x18
     25c:	0205                	slli	tp,tp,0x1
     25e:	0000                	unimp
     260:	0000                	unimp
     262:	0019                	0x19
     264:	0205                	slli	tp,tp,0x1
     266:	0000                	unimp
     268:	0000                	unimp
     26a:	001d                	0x1d
     26c:	0205                	slli	tp,tp,0x1
     26e:	0000                	unimp
     270:	0000                	unimp
     272:	001e                	j	298 <.Ldebug_line0+0x298>
     274:	0205                	slli	tp,tp,0x1
     276:	0000                	unimp
     278:	0000                	unimp
     27a:	0018                	0x18
     27c:	0205                	slli	tp,tp,0x1
     27e:	0000                	unimp
     280:	0000                	unimp
     282:	0018                	0x18
     284:	0205                	slli	tp,tp,0x1
     286:	0000                	unimp
     288:	0000                	unimp
     28a:	0018                	0x18
     28c:	0205                	slli	tp,tp,0x1
     28e:	0000                	unimp
     290:	0000                	unimp
     292:	0019                	0x19
     294:	0205                	slli	tp,tp,0x1
     296:	0000                	unimp
     298:	0000                	unimp
     29a:	001a                	j	2a0 <.Ldebug_line0+0x2a0>
     29c:	0205                	slli	tp,tp,0x1
     29e:	0000                	unimp
     2a0:	0000                	unimp
     2a2:	001c                	0x1c
     2a4:	0205                	slli	tp,tp,0x1
     2a6:	0000                	unimp
     2a8:	0000                	unimp
     2aa:	001c                	0x1c
     2ac:	0205                	slli	tp,tp,0x1
     2ae:	0000                	unimp
     2b0:	0000                	unimp
     2b2:	0018                	0x18
     2b4:	0205                	slli	tp,tp,0x1
     2b6:	0000                	unimp
     2b8:	0000                	unimp
     2ba:	0018                	0x18
     2bc:	0205                	slli	tp,tp,0x1
     2be:	0000                	unimp
     2c0:	0000                	unimp
     2c2:	001a                	j	2c8 <.Ldebug_line0+0x2c8>
     2c4:	0205                	slli	tp,tp,0x1
     2c6:	0000                	unimp
     2c8:	0000                	unimp
     2ca:	000e                	j	2ec <.Ldebug_line0+0x2ec>
     2cc:	0205                	slli	tp,tp,0x1
     2ce:	0000                	unimp
     2d0:	0000                	unimp
     2d2:	0200                	li	tp,0
     2d4:	0204                	mv	tp,ra
     2d6:	0011                	0x11
     2d8:	0205                	slli	tp,tp,0x1
     2da:	0000                	unimp
     2dc:	0000                	unimp
     2de:	0200                	li	tp,0
     2e0:	0104                	mv	sp,ra
     2e2:	0106                	j	382 <.Ldebug_line0+0x382>
     2e4:	0500                	li	a0,0
     2e6:	0002                	j	2e6 <.Ldebug_line0+0x2e6>
     2e8:	0000                	unimp
     2ea:	0000                	unimp
     2ec:	0402                	j	4ec <.Ldebug_line0+0x4ec>
     2ee:	0600                	li	a2,0
     2f0:	0029                	0x29
     2f2:	0205                	slli	tp,tp,0x1
     2f4:	0000                	unimp
     2f6:	0000                	unimp
     2f8:	0020                	0x20
     2fa:	0205                	slli	tp,tp,0x1
     2fc:	0000                	unimp
     2fe:	0000                	unimp
     300:	001c                	0x1c
     302:	0205                	slli	tp,tp,0x1
     304:	0000                	unimp
     306:	0000                	unimp
     308:	0019                	0x19
     30a:	0205                	slli	tp,tp,0x1
     30c:	0000                	unimp
     30e:	0000                	unimp
     310:	0019                	0x19
     312:	0205                	slli	tp,tp,0x1
     314:	0000                	unimp
     316:	0000                	unimp
     318:	0018                	0x18
     31a:	0205                	slli	tp,tp,0x1
     31c:	0000                	unimp
     31e:	0000                	unimp
     320:	001a                	j	326 <.Ldebug_line0+0x326>
     322:	0205                	slli	tp,tp,0x1
     324:	0000                	unimp
     326:	0000                	unimp
     328:	0018                	0x18
     32a:	0205                	slli	tp,tp,0x1
     32c:	0000                	unimp
     32e:	0000                	unimp
     330:	0018                	0x18
     332:	0205                	slli	tp,tp,0x1
     334:	0000                	unimp
     336:	0000                	unimp
     338:	0018                	0x18
     33a:	0205                	slli	tp,tp,0x1
     33c:	0000                	unimp
     33e:	0000                	unimp
     340:	001c                	0x1c
     342:	0205                	slli	tp,tp,0x1
     344:	0000                	unimp
     346:	0000                	unimp
     348:	0018                	0x18
     34a:	0205                	slli	tp,tp,0x1
     34c:	0000                	unimp
     34e:	0000                	unimp
     350:	0018                	0x18
     352:	0205                	slli	tp,tp,0x1
     354:	0000                	unimp
     356:	0000                	unimp
     358:	0205001b          	0x205001b
     35c:	0000                	unimp
     35e:	0000                	unimp
     360:	0018                	0x18
     362:	0205                	slli	tp,tp,0x1
     364:	0000                	unimp
     366:	0000                	unimp
     368:	0018                	0x18
     36a:	0205                	slli	tp,tp,0x1
     36c:	0000                	unimp
     36e:	0000                	unimp
     370:	0018                	0x18
     372:	0205                	slli	tp,tp,0x1
     374:	0000                	unimp
     376:	0000                	unimp
     378:	0018                	0x18
     37a:	0205                	slli	tp,tp,0x1
     37c:	0000                	unimp
     37e:	0000                	unimp
     380:	001a                	j	386 <.Ldebug_line0+0x386>
     382:	0205                	slli	tp,tp,0x1
     384:	0000                	unimp
     386:	0000                	unimp
     388:	0018                	0x18
     38a:	0205                	slli	tp,tp,0x1
     38c:	0000                	unimp
     38e:	0000                	unimp
     390:	0018                	0x18
     392:	0205                	slli	tp,tp,0x1
     394:	0000                	unimp
     396:	0000                	unimp
     398:	0205001b          	0x205001b
     39c:	0000                	unimp
     39e:	0000                	unimp
     3a0:	0018                	0x18
     3a2:	0205                	slli	tp,tp,0x1
     3a4:	0000                	unimp
     3a6:	0000                	unimp
     3a8:	0018                	0x18
     3aa:	0205                	slli	tp,tp,0x1
     3ac:	0000                	unimp
     3ae:	0000                	unimp
     3b0:	0205001b          	0x205001b
     3b4:	0000                	unimp
     3b6:	0000                	unimp
     3b8:	001a                	j	3be <.Ldebug_line0+0x3be>
     3ba:	0205                	slli	tp,tp,0x1
     3bc:	0000                	unimp
     3be:	0000                	unimp
     3c0:	001a                	j	3c6 <.Ldebug_line0+0x3c6>
     3c2:	0205                	slli	tp,tp,0x1
     3c4:	0000                	unimp
     3c6:	0000                	unimp
     3c8:	0018                	0x18
     3ca:	0205                	slli	tp,tp,0x1
     3cc:	0000                	unimp
     3ce:	0000                	unimp
     3d0:	0018                	0x18
     3d2:	0205                	slli	tp,tp,0x1
     3d4:	0000                	unimp
     3d6:	0000                	unimp
     3d8:	0018                	0x18
     3da:	0205                	slli	tp,tp,0x1
     3dc:	0000                	unimp
     3de:	0000                	unimp
     3e0:	0018                	0x18
     3e2:	0205                	slli	tp,tp,0x1
     3e4:	0000                	unimp
     3e6:	0000                	unimp
     3e8:	0018                	0x18
     3ea:	0205                	slli	tp,tp,0x1
     3ec:	0000                	unimp
     3ee:	0000                	unimp
     3f0:	0018                	0x18
     3f2:	0205                	slli	tp,tp,0x1
     3f4:	0000                	unimp
     3f6:	0000                	unimp
     3f8:	001a                	j	3fe <.Ldebug_line0+0x3fe>
     3fa:	0205                	slli	tp,tp,0x1
     3fc:	0000                	unimp
     3fe:	0000                	unimp
     400:	0018                	0x18
     402:	0205                	slli	tp,tp,0x1
     404:	0000                	unimp
     406:	0000                	unimp
     408:	001e                	j	42e <.Ldebug_line0+0x42e>
     40a:	0205                	slli	tp,tp,0x1
     40c:	0000                	unimp
     40e:	0000                	unimp
     410:	001f 0205 0000      	0x205001f
     416:	0000                	unimp
     418:	0018                	0x18
     41a:	0205                	slli	tp,tp,0x1
     41c:	0000                	unimp
     41e:	0000                	unimp
     420:	0018                	0x18
     422:	0205                	slli	tp,tp,0x1
     424:	0000                	unimp
     426:	0000                	unimp
     428:	0018                	0x18
     42a:	0205                	slli	tp,tp,0x1
     42c:	0000                	unimp
     42e:	0000                	unimp
     430:	0019                	0x19
     432:	0205                	slli	tp,tp,0x1
     434:	0000                	unimp
     436:	0000                	unimp
     438:	0018                	0x18
     43a:	0205                	slli	tp,tp,0x1
     43c:	0000                	unimp
     43e:	0000                	unimp
     440:	0018                	0x18
     442:	0205                	slli	tp,tp,0x1
     444:	0000                	unimp
     446:	0000                	unimp
     448:	001a                	j	44e <.Ldebug_line0+0x44e>
     44a:	0205                	slli	tp,tp,0x1
     44c:	0000                	unimp
     44e:	0000                	unimp
     450:	0019                	0x19
     452:	0205                	slli	tp,tp,0x1
     454:	0000                	unimp
     456:	0000                	unimp
     458:	001a                	j	45e <.Ldebug_line0+0x45e>
     45a:	0205                	slli	tp,tp,0x1
     45c:	0000                	unimp
     45e:	0000                	unimp
     460:	0018                	0x18
     462:	0205                	slli	tp,tp,0x1
     464:	0000                	unimp
     466:	0000                	unimp
     468:	0019                	0x19
     46a:	0205                	slli	tp,tp,0x1
     46c:	0000                	unimp
     46e:	0000                	unimp
     470:	0020                	0x20
     472:	0205                	slli	tp,tp,0x1
     474:	0000                	unimp
     476:	0000                	unimp
     478:	0018                	0x18
     47a:	0205                	slli	tp,tp,0x1
     47c:	0000                	unimp
     47e:	0000                	unimp
     480:	0018                	0x18
     482:	0205                	slli	tp,tp,0x1
     484:	0000                	unimp
     486:	0000                	unimp
     488:	0018                	0x18
     48a:	0205                	slli	tp,tp,0x1
     48c:	0000                	unimp
     48e:	0000                	unimp
     490:	0019                	0x19
     492:	0205                	slli	tp,tp,0x1
     494:	0000                	unimp
     496:	0000                	unimp
     498:	0018                	0x18
     49a:	0205                	slli	tp,tp,0x1
     49c:	0000                	unimp
     49e:	0000                	unimp
     4a0:	0019                	0x19
     4a2:	0205                	slli	tp,tp,0x1
     4a4:	0000                	unimp
     4a6:	0000                	unimp
     4a8:	0019                	0x19
     4aa:	0205                	slli	tp,tp,0x1
     4ac:	0000                	unimp
     4ae:	0000                	unimp
     4b0:	0200                	li	tp,0
     4b2:	0204                	mv	tp,ra
     4b4:	001c                	0x1c
     4b6:	0205                	slli	tp,tp,0x1
     4b8:	0000                	unimp
     4ba:	0000                	unimp
     4bc:	0018                	0x18
     4be:	0205                	slli	tp,tp,0x1
     4c0:	0000                	unimp
     4c2:	0000                	unimp
     4c4:	0016                	j	4e8 <.Ldebug_line0+0x4e8>
     4c6:	0205                	slli	tp,tp,0x1
     4c8:	0000                	unimp
     4ca:	0000                	unimp
     4cc:	0019                	0x19
     4ce:	0205                	slli	tp,tp,0x1
     4d0:	0000                	unimp
     4d2:	0000                	unimp
     4d4:	00017503          	0x17503
     4d8:	0205                	slli	tp,tp,0x1
     4da:	0000                	unimp
     4dc:	0000                	unimp
     4de:	0200                	li	tp,0
     4e0:	0104                	mv	sp,ra
     4e2:	0106                	j	582 <.Ldebug_line0+0x582>
     4e4:	0500                	li	a0,0
     4e6:	0002                	j	4e6 <.Ldebug_line0+0x4e6>
     4e8:	0000                	unimp
     4ea:	0000                	unimp
     4ec:	0402                	j	6ec <.Ldebug_line0+0x6ec>
     4ee:	0600                	li	a2,0
     4f0:	0024                	0x24
     4f2:	0205                	slli	tp,tp,0x1
     4f4:	0000                	unimp
     4f6:	0000                	unimp
     4f8:	0205000f          	0x205000f
     4fc:	0000                	unimp
     4fe:	0000                	unimp
     500:	0200                	li	tp,0
     502:	0104                	mv	sp,ra
     504:	001f 0205 0000      	0x205001f
     50a:	0000                	unimp
     50c:	0200                	li	tp,0
     50e:	0004                	0x4
     510:	001d                	0x1d
     512:	0205                	slli	tp,tp,0x1
     514:	0000                	unimp
     516:	0000                	unimp
     518:	0021                	0x21
     51a:	0205                	slli	tp,tp,0x1
     51c:	0000                	unimp
     51e:	0000                	unimp
     520:	0018                	0x18
     522:	0205                	slli	tp,tp,0x1
     524:	0000                	unimp
     526:	0000                	unimp
     528:	0205001b          	0x205001b
     52c:	0000                	unimp
     52e:	0000                	unimp
     530:	0019                	0x19
     532:	0205                	slli	tp,tp,0x1
     534:	0000                	unimp
     536:	0000                	unimp
     538:	0200                	li	tp,0
     53a:	0104                	mv	sp,ra
     53c:	0106                	j	5dc <.Ldebug_line0+0x5dc>
     53e:	0500                	li	a0,0
     540:	0002                	j	540 <.Ldebug_line0+0x540>
     542:	0000                	unimp
     544:	0600                	li	a2,0
     546:	0019                	0x19
     548:	0205                	slli	tp,tp,0x1
     54a:	0000                	unimp
     54c:	0000                	unimp
     54e:	0200                	li	tp,0
     550:	0004                	0x4
     552:	0019                	0x19
     554:	0205                	slli	tp,tp,0x1
     556:	0000                	unimp
     558:	0000                	unimp
     55a:	0019                	0x19
     55c:	0205                	slli	tp,tp,0x1
     55e:	0000                	unimp
     560:	0000                	unimp
     562:	0200                	li	tp,0
     564:	0104                	mv	sp,ra
     566:	0106                	j	606 <.Ldebug_line0+0x606>
     568:	0500                	li	a0,0
     56a:	0002                	j	56a <.Ldebug_line0+0x56a>
     56c:	0000                	unimp
     56e:	0000                	unimp
     570:	0402                	j	770 <.Ldebug_line0+0x770>
     572:	0102                	j	5f2 <.Ldebug_line0+0x5f2>
     574:	0500                	li	a0,0
     576:	0002                	j	576 <.Ldebug_line0+0x576>
     578:	0000                	unimp
     57a:	0000                	unimp
     57c:	0402                	j	77c <.Ldebug_line0+0x77c>
     57e:	0104                	mv	sp,ra
     580:	0500                	li	a0,0
     582:	0002                	j	582 <.Ldebug_line0+0x582>
     584:	0000                	unimp
     586:	0600                	li	a2,0
     588:	0018                	0x18
     58a:	0205                	slli	tp,tp,0x1
     58c:	0000                	unimp
     58e:	0000                	unimp
     590:	0200                	li	tp,0
     592:	0004                	0x4
     594:	0018                	0x18
     596:	0205                	slli	tp,tp,0x1
     598:	0000                	unimp
     59a:	0000                	unimp
     59c:	0018                	0x18
     59e:	0205                	slli	tp,tp,0x1
     5a0:	0000                	unimp
     5a2:	0000                	unimp
     5a4:	0019                	0x19
     5a6:	0205                	slli	tp,tp,0x1
     5a8:	0000                	unimp
     5aa:	0000                	unimp
     5ac:	0018                	0x18
     5ae:	0205                	slli	tp,tp,0x1
     5b0:	0000                	unimp
     5b2:	0000                	unimp
     5b4:	0018                	0x18
     5b6:	0205                	slli	tp,tp,0x1
     5b8:	0000                	unimp
     5ba:	0000                	unimp
     5bc:	001a                	j	5c2 <.Ldebug_line0+0x5c2>
     5be:	0205                	slli	tp,tp,0x1
     5c0:	0000                	unimp
     5c2:	0000                	unimp
     5c4:	0200                	li	tp,0
     5c6:	0104                	mv	sp,ra
     5c8:	0106                	j	668 <.Ldebug_line0+0x668>
     5ca:	0500                	li	a0,0
     5cc:	0002                	j	5cc <.Ldebug_line0+0x5cc>
     5ce:	0000                	unimp
     5d0:	0000                	unimp
     5d2:	0402                	j	7d2 <.Ldebug_line0+0x7d2>
     5d4:	0102                	j	654 <.Ldebug_line0+0x654>
     5d6:	0500                	li	a0,0
     5d8:	0002                	j	5d8 <.Ldebug_line0+0x5d8>
     5da:	0000                	unimp
     5dc:	0000                	unimp
     5de:	0402                	j	7de <.Ldebug_line0+0x7de>
     5e0:	0104                	mv	sp,ra
     5e2:	0500                	li	a0,0
     5e4:	0002                	j	5e4 <.Ldebug_line0+0x5e4>
     5e6:	0000                	unimp
     5e8:	0600                	li	a2,0
     5ea:	0018                	0x18
     5ec:	0205                	slli	tp,tp,0x1
     5ee:	0000                	unimp
     5f0:	0000                	unimp
     5f2:	0200                	li	tp,0
     5f4:	0104                	mv	sp,ra
     5f6:	0106                	j	696 <.Ldebug_line0+0x696>
     5f8:	0500                	li	a0,0
     5fa:	0002                	j	5fa <.Ldebug_line0+0x5fa>
     5fc:	0000                	unimp
     5fe:	0000                	unimp
     600:	0402                	j	800 <.Ldebug_line0+0x7>
     602:	0102                	j	682 <.Ldebug_line0+0x682>
     604:	0500                	li	a0,0
     606:	0002                	j	606 <.Ldebug_line0+0x606>
     608:	0000                	unimp
     60a:	0000                	unimp
     60c:	0402                	j	80c <.Ldebug_line0+0x13>
     60e:	0104                	mv	sp,ra
     610:	0500                	li	a0,0
     612:	0002                	j	612 <.Ldebug_line0+0x612>
     614:	0000                	unimp
     616:	0600                	li	a2,0
     618:	0018                	0x18
     61a:	0205                	slli	tp,tp,0x1
     61c:	0000                	unimp
     61e:	0000                	unimp
     620:	0018                	0x18
     622:	0205                	slli	tp,tp,0x1
     624:	0000                	unimp
     626:	0000                	unimp
     628:	0019                	0x19
     62a:	0205                	slli	tp,tp,0x1
     62c:	0000                	unimp
     62e:	0000                	unimp
     630:	001a                	j	636 <.Ldebug_line0+0x636>
     632:	0205                	slli	tp,tp,0x1
     634:	0000                	unimp
     636:	0000                	unimp
     638:	0018                	0x18
     63a:	0205                	slli	tp,tp,0x1
     63c:	0000                	unimp
     63e:	0000                	unimp
     640:	0019                	0x19
     642:	0205                	slli	tp,tp,0x1
     644:	0000                	unimp
     646:	0000                	unimp
     648:	001f 0205 0000      	0x205001f
     64e:	0000                	unimp
     650:	0200                	li	tp,0
     652:	0104                	mv	sp,ra
     654:	0106                	j	6f4 <.Ldebug_line0+0x6f4>
     656:	0500                	li	a0,0
     658:	0002                	j	658 <.Ldebug_line0+0x658>
     65a:	0000                	unimp
     65c:	0000                	unimp
     65e:	0402                	j	85e <.Ldebug_line0+0x65>
     660:	0102                	j	6e0 <.Ldebug_line0+0x6e0>
     662:	0500                	li	a0,0
     664:	0002                	j	664 <.Ldebug_line0+0x664>
     666:	0000                	unimp
     668:	0000                	unimp
     66a:	0402                	j	86a <.Ldebug_line0+0x71>
     66c:	0104                	mv	sp,ra
     66e:	0500                	li	a0,0
     670:	0002                	j	670 <.Ldebug_line0+0x670>
     672:	0000                	unimp
     674:	0600                	li	a2,0
     676:	0018                	0x18
     678:	0205                	slli	tp,tp,0x1
     67a:	0000                	unimp
     67c:	0000                	unimp
     67e:	0200                	li	tp,0
     680:	0104                	mv	sp,ra
     682:	0106                	j	722 <.Ldebug_line0+0x722>
     684:	0500                	li	a0,0
     686:	0002                	j	686 <.Ldebug_line0+0x686>
     688:	0000                	unimp
     68a:	0000                	unimp
     68c:	0402                	j	88c <.Ldebug_line0+0x93>
     68e:	0102                	j	70e <.Ldebug_line0+0x70e>
     690:	0500                	li	a0,0
     692:	0002                	j	692 <.Ldebug_line0+0x692>
     694:	0000                	unimp
     696:	0000                	unimp
     698:	0402                	j	898 <.Ldebug_line0+0x9f>
     69a:	0104                	mv	sp,ra
     69c:	0500                	li	a0,0
     69e:	0002                	j	69e <.Ldebug_line0+0x69e>
     6a0:	0000                	unimp
     6a2:	0000                	unimp
     6a4:	0402                	j	8a4 <.Ldebug_line0+0xab>
     6a6:	0600                	li	a2,0
     6a8:	0018                	0x18
     6aa:	0205                	slli	tp,tp,0x1
     6ac:	0000                	unimp
     6ae:	0000                	unimp
     6b0:	0018                	0x18
     6b2:	0205                	slli	tp,tp,0x1
     6b4:	0000                	unimp
     6b6:	0000                	unimp
     6b8:	0019                	0x19
     6ba:	0205                	slli	tp,tp,0x1
     6bc:	0000                	unimp
     6be:	0000                	unimp
     6c0:	001a                	j	6c6 <.Ldebug_line0+0x6c6>
     6c2:	0205                	slli	tp,tp,0x1
     6c4:	0000                	unimp
     6c6:	0000                	unimp
     6c8:	0018                	0x18
     6ca:	0205                	slli	tp,tp,0x1
     6cc:	0000                	unimp
     6ce:	0000                	unimp
     6d0:	0018                	0x18
     6d2:	0205                	slli	tp,tp,0x1
     6d4:	0000                	unimp
     6d6:	0000                	unimp
     6d8:	0019                	0x19
     6da:	0205                	slli	tp,tp,0x1
     6dc:	0000                	unimp
     6de:	0000                	unimp
     6e0:	0200                	li	tp,0
     6e2:	0304                	mv	t1,ra
     6e4:	001a                	j	6ea <.Ldebug_line0+0x6ea>
     6e6:	0205                	slli	tp,tp,0x1
     6e8:	0000                	unimp
     6ea:	0000                	unimp
     6ec:	0014                	0x14
     6ee:	0205                	slli	tp,tp,0x1
     6f0:	0000                	unimp
     6f2:	0000                	unimp
     6f4:	0200                	li	tp,0
     6f6:	0104                	mv	sp,ra
     6f8:	0106                	j	798 <.Ldebug_line0+0x798>
     6fa:	0500                	li	a0,0
     6fc:	0002                	j	6fc <.Ldebug_line0+0x6fc>
     6fe:	0000                	unimp
     700:	0000                	unimp
     702:	0402                	j	902 <.Ldebug_line0+0x5d>
     704:	0600                	li	a2,0
     706:	001d                	0x1d
     708:	0205                	slli	tp,tp,0x1
     70a:	0000                	unimp
     70c:	0000                	unimp
     70e:	0019                	0x19
     710:	0205                	slli	tp,tp,0x1
     712:	0000                	unimp
     714:	0000                	unimp
     716:	0018                	0x18
     718:	0205                	slli	tp,tp,0x1
     71a:	0000                	unimp
     71c:	0000                	unimp
     71e:	0018                	0x18
     720:	0205                	slli	tp,tp,0x1
     722:	0000                	unimp
     724:	0000                	unimp
     726:	001a                	j	72c <.Ldebug_line0+0x72c>
     728:	0205                	slli	tp,tp,0x1
     72a:	0000                	unimp
     72c:	0000                	unimp
     72e:	001c                	0x1c
     730:	0205                	slli	tp,tp,0x1
     732:	0000                	unimp
     734:	0000                	unimp
     736:	0019                	0x19
     738:	0205                	slli	tp,tp,0x1
     73a:	0000                	unimp
     73c:	0000                	unimp
     73e:	0019                	0x19
     740:	0205                	slli	tp,tp,0x1
     742:	0000                	unimp
     744:	0000                	unimp
     746:	0018                	0x18
     748:	0205                	slli	tp,tp,0x1
     74a:	0000                	unimp
     74c:	0000                	unimp
     74e:	0200                	li	tp,0
     750:	0104                	mv	sp,ra
     752:	0205001b          	0x205001b
     756:	0000                	unimp
     758:	0000                	unimp
     75a:	0200                	li	tp,0
     75c:	0004                	0x4
     75e:	001c                	0x1c
     760:	0205                	slli	tp,tp,0x1
     762:	0000                	unimp
     764:	0000                	unimp
     766:	001a                	j	76c <.Ldebug_line0+0x76c>
     768:	0205                	slli	tp,tp,0x1
     76a:	0000                	unimp
     76c:	0000                	unimp
     76e:	003d                	0x3d
     770:	0205                	slli	tp,tp,0x1
     772:	0000                	unimp
     774:	0000                	unimp
     776:	0019                	0x19
     778:	0205                	slli	tp,tp,0x1
     77a:	0000                	unimp
     77c:	0000                	unimp
     77e:	0019                	0x19
     780:	0205                	slli	tp,tp,0x1
     782:	0000                	unimp
     784:	0000                	unimp
     786:	001a                	j	78c <.Ldebug_line0+0x78c>
     788:	0205                	slli	tp,tp,0x1
     78a:	0000                	unimp
     78c:	0000                	unimp
     78e:	0018                	0x18
     790:	0205                	slli	tp,tp,0x1
     792:	0000                	unimp
     794:	0000                	unimp
     796:	0018                	0x18
     798:	0205                	slli	tp,tp,0x1
     79a:	0000                	unimp
     79c:	0000                	unimp
     79e:	0018                	0x18
     7a0:	0205                	slli	tp,tp,0x1
     7a2:	0000                	unimp
     7a4:	0000                	unimp
     7a6:	001a                	j	7ac <.Ldebug_line0+0x7ac>
     7a8:	0205                	slli	tp,tp,0x1
     7aa:	0000                	unimp
     7ac:	0000                	unimp
     7ae:	0019                	0x19
     7b0:	0205                	slli	tp,tp,0x1
     7b2:	0000                	unimp
     7b4:	0000                	unimp
     7b6:	0018                	0x18
     7b8:	0205                	slli	tp,tp,0x1
     7ba:	0000                	unimp
     7bc:	0000                	unimp
     7be:	0018                	0x18
     7c0:	0205                	slli	tp,tp,0x1
     7c2:	0000                	unimp
     7c4:	0000                	unimp
     7c6:	0019                	0x19
     7c8:	0205                	slli	tp,tp,0x1
     7ca:	0000                	unimp
     7cc:	0000                	unimp
     7ce:	001a                	j	7d4 <.Ldebug_line0+0x7d4>
     7d0:	0205                	slli	tp,tp,0x1
     7d2:	0000                	unimp
     7d4:	0000                	unimp
     7d6:	0018                	0x18
     7d8:	0205                	slli	tp,tp,0x1
     7da:	0000                	unimp
     7dc:	0000                	unimp
     7de:	0016                	j	802 <.Ldebug_line0+0x9>
     7e0:	0205                	slli	tp,tp,0x1
     7e2:	0000                	unimp
     7e4:	0000                	unimp
     7e6:	001c                	0x1c
     7e8:	0205                	slli	tp,tp,0x1
     7ea:	0000                	unimp
     7ec:	0000                	unimp
     7ee:	0018                	0x18
     7f0:	0205                	slli	tp,tp,0x1
     7f2:	0000                	unimp
     7f4:	0000                	unimp
     7f6:	0100                	li	sp,0
     7f8:	a801                	addi	s0,sp,16

000007f9 <.Ldebug_line0>:
     7f9:	00a8                	mv	ra,a0
     7fb:	0000                	unimp
     7fd:	0004                	0x4
     7ff:	007c                	0x7c
     801:	0000                	unimp
     803:	0101                	slli	sp,sp,0x0
     805:	f601                	bgez	a2,745 <.Ldebug_line0+0x745>
     807:	0df2                	j	ee3 <.Ldebug_line0+0x52>
     809:	0100                	li	sp,0
     80b:	0101                	slli	sp,sp,0x0
     80d:	0001                	0x1
     80f:	0000                	unimp
     811:	0001                	0x1
     813:	0100                	li	sp,0
     815:	6d6f682f          	0x6d6f682f
     819:	2f65                	srli	t5,t5,0x19
     81b:	6568                	sltu	a0,a0,a0
     81d:	6d616873          	csrrs	a6,0x6d6,2
     821:	6f72502f          	0x6f72502f
     825:	656a                	bnez	a0,87f <.Ldebug_line0+0x86>
     827:	2f737463          	bleu	s7,t1,b0f <.Ldebug_line0+0x26a>
     82b:	344c6573          	csrrs	a0,mip,24
     82f:	4c65732f          	0x4c65732f
     833:	7234                	0x7234
     835:	7369                	bltz	a4,74f <.Ldebug_line0+0x74f>
     837:	6d2d7663          	bleu	s2,s10,f03 <.Ldebug_line0+0x72>
     83b:	6c75                	bltz	s0,937 <.Ldebug_line0+0x92>
     83d:	6974                	0x6974
     83f:	6e72656b          	0x6e72656b
     843:	6c65                	bltz	s0,93b <.Ldebug_line0+0x96>
     845:	6f6f742f          	0x6f6f742f
     849:	736c                	0x736c
     84b:	6d6f632f          	0x6d6f632f
     84f:	6f6d                	bltz	a4,949 <.Ldebug_line0+0xa4>
     851:	2f6e                	jal	100b <.Ldebug_line0+0x17a>
     853:	2e2e                	jal	f7d <.Ldebug_line0+0xec>
     855:	666c652f          	0x666c652f
     859:	6f6c                	sltu	a1,a4,a1
     85b:	6461                	bltz	s0,8b3 <.Ldebug_line0+0xe>
     85d:	7265                	bltz	a2,795 <.Ldebug_line0+0x795>
     85f:	6372732f          	0x6372732f
     863:	6372612f          	0x6372612f
     867:	2d68                	srai	s10,s10,0x1a
     869:	6972                	bnez	a0,905 <.Ldebug_line0+0x60>
     86b:	00766373          	csrrs	t1,0x7,12
     86f:	6400                	sll	s0,s0,s0
     871:	6665                	bltz	a2,8e9 <.Ldebug_line0+0x44>
     873:	7561                	bltz	a0,7cb <.Ldebug_line0+0x7cb>
     875:	746c                	0x746c
     877:	00632e73          	csrrs	t3,0x6,t1
     87b:	0001                	0x1
     87d:	0000                	unimp
     87f:	0500                	li	a0,0
     881:	0002                	j	881 <.Ldebug_line0+0x88>
     883:	0000                	unimp
     885:	2900                	srai	s2,s2,0x0
     887:	0500                	li	a0,0
     889:	0002                	j	889 <.Ldebug_line0+0x90>
     88b:	0000                	unimp
     88d:	1800                	add	a6,a6,zero
     88f:	0500                	li	a0,0
     891:	0002                	j	891 <.Ldebug_line0+0x98>
     893:	0000                	unimp
     895:	0000                	unimp
     897:	0402                	j	a97 <.Ldebug_line0+0x1f2>
     899:	1901                	slli	s2,s2,0x20
     89b:	0500                	li	a0,0
     89d:	0002                	j	89d <.Ldebug_line0+0xa4>
     89f:	0000                	unimp
     8a1:	0000                	unimp
     8a3:	0101                	slli	sp,sp,0x0

000008a5 <.Ldebug_line0>:
     8a5:	03b2                	j	a71 <.Ldebug_line0+0x1cc>
     8a7:	0000                	unimp
     8a9:	0004                	0x4
     8ab:	00d8                	mv	ra,s6
     8ad:	0000                	unimp
     8af:	0101                	slli	sp,sp,0x0
     8b1:	f601                	bgez	a2,7f1 <.Ldebug_line0+0x7f1>
     8b3:	0df2                	j	f8f <.Ldebug_line0+0xfe>
     8b5:	0100                	li	sp,0
     8b7:	0101                	slli	sp,sp,0x0
     8b9:	0001                	0x1
     8bb:	0000                	unimp
     8bd:	0001                	0x1
     8bf:	0100                	li	sp,0
     8c1:	6d6f682f          	0x6d6f682f
     8c5:	2f65                	srli	t5,t5,0x19
     8c7:	6568                	sltu	a0,a0,a0
     8c9:	6d616873          	csrrs	a6,0x6d6,2
     8cd:	6f72502f          	0x6f72502f
     8d1:	656a                	bnez	a0,92b <.Ldebug_line0+0x86>
     8d3:	2f737463          	bleu	s7,t1,bbb <.Ldebug_line0+0x316>
     8d7:	344c6573          	csrrs	a0,mip,24
     8db:	4c65732f          	0x4c65732f
     8df:	7234                	0x7234
     8e1:	7369                	bltz	a4,7fb <.Ldebug_line0+0x2>
     8e3:	6d2d7663          	bleu	s2,s10,faf <.Ldebug_line0+0x11e>
     8e7:	6c75                	bltz	s0,9e3 <.Ldebug_line0+0x13e>
     8e9:	6974                	0x6974
     8eb:	6e72656b          	0x6e72656b
     8ef:	6c65                	bltz	s0,9e7 <.Ldebug_line0+0x142>
     8f1:	6174732f          	0x6174732f
     8f5:	722f6567          	0x722f6567
     8f9:	7369                	bltz	a4,813 <.Ldebug_line0+0x1a>
     8fb:	732f7663          	bleu	s2,t5,1027 <.Ldebug_line0+0x196>
     8ff:	6970                	0x6970
     901:	692f656b          	0x692f656b
     905:	636e                	bnez	a4,93f <.Ldebug_line0+0x9a>
     907:	756c                	0x756c
     909:	6564                	sltu	a0,a0,s1
     90b:	7469622f          	0x7469622f
     90f:	682f0073          	0x682f0073
     913:	2f656d6f          	jal	s10,56c09 <.L0 +0x42959>
     917:	6568                	sltu	a0,a0,a0
     919:	6d616873          	csrrs	a6,0x6d6,2
     91d:	6f72502f          	0x6f72502f
     921:	656a                	bnez	a0,97b <.Ldebug_line0+0xd6>
     923:	2f737463          	bleu	s7,t1,c0b <.Ldebug_line0+0x366>
     927:	344c6573          	csrrs	a0,mip,24
     92b:	4c65732f          	0x4c65732f
     92f:	7234                	0x7234
     931:	7369                	bltz	a4,84b <.Ldebug_line0+0x52>
     933:	6d2d7663          	bleu	s2,s10,fff <.Ldebug_line0+0x16e>
     937:	6c75                	bltz	s0,a33 <.Ldebug_line0+0x18e>
     939:	6974                	0x6974
     93b:	6e72656b          	0x6e72656b
     93f:	6c65                	bltz	s0,a37 <.Ldebug_line0+0x192>
     941:	6f6f742f          	0x6f6f742f
     945:	736c                	0x736c
     947:	6d6f632f          	0x6d6f632f
     94b:	6f6d                	bltz	a4,a45 <.Ldebug_line0+0x1a0>
     94d:	2f6e                	jal	1107 <.Ldebug_line0+0x37>
     94f:	2e2e                	jal	1079 <.Ldebug_line0+0x1e8>
     951:	666c652f          	0x666c652f
     955:	6f6c                	sltu	a1,a4,a1
     957:	6461                	bltz	s0,9af <.Ldebug_line0+0x10a>
     959:	7265                	bltz	a2,891 <.Ldebug_line0+0x98>
     95b:	6372732f          	0x6372732f
     95f:	6372612f          	0x6372612f
     963:	2d68                	srai	s10,s10,0x1a
     965:	6972                	bnez	a0,a01 <.Ldebug_line0+0x15c>
     967:	00766373          	csrrs	t1,0x7,12
     96b:	7000                	0x7000
     96d:	6972                	bnez	a0,a09 <.Ldebug_line0+0x164>
     96f:	746e                	bnez	s0,8e9 <.Ldebug_line0+0x44>
     971:	2e66                	jal	10a9 <.Ldebug_line0+0x218>
     973:	00020063          	beqz	tp,973 <.Ldebug_line0+0xce>
     977:	6100                	xor	a0,a0,s0
     979:	6c6c                	sltu	a1,s0,a1
     97b:	7974                	0x7974
     97d:	6570                	sltu	a0,a0,a2
     97f:	00682e73          	csrrs	t3,0x6,a6
     983:	0001                	0x1
     985:	0000                	unimp
     987:	0500                	li	a0,0
     989:	0002                	j	989 <.Ldebug_line0+0xe4>
     98b:	0000                	unimp
     98d:	3400                	srai	s0,s0,0x20
     98f:	0500                	li	a0,0
     991:	0002                	j	991 <.Ldebug_line0+0xec>
     993:	0000                	unimp
     995:	1900                	add	s2,s2,zero
     997:	0500                	li	a0,0
     999:	0002                	j	999 <.Ldebug_line0+0xf4>
     99b:	0000                	unimp
     99d:	0000                	unimp
     99f:	0402                	j	b9f <.Ldebug_line0+0x2fa>
     9a1:	05001803          	lh	a6,80(zero)
     9a5:	0002                	j	9a5 <.Ldebug_line0+0x100>
     9a7:	0000                	unimp
     9a9:	1600                	add	a2,a2,zero
     9ab:	0500                	li	a0,0
     9ad:	0002                	j	9ad <.Ldebug_line0+0x108>
     9af:	0000                	unimp
     9b1:	0000                	unimp
     9b3:	0402                	j	bb3 <.Ldebug_line0+0x30e>
     9b5:	0601                	slli	a2,a2,0x0
     9b7:	0001                	0x1
     9b9:	0205                	slli	tp,tp,0x1
     9bb:	0000                	unimp
     9bd:	0000                	unimp
     9bf:	0200                	li	tp,0
     9c1:	0004                	0x4
     9c3:	1a06                	j	6e3 <.Ldebug_line0+0x6e3>
     9c5:	0500                	li	a0,0
     9c7:	0002                	j	9c7 <.Ldebug_line0+0x122>
     9c9:	0000                	unimp
     9cb:	2000                	0x2000
     9cd:	0500                	li	a0,0
     9cf:	0002                	j	9cf <.Ldebug_line0+0x12a>
     9d1:	0000                	unimp
     9d3:	1a00                	add	s4,s4,zero
     9d5:	0500                	li	a0,0
     9d7:	0002                	j	9d7 <.Ldebug_line0+0x132>
     9d9:	0000                	unimp
     9db:	1a00                	add	s4,s4,zero
     9dd:	0500                	li	a0,0
     9df:	0002                	j	9df <.Ldebug_line0+0x13a>
     9e1:	0000                	unimp
     9e3:	1800                	add	a6,a6,zero
     9e5:	0500                	li	a0,0
     9e7:	0002                	j	9e7 <.Ldebug_line0+0x142>
     9e9:	0000                	unimp
     9eb:	1c00                	add	s8,s8,zero
     9ed:	0500                	li	a0,0
     9ef:	0002                	j	9ef <.Ldebug_line0+0x14a>
     9f1:	0000                	unimp
     9f3:	1a00                	add	s4,s4,zero
     9f5:	0500                	li	a0,0
     9f7:	0002                	j	9f7 <.Ldebug_line0+0x152>
     9f9:	0000                	unimp
     9fb:	1800                	add	a6,a6,zero
     9fd:	0500                	li	a0,0
     9ff:	0002                	j	9ff <.Ldebug_line0+0x15a>
     a01:	0000                	unimp
     a03:	1800                	add	a6,a6,zero
     a05:	0500                	li	a0,0
     a07:	0002                	j	a07 <.Ldebug_line0+0x162>
     a09:	0000                	unimp
     a0b:	1800                	add	a6,a6,zero
     a0d:	0500                	li	a0,0
     a0f:	0002                	j	a0f <.Ldebug_line0+0x16a>
     a11:	0000                	unimp
     a13:	1400                	add	s0,s0,zero
     a15:	0500                	li	a0,0
     a17:	0002                	j	a17 <.Ldebug_line0+0x172>
     a19:	0000                	unimp
     a1b:	1e00                	add	t3,t3,zero
     a1d:	0500                	li	a0,0
     a1f:	0002                	j	a1f <.Ldebug_line0+0x17a>
     a21:	0000                	unimp
     a23:	1800                	add	a6,a6,zero
     a25:	0500                	li	a0,0
     a27:	0002                	j	a27 <.Ldebug_line0+0x182>
     a29:	0000                	unimp
     a2b:	1e00                	add	t3,t3,zero
     a2d:	0500                	li	a0,0
     a2f:	0002                	j	a2f <.Ldebug_line0+0x18a>
     a31:	0000                	unimp
     a33:	1a00                	add	s4,s4,zero
     a35:	0500                	li	a0,0
     a37:	0002                	j	a37 <.Ldebug_line0+0x192>
     a39:	0000                	unimp
     a3b:	1a00                	add	s4,s4,zero
     a3d:	0500                	li	a0,0
     a3f:	0002                	j	a3f <.Ldebug_line0+0x19a>
     a41:	0000                	unimp
     a43:	1900                	add	s2,s2,zero
     a45:	0500                	li	a0,0
     a47:	0002                	j	a47 <.Ldebug_line0+0x1a2>
     a49:	0000                	unimp
     a4b:	0000                	unimp
     a4d:	0402                	j	c4d <.Ldebug_line0+0x3a8>
     a4f:	0601                	slli	a2,a2,0x0
     a51:	0001                	0x1
     a53:	0205                	slli	tp,tp,0x1
     a55:	0000                	unimp
     a57:	0000                	unimp
     a59:	0200                	li	tp,0
     a5b:	0004                	0x4
     a5d:	1806                	j	67d <.Ldebug_line0+0x67d>
     a5f:	0500                	li	a0,0
     a61:	0002                	j	a61 <.Ldebug_line0+0x1bc>
     a63:	0000                	unimp
     a65:	1800                	add	a6,a6,zero
     a67:	0500                	li	a0,0
     a69:	0002                	j	a69 <.Ldebug_line0+0x1c4>
     a6b:	0000                	unimp
     a6d:	1b00                	add	s6,s6,zero
     a6f:	0500                	li	a0,0
     a71:	0002                	j	a71 <.Ldebug_line0+0x1cc>
     a73:	0000                	unimp
     a75:	1800                	add	a6,a6,zero
     a77:	0500                	li	a0,0
     a79:	0002                	j	a79 <.Ldebug_line0+0x1d4>
     a7b:	0000                	unimp
     a7d:	1900                	add	s2,s2,zero
     a7f:	0500                	li	a0,0
     a81:	0002                	j	a81 <.Ldebug_line0+0x1dc>
     a83:	0000                	unimp
     a85:	1d00                	add	s10,s10,zero
     a87:	0500                	li	a0,0
     a89:	0002                	j	a89 <.Ldebug_line0+0x1e4>
     a8b:	0000                	unimp
     a8d:	1400                	add	s0,s0,zero
     a8f:	0500                	li	a0,0
     a91:	0002                	j	a91 <.Ldebug_line0+0x1ec>
     a93:	0000                	unimp
     a95:	1800                	add	a6,a6,zero
     a97:	0500                	li	a0,0
     a99:	0002                	j	a99 <.Ldebug_line0+0x1f4>
     a9b:	0000                	unimp
     a9d:	1900                	add	s2,s2,zero
     a9f:	0500                	li	a0,0
     aa1:	0002                	j	aa1 <.Ldebug_line0+0x1fc>
     aa3:	0000                	unimp
     aa5:	1b00                	add	s6,s6,zero
     aa7:	0500                	li	a0,0
     aa9:	0002                	j	aa9 <.Ldebug_line0+0x204>
     aab:	0000                	unimp
     aad:	2a00                	srai	s4,s4,0x0
     aaf:	0500                	li	a0,0
     ab1:	0002                	j	ab1 <.Ldebug_line0+0x20c>
     ab3:	0000                	unimp
     ab5:	1800                	add	a6,a6,zero
     ab7:	0500                	li	a0,0
     ab9:	0002                	j	ab9 <.Ldebug_line0+0x214>
     abb:	0000                	unimp
     abd:	1800                	add	a6,a6,zero
     abf:	0500                	li	a0,0
     ac1:	0002                	j	ac1 <.Ldebug_line0+0x21c>
     ac3:	0000                	unimp
     ac5:	1800                	add	a6,a6,zero
     ac7:	0500                	li	a0,0
     ac9:	0002                	j	ac9 <.Ldebug_line0+0x224>
     acb:	0000                	unimp
     acd:	1c00                	add	s8,s8,zero
     acf:	0500                	li	a0,0
     ad1:	0002                	j	ad1 <.Ldebug_line0+0x22c>
     ad3:	0000                	unimp
     ad5:	1800                	add	a6,a6,zero
     ad7:	0500                	li	a0,0
     ad9:	0002                	j	ad9 <.Ldebug_line0+0x234>
     adb:	0000                	unimp
     add:	1800                	add	a6,a6,zero
     adf:	0500                	li	a0,0
     ae1:	0002                	j	ae1 <.Ldebug_line0+0x23c>
     ae3:	0000                	unimp
     ae5:	1800                	add	a6,a6,zero
     ae7:	0500                	li	a0,0
     ae9:	0002                	j	ae9 <.Ldebug_line0+0x244>
     aeb:	0000                	unimp
     aed:	1c00                	add	s8,s8,zero
     aef:	0500                	li	a0,0
     af1:	0002                	j	af1 <.Ldebug_line0+0x24c>
     af3:	0000                	unimp
     af5:	1800                	add	a6,a6,zero
     af7:	0500                	li	a0,0
     af9:	0002                	j	af9 <.Ldebug_line0+0x254>
     afb:	0000                	unimp
     afd:	1800                	add	a6,a6,zero
     aff:	0500                	li	a0,0
     b01:	0002                	j	b01 <.Ldebug_line0+0x25c>
     b03:	0000                	unimp
     b05:	1800                	add	a6,a6,zero
     b07:	0500                	li	a0,0
     b09:	0002                	j	b09 <.Ldebug_line0+0x264>
     b0b:	0000                	unimp
     b0d:	1b00                	add	s6,s6,zero
     b0f:	0500                	li	a0,0
     b11:	0002                	j	b11 <.Ldebug_line0+0x26c>
     b13:	0000                	unimp
     b15:	1800                	add	a6,a6,zero
     b17:	0500                	li	a0,0
     b19:	0002                	j	b19 <.Ldebug_line0+0x274>
     b1b:	0000                	unimp
     b1d:	1800                	add	a6,a6,zero
     b1f:	0500                	li	a0,0
     b21:	0002                	j	b21 <.Ldebug_line0+0x27c>
     b23:	0000                	unimp
     b25:	1800                	add	a6,a6,zero
     b27:	0500                	li	a0,0
     b29:	0002                	j	b29 <.Ldebug_line0+0x284>
     b2b:	0000                	unimp
     b2d:	1b00                	add	s6,s6,zero
     b2f:	0500                	li	a0,0
     b31:	0002                	j	b31 <.Ldebug_line0+0x28c>
     b33:	0000                	unimp
     b35:	1800                	add	a6,a6,zero
     b37:	0500                	li	a0,0
     b39:	0002                	j	b39 <.Ldebug_line0+0x294>
     b3b:	0000                	unimp
     b3d:	1800                	add	a6,a6,zero
     b3f:	0500                	li	a0,0
     b41:	0002                	j	b41 <.Ldebug_line0+0x29c>
     b43:	0000                	unimp
     b45:	0300                	li	t1,0
     b47:	015c                	mv	sp,s7
     b49:	0500                	li	a0,0
     b4b:	0002                	j	b4b <.Ldebug_line0+0x2a6>
     b4d:	0000                	unimp
     b4f:	0000                	unimp
     b51:	0402                	j	d51 <.Ldebug_line0+0xf6>
     b53:	0302                	j	cd3 <.Ldebug_line0+0x78>
     b55:	015c                	mv	sp,s7
     b57:	0500                	li	a0,0
     b59:	0002                	j	b59 <.Ldebug_line0+0x2b4>
     b5b:	0000                	unimp
     b5d:	0000                	unimp
     b5f:	0402                	j	d5f <.Ldebug_line0+0x104>
     b61:	0601                	slli	a2,a2,0x0
     b63:	0001                	0x1
     b65:	0205                	slli	tp,tp,0x1
     b67:	0000                	unimp
     b69:	0000                	unimp
     b6b:	0200                	li	tp,0
     b6d:	0004                	0x4
     b6f:	6206                	bnez	a2,b8f <.Ldebug_line0+0x2ea>
     b71:	0500                	li	a0,0
     b73:	0002                	j	b73 <.Ldebug_line0+0x2ce>
     b75:	0000                	unimp
     b77:	1e00                	add	t3,t3,zero
     b79:	0500                	li	a0,0
     b7b:	0002                	j	b7b <.Ldebug_line0+0x2d6>
     b7d:	0000                	unimp
     b7f:	1800                	add	a6,a6,zero
     b81:	0500                	li	a0,0
     b83:	0002                	j	b83 <.Ldebug_line0+0x2de>
     b85:	0000                	unimp
     b87:	1800                	add	a6,a6,zero
     b89:	0500                	li	a0,0
     b8b:	0002                	j	b8b <.Ldebug_line0+0x2e6>
     b8d:	0000                	unimp
     b8f:	1800                	add	a6,a6,zero
     b91:	0500                	li	a0,0
     b93:	0002                	j	b93 <.Ldebug_line0+0x2ee>
     b95:	0000                	unimp
     b97:	1800                	add	a6,a6,zero
     b99:	0500                	li	a0,0
     b9b:	0002                	j	b9b <.Ldebug_line0+0x2f6>
     b9d:	0000                	unimp
     b9f:	1a00                	add	s4,s4,zero
     ba1:	0500                	li	a0,0
     ba3:	0002                	j	ba3 <.Ldebug_line0+0x2fe>
     ba5:	0000                	unimp
     ba7:	1800                	add	a6,a6,zero
     ba9:	0500                	li	a0,0
     bab:	0002                	j	bab <.Ldebug_line0+0x306>
     bad:	0000                	unimp
     baf:	1900                	add	s2,s2,zero
     bb1:	0500                	li	a0,0
     bb3:	0002                	j	bb3 <.Ldebug_line0+0x30e>
     bb5:	0000                	unimp
     bb7:	1800                	add	a6,a6,zero
     bb9:	0500                	li	a0,0
     bbb:	0002                	j	bbb <.Ldebug_line0+0x316>
     bbd:	0000                	unimp
     bbf:	1900                	add	s2,s2,zero
     bc1:	0500                	li	a0,0
     bc3:	0002                	j	bc3 <.Ldebug_line0+0x31e>
     bc5:	0000                	unimp
     bc7:	1800                	add	a6,a6,zero
     bc9:	0500                	li	a0,0
     bcb:	0002                	j	bcb <.Ldebug_line0+0x326>
     bcd:	0000                	unimp
     bcf:	1a00                	add	s4,s4,zero
     bd1:	0500                	li	a0,0
     bd3:	0002                	j	bd3 <.Ldebug_line0+0x32e>
     bd5:	0000                	unimp
     bd7:	1800                	add	a6,a6,zero
     bd9:	0500                	li	a0,0
     bdb:	0002                	j	bdb <.Ldebug_line0+0x336>
     bdd:	0000                	unimp
     bdf:	1800                	add	a6,a6,zero
     be1:	0500                	li	a0,0
     be3:	0002                	j	be3 <.Ldebug_line0+0x33e>
     be5:	0000                	unimp
     be7:	1800                	add	a6,a6,zero
     be9:	0500                	li	a0,0
     beb:	0002                	j	beb <.Ldebug_line0+0x346>
     bed:	0000                	unimp
     bef:	1800                	add	a6,a6,zero
     bf1:	0500                	li	a0,0
     bf3:	0002                	j	bf3 <.Ldebug_line0+0x34e>
     bf5:	0000                	unimp
     bf7:	1800                	add	a6,a6,zero
     bf9:	0500                	li	a0,0
     bfb:	0002                	j	bfb <.Ldebug_line0+0x356>
     bfd:	0000                	unimp
     bff:	2300                	srai	t1,t1,0x0
     c01:	0500                	li	a0,0
     c03:	0002                	j	c03 <.Ldebug_line0+0x35e>
     c05:	0000                	unimp
     c07:	1800                	add	a6,a6,zero
     c09:	0500                	li	a0,0
     c0b:	0002                	j	c0b <.Ldebug_line0+0x366>
     c0d:	0000                	unimp
     c0f:	1800                	add	a6,a6,zero
     c11:	0500                	li	a0,0
     c13:	0002                	j	c13 <.Ldebug_line0+0x36e>
     c15:	0000                	unimp
     c17:	1800                	add	a6,a6,zero
     c19:	0500                	li	a0,0
     c1b:	0002                	j	c1b <.Ldebug_line0+0x376>
     c1d:	0000                	unimp
     c1f:	1800                	add	a6,a6,zero
     c21:	0500                	li	a0,0
     c23:	0002                	j	c23 <.Ldebug_line0+0x37e>
     c25:	0000                	unimp
     c27:	1a00                	add	s4,s4,zero
     c29:	0500                	li	a0,0
     c2b:	0002                	j	c2b <.Ldebug_line0+0x386>
     c2d:	0000                	unimp
     c2f:	1800                	add	a6,a6,zero
     c31:	0500                	li	a0,0
     c33:	0002                	j	c33 <.Ldebug_line0+0x38e>
     c35:	0000                	unimp
     c37:	1900                	add	s2,s2,zero
     c39:	0500                	li	a0,0
     c3b:	0002                	j	c3b <.Ldebug_line0+0x396>
     c3d:	0000                	unimp
     c3f:	1800                	add	a6,a6,zero
     c41:	0500                	li	a0,0
     c43:	0002                	j	c43 <.Ldebug_line0+0x39e>
     c45:	0000                	unimp
     c47:	1900                	add	s2,s2,zero
     c49:	0500                	li	a0,0
     c4b:	0002                	j	c4b <.Ldebug_line0+0x3a6>
     c4d:	0000                	unimp
     c4f:	1800                	add	a6,a6,zero
     c51:	0500                	li	a0,0
     c53:	0002                	j	c53 <.Ldebug_line0+0x3ae>
     c55:	0000                	unimp
     c57:	0000                	unimp
     c59:	0101                	slli	sp,sp,0x0

00000c5b <.Ldebug_line0>:
     c5b:	0182                	j	d1b <.Ldebug_line0+0xc0>
     c5d:	0000                	unimp
     c5f:	0004                	0x4
     c61:	0086                	j	cc1 <.Ldebug_line0+0x66>
     c63:	0000                	unimp
     c65:	0101                	slli	sp,sp,0x0
     c67:	f601                	bgez	a2,ba7 <.Ldebug_line0+0x302>
     c69:	0df2                	j	1345 <.Ldebug_line0+0x275>
     c6b:	0100                	li	sp,0
     c6d:	0101                	slli	sp,sp,0x0
     c6f:	0001                	0x1
     c71:	0000                	unimp
     c73:	0001                	0x1
     c75:	0100                	li	sp,0
     c77:	6d6f682f          	0x6d6f682f
     c7b:	2f65                	srli	t5,t5,0x19
     c7d:	6568                	sltu	a0,a0,a0
     c7f:	6d616873          	csrrs	a6,0x6d6,2
     c83:	6f72502f          	0x6f72502f
     c87:	656a                	bnez	a0,ce1 <.Ldebug_line0+0x86>
     c89:	2f737463          	bleu	s7,t1,f71 <.Ldebug_line0+0xe0>
     c8d:	344c6573          	csrrs	a0,mip,24
     c91:	4c65732f          	0x4c65732f
     c95:	7234                	0x7234
     c97:	7369                	bltz	a4,bb1 <.Ldebug_line0+0x30c>
     c99:	6d2d7663          	bleu	s2,s10,1365 <.Ldebug_line0+0x295>
     c9d:	6c75                	bltz	s0,d99 <.Ldebug_line0+0x13e>
     c9f:	6974                	0x6974
     ca1:	6e72656b          	0x6e72656b
     ca5:	6c65                	bltz	s0,d9d <.Ldebug_line0+0x142>
     ca7:	6f6f742f          	0x6f6f742f
     cab:	736c                	0x736c
     cad:	6d6f632f          	0x6d6f632f
     cb1:	6f6d                	bltz	a4,dab <.Ldebug_line0+0x150>
     cb3:	2f6e                	jal	146d <.Ldebug_line0+0x1e>
     cb5:	2e2e                	jal	13df <.Ldebug_line0+0x30f>
     cb7:	666c652f          	0x666c652f
     cbb:	6f6c                	sltu	a1,a4,a1
     cbd:	6461                	bltz	s0,d15 <.Ldebug_line0+0xba>
     cbf:	7265                	bltz	a2,bf7 <.Ldebug_line0+0x352>
     cc1:	6372732f          	0x6372732f
     cc5:	6372612f          	0x6372612f
     cc9:	2d68                	srai	s10,s10,0x1a
     ccb:	6972                	bnez	a0,d67 <.Ldebug_line0+0x10c>
     ccd:	00766373          	csrrs	t1,0x7,12
     cd1:	7300                	0x7300
     cd3:	7274                	0x7274
     cd5:	6e69                	bltz	a2,daf <.Ldebug_line0+0x154>
     cd7:	00632e67          	0x632e67
     cdb:	0001                	0x1
     cdd:	7300                	0x7300
     cdf:	6474                	sltu	s0,s0,a3
     ce1:	6e69                	bltz	a2,dbb <.Ldebug_line0+0x160>
     ce3:	2e74                	srai	t3,t3,0x1d
     ce5:	0068                	0x68
     ce7:	0001                	0x1
     ce9:	0000                	unimp
     ceb:	0500                	li	a0,0
     ced:	0002                	j	ced <.Ldebug_line0+0x92>
     cef:	0000                	unimp
     cf1:	2400                	srai	s0,s0,0x0
     cf3:	0500                	li	a0,0
     cf5:	0002                	j	cf5 <.Ldebug_line0+0x9a>
     cf7:	0000                	unimp
     cf9:	1900                	add	s2,s2,zero
     cfb:	0500                	li	a0,0
     cfd:	0002                	j	cfd <.Ldebug_line0+0xa2>
     cff:	0000                	unimp
     d01:	1800                	add	a6,a6,zero
     d03:	0500                	li	a0,0
     d05:	0002                	j	d05 <.Ldebug_line0+0xaa>
     d07:	0000                	unimp
     d09:	1900                	add	s2,s2,zero
     d0b:	0500                	li	a0,0
     d0d:	0002                	j	d0d <.Ldebug_line0+0xb2>
     d0f:	0000                	unimp
     d11:	1800                	add	a6,a6,zero
     d13:	0500                	li	a0,0
     d15:	0002                	j	d15 <.Ldebug_line0+0xba>
     d17:	0000                	unimp
     d19:	1900                	add	s2,s2,zero
     d1b:	0500                	li	a0,0
     d1d:	0002                	j	d1d <.Ldebug_line0+0xc2>
     d1f:	0000                	unimp
     d21:	1800                	add	a6,a6,zero
     d23:	0500                	li	a0,0
     d25:	0002                	j	d25 <.Ldebug_line0+0xca>
     d27:	0000                	unimp
     d29:	1800                	add	a6,a6,zero
     d2b:	0500                	li	a0,0
     d2d:	0002                	j	d2d <.Ldebug_line0+0xd2>
     d2f:	0000                	unimp
     d31:	1800                	add	a6,a6,zero
     d33:	0500                	li	a0,0
     d35:	0002                	j	d35 <.Ldebug_line0+0xda>
     d37:	0000                	unimp
     d39:	1a00                	add	s4,s4,zero
     d3b:	0500                	li	a0,0
     d3d:	0002                	j	d3d <.Ldebug_line0+0xe2>
     d3f:	0000                	unimp
     d41:	1800                	add	a6,a6,zero
     d43:	0500                	li	a0,0
     d45:	0002                	j	d45 <.Ldebug_line0+0xea>
     d47:	0000                	unimp
     d49:	1a00                	add	s4,s4,zero
     d4b:	0500                	li	a0,0
     d4d:	0002                	j	d4d <.Ldebug_line0+0xf2>
     d4f:	0000                	unimp
     d51:	0000                	unimp
     d53:	0402                	j	f53 <.Ldebug_line0+0xc2>
     d55:	05001803          	lh	a6,80(zero)
     d59:	0002                	j	d59 <.Ldebug_line0+0xfe>
     d5b:	0000                	unimp
     d5d:	1600                	add	a2,a2,zero
     d5f:	0500                	li	a0,0
     d61:	0002                	j	d61 <.Ldebug_line0+0x106>
     d63:	0000                	unimp
     d65:	0000                	unimp
     d67:	0402                	j	f67 <.Ldebug_line0+0xd6>
     d69:	0601                	slli	a2,a2,0x0
     d6b:	0001                	0x1
     d6d:	0205                	slli	tp,tp,0x1
     d6f:	0000                	unimp
     d71:	0000                	unimp
     d73:	0200                	li	tp,0
     d75:	0004                	0x4
     d77:	1b06                	j	b17 <.Ldebug_line0+0x272>
     d79:	0500                	li	a0,0
     d7b:	0002                	j	d7b <.Ldebug_line0+0x120>
     d7d:	0000                	unimp
     d7f:	1800                	add	a6,a6,zero
     d81:	0500                	li	a0,0
     d83:	0002                	j	d83 <.Ldebug_line0+0x128>
     d85:	0000                	unimp
     d87:	1a00                	add	s4,s4,zero
     d89:	0500                	li	a0,0
     d8b:	0002                	j	d8b <.Ldebug_line0+0x130>
     d8d:	0000                	unimp
     d8f:	1800                	add	a6,a6,zero
     d91:	0500                	li	a0,0
     d93:	0002                	j	d93 <.Ldebug_line0+0x138>
     d95:	0000                	unimp
     d97:	1800                	add	a6,a6,zero
     d99:	0500                	li	a0,0
     d9b:	0002                	j	d9b <.Ldebug_line0+0x140>
     d9d:	0000                	unimp
     d9f:	1a00                	add	s4,s4,zero
     da1:	0500                	li	a0,0
     da3:	0002                	j	da3 <.Ldebug_line0+0x148>
     da5:	0000                	unimp
     da7:	0000                	unimp
     da9:	0402                	j	fa9 <.Ldebug_line0+0x118>
     dab:	05001803          	lh	a6,80(zero)
     daf:	0002                	j	daf <.Ldebug_line0+0x154>
     db1:	0000                	unimp
     db3:	1600                	add	a2,a2,zero
     db5:	0500                	li	a0,0
     db7:	0002                	j	db7 <.Ldebug_line0+0x15c>
     db9:	0000                	unimp
     dbb:	0000                	unimp
     dbd:	0402                	j	fbd <.Ldebug_line0+0x12c>
     dbf:	0601                	slli	a2,a2,0x0
     dc1:	0001                	0x1
     dc3:	0205                	slli	tp,tp,0x1
     dc5:	0000                	unimp
     dc7:	0000                	unimp
     dc9:	0200                	li	tp,0
     dcb:	0004                	0x4
     dcd:	1b06                	j	b6d <.Ldebug_line0+0x2c8>
     dcf:	0500                	li	a0,0
     dd1:	0002                	j	dd1 <.Ldebug_line0+0x176>
     dd3:	0000                	unimp
     dd5:	1800                	add	a6,a6,zero
     dd7:	0500                	li	a0,0
     dd9:	0002                	j	dd9 <.Ldebug_line0+0x17e>
     ddb:	0000                	unimp
     ddd:	0000                	unimp
     ddf:	0101                	slli	sp,sp,0x0

00000de1 <.Ldebug_line0>:
     de1:	00ac                	mv	ra,a1
     de3:	0000                	unimp
     de5:	0004                	0x4
     de7:	008c                	mv	ra,gp
     de9:	0000                	unimp
     deb:	0101                	slli	sp,sp,0x0
     ded:	f601                	bgez	a2,d2d <.Ldebug_line0+0xd2>
     def:	0df2                	j	14cb <.Ldebug_line0+0x7c>
     df1:	0100                	li	sp,0
     df3:	0101                	slli	sp,sp,0x0
     df5:	0001                	0x1
     df7:	0000                	unimp
     df9:	0001                	0x1
     dfb:	0100                	li	sp,0
     dfd:	6d6f682f          	0x6d6f682f
     e01:	2f65                	srli	t5,t5,0x19
     e03:	6568                	sltu	a0,a0,a0
     e05:	6d616873          	csrrs	a6,0x6d6,2
     e09:	6f72502f          	0x6f72502f
     e0d:	656a                	bnez	a0,e67 <.Ldebug_line0+0x86>
     e0f:	2f737463          	bleu	s7,t1,10f7 <.Ldebug_line0+0x27>
     e13:	344c6573          	csrrs	a0,mip,24
     e17:	4c65732f          	0x4c65732f
     e1b:	7234                	0x7234
     e1d:	7369                	bltz	a4,d37 <.Ldebug_line0+0xdc>
     e1f:	6d2d7663          	bleu	s2,s10,14eb <.Ldebug_line0+0x9c>
     e23:	6c75                	bltz	s0,f1f <.Ldebug_line0+0x8e>
     e25:	6974                	0x6974
     e27:	6e72656b          	0x6e72656b
     e2b:	6c65                	bltz	s0,f23 <.Ldebug_line0+0x92>
     e2d:	6f6f742f          	0x6f6f742f
     e31:	736c                	0x736c
     e33:	6d6f632f          	0x6d6f632f
     e37:	6f6d                	bltz	a4,f31 <.Ldebug_line0+0xa0>
     e39:	2f6e                	jal	15f3 <.Ldebug_line0+0x1a4>
     e3b:	2e2e                	jal	1565 <.Ldebug_line0+0x116>
     e3d:	666c652f          	0x666c652f
     e41:	6f6c                	sltu	a1,a4,a1
     e43:	6461                	bltz	s0,e9b <.Ldebug_line0+0xa>
     e45:	7265                	bltz	a2,d7d <.Ldebug_line0+0x122>
     e47:	6372732f          	0x6372732f
     e4b:	6372612f          	0x6372612f
     e4f:	2d68                	srai	s10,s10,0x1a
     e51:	6972                	bnez	a0,eed <.Ldebug_line0+0x5c>
     e53:	2f766373          	csrrs	t1,0x2f7,12
     e57:	6c70                	sltu	a2,s0,a2
     e59:	7461                	bltz	s0,db1 <.Ldebug_line0+0x156>
     e5b:	732d                	bltz	a4,d85 <.Ldebug_line0+0x12a>
     e5d:	6970                	0x6970
     e5f:	0000656b          	0x656b
     e63:	6c70                	sltu	a2,s0,a2
     e65:	7461                	bltz	s0,dbd <.Ldebug_line0+0x162>
     e67:	6f66                	bnez	a4,f5f <.Ldebug_line0+0xce>
     e69:	6d72                	bnez	a0,f45 <.Ldebug_line0+0xb4>
     e6b:	695f 696e 2e74      	0x2e74696e695f
     e71:	00010063          	beqz	sp,e71 <.Ldebug_line0+0x90>
     e75:	0000                	unimp
     e77:	0500                	li	a0,0
     e79:	0002                	j	e79 <.Ldebug_line0+0x98>
     e7b:	0000                	unimp
     e7d:	1a00                	add	s4,s4,zero
     e7f:	0500                	li	a0,0
     e81:	0002                	j	e81 <.Ldebug_line0+0xa0>
     e83:	0000                	unimp
     e85:	1900                	add	s2,s2,zero
     e87:	0500                	li	a0,0
     e89:	0002                	j	e89 <.Ldebug_line0+0xa8>
     e8b:	0000                	unimp
     e8d:	0000                	unimp
     e8f:	0101                	slli	sp,sp,0x0

00000e91 <.Ldebug_line0>:
     e91:	0000023b          	0x23b
     e95:	0004                	0x4
     e97:	00ff                	0xff
     e99:	0000                	unimp
     e9b:	0101                	slli	sp,sp,0x0
     e9d:	f601                	bgez	a2,ddd <.Ldebug_line0+0x182>
     e9f:	0df2                	j	157b <.Ldebug_line0+0x12c>
     ea1:	0100                	li	sp,0
     ea3:	0101                	slli	sp,sp,0x0
     ea5:	0001                	0x1
     ea7:	0000                	unimp
     ea9:	0001                	0x1
     eab:	0100                	li	sp,0
     ead:	6d6f682f          	0x6d6f682f
     eb1:	2f65                	srli	t5,t5,0x19
     eb3:	6568                	sltu	a0,a0,a0
     eb5:	6d616873          	csrrs	a6,0x6d6,2
     eb9:	6f72502f          	0x6f72502f
     ebd:	656a                	bnez	a0,f17 <.Ldebug_line0+0x86>
     ebf:	2f737463          	bleu	s7,t1,11a7 <.Ldebug_line0+0xd7>
     ec3:	344c6573          	csrrs	a0,mip,24
     ec7:	4c65732f          	0x4c65732f
     ecb:	7234                	0x7234
     ecd:	7369                	bltz	a4,de7 <.Ldebug_line0+0x6>
     ecf:	6d2d7663          	bleu	s2,s10,159b <.Ldebug_line0+0x14c>
     ed3:	6c75                	bltz	s0,fcf <.Ldebug_line0+0x13e>
     ed5:	6974                	0x6974
     ed7:	6e72656b          	0x6e72656b
     edb:	6c65                	bltz	s0,fd3 <.Ldebug_line0+0x142>
     edd:	6f6f742f          	0x6f6f742f
     ee1:	736c                	0x736c
     ee3:	6d6f632f          	0x6d6f632f
     ee7:	6f6d                	bltz	a4,fe1 <.Ldebug_line0+0x150>
     ee9:	2f6e                	jal	16a3 <.Ldebug_line0+0x254>
     eeb:	2e2e                	jal	1615 <.Ldebug_line0+0x1c6>
     eed:	666c652f          	0x666c652f
     ef1:	6f6c                	sltu	a1,a4,a1
     ef3:	6461                	bltz	s0,f4b <.Ldebug_line0+0xba>
     ef5:	7265                	bltz	a2,e2d <.Ldebug_line0+0x4c>
     ef7:	6372732f          	0x6372732f
     efb:	6372612f          	0x6372612f
     eff:	2d68                	srai	s10,s10,0x1a
     f01:	6972                	bnez	a0,f9d <.Ldebug_line0+0x10c>
     f03:	2f766373          	csrrs	t1,0x2f7,12
     f07:	6c70                	sltu	a2,s0,a2
     f09:	7461                	bltz	s0,e61 <.Ldebug_line0+0x80>
     f0b:	732d                	bltz	a4,e35 <.Ldebug_line0+0x54>
     f0d:	6970                	0x6970
     f0f:	2f00656b          	0x2f00656b
     f13:	6f68                	sltu	a0,a4,a0
     f15:	656d                	bltz	a0,f8f <.Ldebug_line0+0xfe>
     f17:	7365682f          	0x7365682f
     f1b:	6168                	0x6168
     f1d:	2f6d                	srli	t5,t5,0x1b
     f1f:	7250                	0x7250
     f21:	63656a6f          	jal	s4,57557 <.L0 +0x432a7>
     f25:	7374                	0x7374
     f27:	4c65732f          	0x4c65732f
     f2b:	2f34                	srai	t5,t5,0xd
     f2d:	344c6573          	csrrs	a0,mip,24
     f31:	6972                	bnez	a0,fcd <.Ldebug_line0+0x13c>
     f33:	2d766373          	csrrs	t1,0x2d7,12
     f37:	756d                	bltz	a0,eb1 <.Ldebug_line0+0x20>
     f39:	746c                	0x746c
     f3b:	6b69                	bltz	a4,fd5 <.Ldebug_line0+0x144>
     f3d:	7265                	bltz	a2,e75 <.Ldebug_line0+0x94>
     f3f:	656e                	bnez	a0,fb9 <.Ldebug_line0+0x128>
     f41:	2f6c                	srai	t5,t5,0x1b
     f43:	6f74                	sltu	a3,a4,a3
     f45:	2f736c6f          	jal	s8,37a3b <.L0 +0x2378b>
     f49:	6d6d6f63          	bltu	s10,s6,1627 <.Ldebug_line0+0x1d8>
     f4d:	2e2f6e6f          	jal	t3,f722f <.L0 +0xe2f7f>
     f51:	2f2e                	jal	16fb <.Ldebug_line0+0x2ac>
     f53:	6c65                	bltz	s0,104b <.Ldebug_line0+0x1ba>
     f55:	6c66                	bnez	s0,104d <.Ldebug_line0+0x1bc>
     f57:	6564616f          	jal	sp,475ad <.L0 +0x332fd>
     f5b:	2f72                	jal	16f7 <.Ldebug_line0+0x2a8>
     f5d:	2f637273          	csrrc	tp,0x2f6,6
     f61:	7261                	bltz	a2,e79 <.Ldebug_line0+0x98>
     f63:	722d6863          	bltu	s10,sp,1693 <.Ldebug_line0+0x244>
     f67:	7369                	bltz	a4,e81 <.Ldebug_line0+0xa0>
     f69:	702f7663          	bleu	sp,t5,1675 <.Ldebug_line0+0x226>
     f6d:	616c                	0x616c
     f6f:	2d74                	srai	s10,s10,0x1d
     f71:	6b697073          	csrci	0x6b6,18
     f75:	2f65                	srli	t5,t5,0x19
     f77:	2e2e                	jal	16a1 <.Ldebug_line0+0x252>
     f79:	0000                	unimp
     f7b:	5f737973          	csrrc	s2,0x5f7,6
     f7f:	7066                	bnez	s0,eb7 <.Ldebug_line0+0x26>
     f81:	7475                	bltz	s0,efd <.Ldebug_line0+0x6c>
     f83:	00632e63          	0x632e63
     f87:	0001                	0x1
     f89:	2e00                	srai	t3,t3,0x0
     f8b:	2f2e                	jal	1735 <.Ldebug_line0+0x2e6>
     f8d:	69647473          	csrrc	s0,0x696,8
     f91:	746e                	bnez	s0,f0b <.Ldebug_line0+0x7a>
     f93:	682e                	bnez	s0,103d <.Ldebug_line0+0x1ac>
     f95:	0100                	li	sp,0
     f97:	0000                	unimp
     f99:	0000                	unimp
     f9b:	0205                	slli	tp,tp,0x1
     f9d:	0000                	unimp
     f9f:	0000                	unimp
     fa1:	0032                	j	fad <.Ldebug_line0+0x11c>
     fa3:	0205                	slli	tp,tp,0x1
     fa5:	0000                	unimp
     fa7:	0000                	unimp
     fa9:	0018                	0x18
     fab:	0205                	slli	tp,tp,0x1
     fad:	0000                	unimp
     faf:	0000                	unimp
     fb1:	0018                	0x18
     fb3:	0205                	slli	tp,tp,0x1
     fb5:	0000                	unimp
     fb7:	0000                	unimp
     fb9:	0018                	0x18
     fbb:	0205                	slli	tp,tp,0x1
     fbd:	0000                	unimp
     fbf:	0000                	unimp
     fc1:	0018                	0x18
     fc3:	0205                	slli	tp,tp,0x1
     fc5:	0000                	unimp
     fc7:	0000                	unimp
     fc9:	0018                	0x18
     fcb:	0205                	slli	tp,tp,0x1
     fcd:	0000                	unimp
     fcf:	0000                	unimp
     fd1:	0018                	0x18
     fd3:	0205                	slli	tp,tp,0x1
     fd5:	0000                	unimp
     fd7:	0000                	unimp
     fd9:	0018                	0x18
     fdb:	0205                	slli	tp,tp,0x1
     fdd:	0000                	unimp
     fdf:	0000                	unimp
     fe1:	001a                	j	fe7 <.Ldebug_line0+0x156>
     fe3:	0205                	slli	tp,tp,0x1
     fe5:	0000                	unimp
     fe7:	0000                	unimp
     fe9:	0019                	0x19
     feb:	0205                	slli	tp,tp,0x1
     fed:	0000                	unimp
     fef:	0000                	unimp
     ff1:	0018                	0x18
     ff3:	0205                	slli	tp,tp,0x1
     ff5:	0000                	unimp
     ff7:	0000                	unimp
     ff9:	0018                	0x18
     ffb:	0205                	slli	tp,tp,0x1
     ffd:	0000                	unimp
     fff:	0000                	unimp
    1001:	0018                	0x18
    1003:	0205                	slli	tp,tp,0x1
    1005:	0000                	unimp
    1007:	0000                	unimp
    1009:	0018                	0x18
    100b:	0205                	slli	tp,tp,0x1
    100d:	0000                	unimp
    100f:	0000                	unimp
    1011:	0018                	0x18
    1013:	0205                	slli	tp,tp,0x1
    1015:	0000                	unimp
    1017:	0000                	unimp
    1019:	0018                	0x18
    101b:	0205                	slli	tp,tp,0x1
    101d:	0000                	unimp
    101f:	0000                	unimp
    1021:	0200                	li	tp,0
    1023:	0104                	mv	sp,ra
    1025:	0106                	j	10c5 <.Ldebug_line0+0x234>
    1027:	0500                	li	a0,0
    1029:	0002                	j	1029 <.Ldebug_line0+0x198>
    102b:	0000                	unimp
    102d:	0000                	unimp
    102f:	0402                	j	122f <.Ldebug_line0+0x15f>
    1031:	0600                	li	a2,0
    1033:	0018                	0x18
    1035:	0205                	slli	tp,tp,0x1
    1037:	0000                	unimp
    1039:	0000                	unimp
    103b:	0018                	0x18
    103d:	0205                	slli	tp,tp,0x1
    103f:	0000                	unimp
    1041:	0000                	unimp
    1043:	001a                	j	1049 <.Ldebug_line0+0x1b8>
    1045:	0205                	slli	tp,tp,0x1
    1047:	0000                	unimp
    1049:	0000                	unimp
    104b:	0018                	0x18
    104d:	0205                	slli	tp,tp,0x1
    104f:	0000                	unimp
    1051:	0000                	unimp
    1053:	0019                	0x19
    1055:	0205                	slli	tp,tp,0x1
    1057:	0000                	unimp
    1059:	0000                	unimp
    105b:	0019                	0x19
    105d:	0205                	slli	tp,tp,0x1
    105f:	0000                	unimp
    1061:	0000                	unimp
    1063:	001a                	j	1069 <.Ldebug_line0+0x1d8>
    1065:	0205                	slli	tp,tp,0x1
    1067:	0000                	unimp
    1069:	0000                	unimp
    106b:	0019                	0x19
    106d:	0205                	slli	tp,tp,0x1
    106f:	0000                	unimp
    1071:	0000                	unimp
    1073:	0018                	0x18
    1075:	0205                	slli	tp,tp,0x1
    1077:	0000                	unimp
    1079:	0000                	unimp
    107b:	0018                	0x18
    107d:	0205                	slli	tp,tp,0x1
    107f:	0000                	unimp
    1081:	0000                	unimp
    1083:	0205001b          	0x205001b
    1087:	0000                	unimp
    1089:	0000                	unimp
    108b:	001a                	j	1091 <.Ldebug_line0+0x200>
    108d:	0205                	slli	tp,tp,0x1
    108f:	0000                	unimp
    1091:	0000                	unimp
    1093:	0018                	0x18
    1095:	0205                	slli	tp,tp,0x1
    1097:	0000                	unimp
    1099:	0000                	unimp
    109b:	0200                	li	tp,0
    109d:	0104                	mv	sp,ra
    109f:	0106                	j	113f <.Ldebug_line0+0x6f>
    10a1:	0500                	li	a0,0
    10a3:	0002                	j	10a3 <.Ldebug_line0+0x212>
    10a5:	0000                	unimp
    10a7:	0000                	unimp
    10a9:	0402                	j	12a9 <.Ldebug_line0+0x1d9>
    10ab:	0600                	li	a2,0
    10ad:	0019                	0x19
    10af:	0205                	slli	tp,tp,0x1
    10b1:	0000                	unimp
    10b3:	0000                	unimp
    10b5:	0018                	0x18
    10b7:	0205                	slli	tp,tp,0x1
    10b9:	0000                	unimp
    10bb:	0000                	unimp
    10bd:	0019                	0x19
    10bf:	0205                	slli	tp,tp,0x1
    10c1:	0000                	unimp
    10c3:	0000                	unimp
    10c5:	0018                	0x18
    10c7:	0205                	slli	tp,tp,0x1
    10c9:	0000                	unimp
    10cb:	0000                	unimp
    10cd:	0100                	li	sp,0
    10cf:	7b01                	bltz	a4,104f <.Ldebug_line0+0x1be>

000010d0 <.Ldebug_line0>:
    10d0:	0000037b          	custom3	6,0,0,0
    10d4:	0004                	0x4
    10d6:	00f8                	mv	ra,t5
    10d8:	0000                	unimp
    10da:	0101                	slli	sp,sp,0x0
    10dc:	f601                	bgez	a2,101c <.Ldebug_line0+0x18b>
    10de:	0df2                	j	17ba <.Ldebug_line0+0x36b>
    10e0:	0100                	li	sp,0
    10e2:	0101                	slli	sp,sp,0x0
    10e4:	0001                	0x1
    10e6:	0000                	unimp
    10e8:	0001                	0x1
    10ea:	0100                	li	sp,0
    10ec:	6d6f682f          	0x6d6f682f
    10f0:	2f65                	srli	t5,t5,0x19
    10f2:	6568                	sltu	a0,a0,a0
    10f4:	6d616873          	csrrs	a6,0x6d6,2
    10f8:	6f72502f          	0x6f72502f
    10fc:	656a                	bnez	a0,1156 <.Ldebug_line0+0x86>
    10fe:	2f737463          	bleu	s7,t1,13e6 <.Ldebug_line0+0x316>
    1102:	344c6573          	csrrs	a0,mip,24
    1106:	4c65732f          	0x4c65732f
    110a:	7234                	0x7234
    110c:	7369                	bltz	a4,1026 <.Ldebug_line0+0x195>
    110e:	6d2d7663          	bleu	s2,s10,17da <.Ldebug_line0+0x4>
    1112:	6c75                	bltz	s0,120e <.Ldebug_line0+0x13e>
    1114:	6974                	0x6974
    1116:	6e72656b          	0x6e72656b
    111a:	6c65                	bltz	s0,1212 <.Ldebug_line0+0x142>
    111c:	6f6f742f          	0x6f6f742f
    1120:	736c                	0x736c
    1122:	6d6f632f          	0x6d6f632f
    1126:	6f6d                	bltz	a4,1220 <.Ldebug_line0+0x150>
    1128:	2f6e                	jal	18e2 <.Ldebug_line0+0x10c>
    112a:	2e2e                	jal	1854 <.Ldebug_line0+0x7e>
    112c:	666c652f          	0x666c652f
    1130:	6f6c                	sltu	a1,a4,a1
    1132:	6461                	bltz	s0,118a <.Ldebug_line0+0xba>
    1134:	7265                	bltz	a2,106c <.Ldebug_line0+0x1db>
    1136:	6372732f          	0x6372732f
    113a:	6372612f          	0x6372612f
    113e:	2d68                	srai	s10,s10,0x1a
    1140:	6972                	bnez	a0,11dc <.Ldebug_line0+0x10c>
    1142:	2f766373          	csrrs	t1,0x2f7,12
    1146:	6c65                	bltz	s0,123e <.Ldebug_line0+0x16e>
    1148:	0066                	j	1180 <.Ldebug_line0+0xb0>
    114a:	6d6f682f          	0x6d6f682f
    114e:	2f65                	srli	t5,t5,0x19
    1150:	6568                	sltu	a0,a0,a0
    1152:	6d616873          	csrrs	a6,0x6d6,2
    1156:	6f72502f          	0x6f72502f
    115a:	656a                	bnez	a0,11b4 <.Ldebug_line0+0xe4>
    115c:	2f737463          	bleu	s7,t1,1444 <.Ldebug_line0+0x374>
    1160:	344c6573          	csrrs	a0,mip,24
    1164:	4c65732f          	0x4c65732f
    1168:	7234                	0x7234
    116a:	7369                	bltz	a4,1084 <.Ldebug_line0+0x1f3>
    116c:	6d2d7663          	bleu	s2,s10,1838 <.Ldebug_line0+0x62>
    1170:	6c75                	bltz	s0,126c <.Ldebug_line0+0x19c>
    1172:	6974                	0x6974
    1174:	6e72656b          	0x6e72656b
    1178:	6c65                	bltz	s0,1270 <.Ldebug_line0+0x1a0>
    117a:	6f6f742f          	0x6f6f742f
    117e:	736c                	0x736c
    1180:	6d6f632f          	0x6d6f632f
    1184:	6f6d                	bltz	a4,127e <.Ldebug_line0+0x1ae>
    1186:	2f6e                	jal	1940 <.Ldebug_line0+0x16a>
    1188:	2e2e                	jal	18b2 <.Ldebug_line0+0xdc>
    118a:	666c652f          	0x666c652f
    118e:	6f6c                	sltu	a1,a4,a1
    1190:	6461                	bltz	s0,11e8 <.Ldebug_line0+0x118>
    1192:	7265                	bltz	a2,10ca <.Ldebug_line0+0x239>
    1194:	6372732f          	0x6372732f
    1198:	6372612f          	0x6372612f
    119c:	2d68                	srai	s10,s10,0x1a
    119e:	6972                	bnez	a0,123a <.Ldebug_line0+0x16a>
    11a0:	2f766373          	csrrs	t1,0x2f7,12
    11a4:	6c65                	bltz	s0,129c <.Ldebug_line0+0x1cc>
    11a6:	2f66                	jal	195e <.Ldebug_line0+0x188>
    11a8:	2e2e                	jal	18d2 <.Ldebug_line0+0xfc>
    11aa:	0000                	unimp
    11ac:	6c65                	bltz	s0,12a4 <.Ldebug_line0+0x1d4>
    11ae:	3366                	jal	b66 <.Ldebug_line0+0x2c1>
    11b0:	2e32                	jal	18bc <.Ldebug_line0+0xe6>
    11b2:	0068                	0x68
    11b4:	0001                	0x1
    11b6:	6500                	sll	a0,a0,s0
    11b8:	666c                	sltu	a2,a2,a1
    11ba:	632e3233          	0x632e3233
    11be:	0100                	li	sp,0
    11c0:	0000                	unimp
    11c2:	2e2e                	jal	18ec <.Ldebug_line0+0x116>
    11c4:	6474732f          	0x6474732f
    11c8:	6e69                	bltz	a2,12a2 <.Ldebug_line0+0x1d2>
    11ca:	2e74                	srai	t3,t3,0x1d
    11cc:	0068                	0x68
    11ce:	0001                	0x1
    11d0:	0000                	unimp
    11d2:	0500                	li	a0,0
    11d4:	0002                	j	11d4 <.Ldebug_line0+0x104>
    11d6:	0000                	unimp
    11d8:	b300                	add	a2,a4,s0
    11da:	0500                	li	a0,0
    11dc:	0002                	j	11dc <.Ldebug_line0+0x10c>
    11de:	0000                	unimp
    11e0:	1900                	add	s2,s2,zero
    11e2:	0500                	li	a0,0
    11e4:	0002                	j	11e4 <.Ldebug_line0+0x114>
    11e6:	0000                	unimp
    11e8:	1800                	add	a6,a6,zero
    11ea:	0500                	li	a0,0
    11ec:	0002                	j	11ec <.Ldebug_line0+0x11c>
    11ee:	0000                	unimp
    11f0:	0400                	li	s0,0
    11f2:	0302                	j	1372 <.Ldebug_line0+0x2a2>
    11f4:	7fb6                	bnez	a5,11e0 <.Ldebug_line0+0x110>
    11f6:	0001                	0x1
    11f8:	0205                	slli	tp,tp,0x1
    11fa:	0000                	unimp
    11fc:	0000                	unimp
    11fe:	0018                	0x18
    1200:	0205                	slli	tp,tp,0x1
    1202:	0000                	unimp
    1204:	0000                	unimp
    1206:	0018                	0x18
    1208:	0205                	slli	tp,tp,0x1
    120a:	0000                	unimp
    120c:	0000                	unimp
    120e:	0018                	0x18
    1210:	0205                	slli	tp,tp,0x1
    1212:	0000                	unimp
    1214:	0000                	unimp
    1216:	0018                	0x18
    1218:	0205                	slli	tp,tp,0x1
    121a:	0000                	unimp
    121c:	0000                	unimp
    121e:	0018                	0x18
    1220:	0205                	slli	tp,tp,0x1
    1222:	0000                	unimp
    1224:	0000                	unimp
    1226:	0019                	0x19
    1228:	0205                	slli	tp,tp,0x1
    122a:	0000                	unimp
    122c:	0000                	unimp
    122e:	0018                	0x18
    1230:	0205                	slli	tp,tp,0x1
    1232:	0000                	unimp
    1234:	0000                	unimp
    1236:	0019                	0x19
    1238:	0205                	slli	tp,tp,0x1
    123a:	0000                	unimp
    123c:	0000                	unimp
    123e:	0018                	0x18
    1240:	0205                	slli	tp,tp,0x1
    1242:	0000                	unimp
    1244:	0000                	unimp
    1246:	001e                	j	126c <.Ldebug_line0+0x19c>
    1248:	0205                	slli	tp,tp,0x1
    124a:	0000                	unimp
    124c:	0000                	unimp
    124e:	0018                	0x18
    1250:	0205                	slli	tp,tp,0x1
    1252:	0000                	unimp
    1254:	0000                	unimp
    1256:	0018                	0x18
    1258:	0205                	slli	tp,tp,0x1
    125a:	0000                	unimp
    125c:	0000                	unimp
    125e:	0205001b          	0x205001b
    1262:	0000                	unimp
    1264:	0000                	unimp
    1266:	0018                	0x18
    1268:	0205                	slli	tp,tp,0x1
    126a:	0000                	unimp
    126c:	0000                	unimp
    126e:	0018                	0x18
    1270:	0205                	slli	tp,tp,0x1
    1272:	0000                	unimp
    1274:	0000                	unimp
    1276:	0018                	0x18
    1278:	0205                	slli	tp,tp,0x1
    127a:	0000                	unimp
    127c:	0000                	unimp
    127e:	001d                	0x1d
    1280:	0205                	slli	tp,tp,0x1
    1282:	0000                	unimp
    1284:	0000                	unimp
    1286:	0018                	0x18
    1288:	0205                	slli	tp,tp,0x1
    128a:	0000                	unimp
    128c:	0000                	unimp
    128e:	0018                	0x18
    1290:	0205                	slli	tp,tp,0x1
    1292:	0000                	unimp
    1294:	0000                	unimp
    1296:	0018                	0x18
    1298:	0205                	slli	tp,tp,0x1
    129a:	0000                	unimp
    129c:	0000                	unimp
    129e:	001c                	0x1c
    12a0:	0205                	slli	tp,tp,0x1
    12a2:	0000                	unimp
    12a4:	0000                	unimp
    12a6:	0018                	0x18
    12a8:	0205                	slli	tp,tp,0x1
    12aa:	0000                	unimp
    12ac:	0000                	unimp
    12ae:	0018                	0x18
    12b0:	0205                	slli	tp,tp,0x1
    12b2:	0000                	unimp
    12b4:	0000                	unimp
    12b6:	0018                	0x18
    12b8:	0205                	slli	tp,tp,0x1
    12ba:	0000                	unimp
    12bc:	0000                	unimp
    12be:	0205001b          	0x205001b
    12c2:	0000                	unimp
    12c4:	0000                	unimp
    12c6:	0018                	0x18
    12c8:	0205                	slli	tp,tp,0x1
    12ca:	0000                	unimp
    12cc:	0000                	unimp
    12ce:	0018                	0x18
    12d0:	0205                	slli	tp,tp,0x1
    12d2:	0000                	unimp
    12d4:	0000                	unimp
    12d6:	0018                	0x18
    12d8:	0205                	slli	tp,tp,0x1
    12da:	0000                	unimp
    12dc:	0000                	unimp
    12de:	0018                	0x18
    12e0:	0205                	slli	tp,tp,0x1
    12e2:	0000                	unimp
    12e4:	0000                	unimp
    12e6:	0019                	0x19
    12e8:	0205                	slli	tp,tp,0x1
    12ea:	0000                	unimp
    12ec:	0000                	unimp
    12ee:	0019                	0x19
    12f0:	0205                	slli	tp,tp,0x1
    12f2:	0000                	unimp
    12f4:	0000                	unimp
    12f6:	0205001b          	0x205001b
    12fa:	0000                	unimp
    12fc:	0000                	unimp
    12fe:	0018                	0x18
    1300:	0205                	slli	tp,tp,0x1
    1302:	0000                	unimp
    1304:	0000                	unimp
    1306:	0018                	0x18
    1308:	0205                	slli	tp,tp,0x1
    130a:	0000                	unimp
    130c:	0000                	unimp
    130e:	0018                	0x18
    1310:	0205                	slli	tp,tp,0x1
    1312:	0000                	unimp
    1314:	0000                	unimp
    1316:	0205001b          	0x205001b
    131a:	0000                	unimp
    131c:	0000                	unimp
    131e:	0018                	0x18
    1320:	0205                	slli	tp,tp,0x1
    1322:	0000                	unimp
    1324:	0000                	unimp
    1326:	0018                	0x18
    1328:	0205                	slli	tp,tp,0x1
    132a:	0000                	unimp
    132c:	0000                	unimp
    132e:	0018                	0x18
    1330:	0205                	slli	tp,tp,0x1
    1332:	0000                	unimp
    1334:	0000                	unimp
    1336:	0205001b          	0x205001b
    133a:	0000                	unimp
    133c:	0000                	unimp
    133e:	0018                	0x18
    1340:	0205                	slli	tp,tp,0x1
    1342:	0000                	unimp
    1344:	0000                	unimp
    1346:	0018                	0x18
    1348:	0205                	slli	tp,tp,0x1
    134a:	0000                	unimp
    134c:	0000                	unimp
    134e:	0018                	0x18
    1350:	0205                	slli	tp,tp,0x1
    1352:	0000                	unimp
    1354:	0000                	unimp
    1356:	0205001b          	0x205001b
    135a:	0000                	unimp
    135c:	0000                	unimp
    135e:	0018                	0x18
    1360:	0205                	slli	tp,tp,0x1
    1362:	0000                	unimp
    1364:	0000                	unimp
    1366:	0019                	0x19
    1368:	0205                	slli	tp,tp,0x1
    136a:	0000                	unimp
    136c:	0000                	unimp
    136e:	0018                	0x18
    1370:	0205                	slli	tp,tp,0x1
    1372:	0000                	unimp
    1374:	0000                	unimp
    1376:	0018                	0x18
    1378:	0205                	slli	tp,tp,0x1
    137a:	0000                	unimp
    137c:	0000                	unimp
    137e:	0200                	li	tp,0
    1380:	0204                	mv	tp,ra
    1382:	0015                	0x15
    1384:	0205                	slli	tp,tp,0x1
    1386:	0000                	unimp
    1388:	0000                	unimp
    138a:	0200                	li	tp,0
    138c:	0104                	mv	sp,ra
    138e:	0106                	j	142e <.Ldebug_line0+0x35e>
    1390:	0500                	li	a0,0
    1392:	0002                	j	1392 <.Ldebug_line0+0x2c2>
    1394:	0000                	unimp
    1396:	0000                	unimp
    1398:	0402                	j	1598 <.Ldebug_line0+0x149>
    139a:	0600                	li	a2,0
    139c:	001c                	0x1c
    139e:	0205                	slli	tp,tp,0x1
    13a0:	0000                	unimp
    13a2:	0000                	unimp
    13a4:	0018                	0x18
    13a6:	0205                	slli	tp,tp,0x1
    13a8:	0000                	unimp
    13aa:	0000                	unimp
    13ac:	0205001b          	0x205001b
    13b0:	0000                	unimp
    13b2:	0000                	unimp
    13b4:	0018                	0x18
    13b6:	0205                	slli	tp,tp,0x1
    13b8:	0000                	unimp
    13ba:	0000                	unimp
    13bc:	0018                	0x18
    13be:	0205                	slli	tp,tp,0x1
    13c0:	0000                	unimp
    13c2:	0000                	unimp
    13c4:	0018                	0x18
    13c6:	0205                	slli	tp,tp,0x1
    13c8:	0000                	unimp
    13ca:	0000                	unimp
    13cc:	0019                	0x19
    13ce:	0205                	slli	tp,tp,0x1
    13d0:	0000                	unimp
    13d2:	0000                	unimp
    13d4:	0019                	0x19
    13d6:	0205                	slli	tp,tp,0x1
    13d8:	0000                	unimp
    13da:	0000                	unimp
    13dc:	02050033          	mul	zero,a0,zero
    13e0:	0000                	unimp
    13e2:	0000                	unimp
    13e4:	0018                	0x18
    13e6:	0205                	slli	tp,tp,0x1
    13e8:	0000                	unimp
    13ea:	0000                	unimp
    13ec:	0018                	0x18
    13ee:	0205                	slli	tp,tp,0x1
    13f0:	0000                	unimp
    13f2:	0000                	unimp
    13f4:	0205001b          	0x205001b
    13f8:	0000                	unimp
    13fa:	0000                	unimp
    13fc:	001a                	j	1402 <.Ldebug_line0+0x332>
    13fe:	0205                	slli	tp,tp,0x1
    1400:	0000                	unimp
    1402:	0000                	unimp
    1404:	0018                	0x18
    1406:	0205                	slli	tp,tp,0x1
    1408:	0000                	unimp
    140a:	0000                	unimp
    140c:	0018                	0x18
    140e:	0205                	slli	tp,tp,0x1
    1410:	0000                	unimp
    1412:	0000                	unimp
    1414:	0018                	0x18
    1416:	0205                	slli	tp,tp,0x1
    1418:	0000                	unimp
    141a:	0000                	unimp
    141c:	0018                	0x18
    141e:	0205                	slli	tp,tp,0x1
    1420:	0000                	unimp
    1422:	0000                	unimp
    1424:	0018                	0x18
    1426:	0205                	slli	tp,tp,0x1
    1428:	0000                	unimp
    142a:	0000                	unimp
    142c:	0018                	0x18
    142e:	0205                	slli	tp,tp,0x1
    1430:	0000                	unimp
    1432:	0000                	unimp
    1434:	0205001b          	0x205001b
    1438:	0000                	unimp
    143a:	0000                	unimp
    143c:	0018                	0x18
    143e:	0205                	slli	tp,tp,0x1
    1440:	0000                	unimp
    1442:	0000                	unimp
    1444:	0018                	0x18
    1446:	0205                	slli	tp,tp,0x1
    1448:	0000                	unimp
    144a:	0000                	unimp
    144c:	0100                	li	sp,0
    144e:	8301                	addi	s0,a4,0

0000144f <.Ldebug_line0>:
    144f:	00000383          	lb	t2,0(zero)
    1453:	0004                	0x4
    1455:	00f8                	mv	ra,t5
    1457:	0000                	unimp
    1459:	0101                	slli	sp,sp,0x0
    145b:	f601                	bgez	a2,139b <.Ldebug_line0+0x2cb>
    145d:	0df2                	j	1b39 <.Ldebug_line0+0x363>
    145f:	0100                	li	sp,0
    1461:	0101                	slli	sp,sp,0x0
    1463:	0001                	0x1
    1465:	0000                	unimp
    1467:	0001                	0x1
    1469:	0100                	li	sp,0
    146b:	6d6f682f          	0x6d6f682f
    146f:	2f65                	srli	t5,t5,0x19
    1471:	6568                	sltu	a0,a0,a0
    1473:	6d616873          	csrrs	a6,0x6d6,2
    1477:	6f72502f          	0x6f72502f
    147b:	656a                	bnez	a0,14d5 <.Ldebug_line0+0x86>
    147d:	2f737463          	bleu	s7,t1,1765 <.Ldebug_line0+0x316>
    1481:	344c6573          	csrrs	a0,mip,24
    1485:	4c65732f          	0x4c65732f
    1489:	7234                	0x7234
    148b:	7369                	bltz	a4,13a5 <.Ldebug_line0+0x2d5>
    148d:	6d2d7663          	bleu	s2,s10,1b59 <.Ldebug_line0+0x383>
    1491:	6c75                	bltz	s0,158d <.Ldebug_line0+0x13e>
    1493:	6974                	0x6974
    1495:	6e72656b          	0x6e72656b
    1499:	6c65                	bltz	s0,1591 <.Ldebug_line0+0x142>
    149b:	6f6f742f          	0x6f6f742f
    149f:	736c                	0x736c
    14a1:	6d6f632f          	0x6d6f632f
    14a5:	6f6d                	bltz	a4,159f <.Ldebug_line0+0x150>
    14a7:	2f6e                	jal	1c61 <.Ldebug_line0+0x48b>
    14a9:	2e2e                	jal	1bd3 <.Ldebug_line0+0x3fd>
    14ab:	666c652f          	0x666c652f
    14af:	6f6c                	sltu	a1,a4,a1
    14b1:	6461                	bltz	s0,1509 <.Ldebug_line0+0xba>
    14b3:	7265                	bltz	a2,13eb <.Ldebug_line0+0x31b>
    14b5:	6372732f          	0x6372732f
    14b9:	6372612f          	0x6372612f
    14bd:	2d68                	srai	s10,s10,0x1a
    14bf:	6972                	bnez	a0,155b <.Ldebug_line0+0x10c>
    14c1:	2f766373          	csrrs	t1,0x2f7,12
    14c5:	6c65                	bltz	s0,15bd <.Ldebug_line0+0x16e>
    14c7:	0066                	j	14ff <.Ldebug_line0+0xb0>
    14c9:	6d6f682f          	0x6d6f682f
    14cd:	2f65                	srli	t5,t5,0x19
    14cf:	6568                	sltu	a0,a0,a0
    14d1:	6d616873          	csrrs	a6,0x6d6,2
    14d5:	6f72502f          	0x6f72502f
    14d9:	656a                	bnez	a0,1533 <.Ldebug_line0+0xe4>
    14db:	2f737463          	bleu	s7,t1,17c3 <.Ldebug_line0+0x374>
    14df:	344c6573          	csrrs	a0,mip,24
    14e3:	4c65732f          	0x4c65732f
    14e7:	7234                	0x7234
    14e9:	7369                	bltz	a4,1403 <.Ldebug_line0+0x333>
    14eb:	6d2d7663          	bleu	s2,s10,1bb7 <.Ldebug_line0+0x3e1>
    14ef:	6c75                	bltz	s0,15eb <.Ldebug_line0+0x19c>
    14f1:	6974                	0x6974
    14f3:	6e72656b          	0x6e72656b
    14f7:	6c65                	bltz	s0,15ef <.Ldebug_line0+0x1a0>
    14f9:	6f6f742f          	0x6f6f742f
    14fd:	736c                	0x736c
    14ff:	6d6f632f          	0x6d6f632f
    1503:	6f6d                	bltz	a4,15fd <.Ldebug_line0+0x1ae>
    1505:	2f6e                	jal	1cbf <.Ldebug_line0+0x4e9>
    1507:	2e2e                	jal	1c31 <.Ldebug_line0+0x45b>
    1509:	666c652f          	0x666c652f
    150d:	6f6c                	sltu	a1,a4,a1
    150f:	6461                	bltz	s0,1567 <.Ldebug_line0+0x118>
    1511:	7265                	bltz	a2,1449 <.Ldebug_line0+0x379>
    1513:	6372732f          	0x6372732f
    1517:	6372612f          	0x6372612f
    151b:	2d68                	srai	s10,s10,0x1a
    151d:	6972                	bnez	a0,15b9 <.Ldebug_line0+0x16a>
    151f:	2f766373          	csrrs	t1,0x2f7,12
    1523:	6c65                	bltz	s0,161b <.Ldebug_line0+0x1cc>
    1525:	2f66                	jal	1cdd <.Ldebug_line0+0x507>
    1527:	2e2e                	jal	1c51 <.Ldebug_line0+0x47b>
    1529:	0000                	unimp
    152b:	6c65                	bltz	s0,1623 <.Ldebug_line0+0x1d4>
    152d:	3666                	jal	1065 <.Ldebug_line0+0x1d4>
    152f:	2e34                	srai	t3,t3,0xd
    1531:	0068                	0x68
    1533:	0001                	0x1
    1535:	6500                	sll	a0,a0,s0
    1537:	666c                	sltu	a2,a2,a1
    1539:	3436                	jal	f65 <.Ldebug_line0+0xd4>
    153b:	632e                	bnez	a4,1565 <.Ldebug_line0+0x116>
    153d:	0100                	li	sp,0
    153f:	0000                	unimp
    1541:	2e2e                	jal	1c6b <.Ldebug_line0+0x495>
    1543:	6474732f          	0x6474732f
    1547:	6e69                	bltz	a2,1621 <.Ldebug_line0+0x1d2>
    1549:	2e74                	srai	t3,t3,0x1d
    154b:	0068                	0x68
    154d:	0001                	0x1
    154f:	0000                	unimp
    1551:	0500                	li	a0,0
    1553:	0002                	j	1553 <.Ldebug_line0+0x104>
    1555:	0000                	unimp
    1557:	be00                	add	a5,a2,s0
    1559:	0500                	li	a0,0
    155b:	0002                	j	155b <.Ldebug_line0+0x10c>
    155d:	0000                	unimp
    155f:	1900                	add	s2,s2,zero
    1561:	0500                	li	a0,0
    1563:	0002                	j	1563 <.Ldebug_line0+0x114>
    1565:	0000                	unimp
    1567:	1800                	add	a6,a6,zero
    1569:	0500                	li	a0,0
    156b:	0002                	j	156b <.Ldebug_line0+0x11c>
    156d:	0000                	unimp
    156f:	0400                	li	s0,0
    1571:	0302                	j	16f1 <.Ldebug_line0+0x2a2>
    1573:	00017fab          	custom1	t6,sp,zero,0
    1577:	0205                	slli	tp,tp,0x1
    1579:	0000                	unimp
    157b:	0000                	unimp
    157d:	0018                	0x18
    157f:	0205                	slli	tp,tp,0x1
    1581:	0000                	unimp
    1583:	0000                	unimp
    1585:	0018                	0x18
    1587:	0205                	slli	tp,tp,0x1
    1589:	0000                	unimp
    158b:	0000                	unimp
    158d:	0018                	0x18
    158f:	0205                	slli	tp,tp,0x1
    1591:	0000                	unimp
    1593:	0000                	unimp
    1595:	0018                	0x18
    1597:	0205                	slli	tp,tp,0x1
    1599:	0000                	unimp
    159b:	0000                	unimp
    159d:	0018                	0x18
    159f:	0205                	slli	tp,tp,0x1
    15a1:	0000                	unimp
    15a3:	0000                	unimp
    15a5:	0018                	0x18
    15a7:	0205                	slli	tp,tp,0x1
    15a9:	0000                	unimp
    15ab:	0000                	unimp
    15ad:	0019                	0x19
    15af:	0205                	slli	tp,tp,0x1
    15b1:	0000                	unimp
    15b3:	0000                	unimp
    15b5:	0018                	0x18
    15b7:	0205                	slli	tp,tp,0x1
    15b9:	0000                	unimp
    15bb:	0000                	unimp
    15bd:	0032                	j	15c9 <.Ldebug_line0+0x17a>
    15bf:	0205                	slli	tp,tp,0x1
    15c1:	0000                	unimp
    15c3:	0000                	unimp
    15c5:	0018                	0x18
    15c7:	0205                	slli	tp,tp,0x1
    15c9:	0000                	unimp
    15cb:	0000                	unimp
    15cd:	0020                	0x20
    15cf:	0205                	slli	tp,tp,0x1
    15d1:	0000                	unimp
    15d3:	0000                	unimp
    15d5:	0018                	0x18
    15d7:	0205                	slli	tp,tp,0x1
    15d9:	0000                	unimp
    15db:	0000                	unimp
    15dd:	0018                	0x18
    15df:	0205                	slli	tp,tp,0x1
    15e1:	0000                	unimp
    15e3:	0000                	unimp
    15e5:	0018                	0x18
    15e7:	0205                	slli	tp,tp,0x1
    15e9:	0000                	unimp
    15eb:	0000                	unimp
    15ed:	001e                	j	1613 <.Ldebug_line0+0x1c4>
    15ef:	0205                	slli	tp,tp,0x1
    15f1:	0000                	unimp
    15f3:	0000                	unimp
    15f5:	0018                	0x18
    15f7:	0205                	slli	tp,tp,0x1
    15f9:	0000                	unimp
    15fb:	0000                	unimp
    15fd:	0018                	0x18
    15ff:	0205                	slli	tp,tp,0x1
    1601:	0000                	unimp
    1603:	0000                	unimp
    1605:	0018                	0x18
    1607:	0205                	slli	tp,tp,0x1
    1609:	0000                	unimp
    160b:	0000                	unimp
    160d:	0205001b          	0x205001b
    1611:	0000                	unimp
    1613:	0000                	unimp
    1615:	0018                	0x18
    1617:	0205                	slli	tp,tp,0x1
    1619:	0000                	unimp
    161b:	0000                	unimp
    161d:	0018                	0x18
    161f:	0205                	slli	tp,tp,0x1
    1621:	0000                	unimp
    1623:	0000                	unimp
    1625:	0018                	0x18
    1627:	0205                	slli	tp,tp,0x1
    1629:	0000                	unimp
    162b:	0000                	unimp
    162d:	0205001b          	0x205001b
    1631:	0000                	unimp
    1633:	0000                	unimp
    1635:	0018                	0x18
    1637:	0205                	slli	tp,tp,0x1
    1639:	0000                	unimp
    163b:	0000                	unimp
    163d:	0018                	0x18
    163f:	0205                	slli	tp,tp,0x1
    1641:	0000                	unimp
    1643:	0000                	unimp
    1645:	0018                	0x18
    1647:	0205                	slli	tp,tp,0x1
    1649:	0000                	unimp
    164b:	0000                	unimp
    164d:	0019                	0x19
    164f:	0205                	slli	tp,tp,0x1
    1651:	0000                	unimp
    1653:	0000                	unimp
    1655:	0019                	0x19
    1657:	0205                	slli	tp,tp,0x1
    1659:	0000                	unimp
    165b:	0000                	unimp
    165d:	0205001b          	0x205001b
    1661:	0000                	unimp
    1663:	0000                	unimp
    1665:	0018                	0x18
    1667:	0205                	slli	tp,tp,0x1
    1669:	0000                	unimp
    166b:	0000                	unimp
    166d:	0018                	0x18
    166f:	0205                	slli	tp,tp,0x1
    1671:	0000                	unimp
    1673:	0000                	unimp
    1675:	0018                	0x18
    1677:	0205                	slli	tp,tp,0x1
    1679:	0000                	unimp
    167b:	0000                	unimp
    167d:	0018                	0x18
    167f:	0205                	slli	tp,tp,0x1
    1681:	0000                	unimp
    1683:	0000                	unimp
    1685:	0019                	0x19
    1687:	0205                	slli	tp,tp,0x1
    1689:	0000                	unimp
    168b:	0000                	unimp
    168d:	0019                	0x19
    168f:	0205                	slli	tp,tp,0x1
    1691:	0000                	unimp
    1693:	0000                	unimp
    1695:	0205001b          	0x205001b
    1699:	0000                	unimp
    169b:	0000                	unimp
    169d:	0018                	0x18
    169f:	0205                	slli	tp,tp,0x1
    16a1:	0000                	unimp
    16a3:	0000                	unimp
    16a5:	0018                	0x18
    16a7:	0205                	slli	tp,tp,0x1
    16a9:	0000                	unimp
    16ab:	0000                	unimp
    16ad:	0018                	0x18
    16af:	0205                	slli	tp,tp,0x1
    16b1:	0000                	unimp
    16b3:	0000                	unimp
    16b5:	0205001b          	0x205001b
    16b9:	0000                	unimp
    16bb:	0000                	unimp
    16bd:	0018                	0x18
    16bf:	0205                	slli	tp,tp,0x1
    16c1:	0000                	unimp
    16c3:	0000                	unimp
    16c5:	0018                	0x18
    16c7:	0205                	slli	tp,tp,0x1
    16c9:	0000                	unimp
    16cb:	0000                	unimp
    16cd:	0018                	0x18
    16cf:	0205                	slli	tp,tp,0x1
    16d1:	0000                	unimp
    16d3:	0000                	unimp
    16d5:	0205001b          	0x205001b
    16d9:	0000                	unimp
    16db:	0000                	unimp
    16dd:	0018                	0x18
    16df:	0205                	slli	tp,tp,0x1
    16e1:	0000                	unimp
    16e3:	0000                	unimp
    16e5:	0018                	0x18
    16e7:	0205                	slli	tp,tp,0x1
    16e9:	0000                	unimp
    16eb:	0000                	unimp
    16ed:	0018                	0x18
    16ef:	0205                	slli	tp,tp,0x1
    16f1:	0000                	unimp
    16f3:	0000                	unimp
    16f5:	0205001b          	0x205001b
    16f9:	0000                	unimp
    16fb:	0000                	unimp
    16fd:	0018                	0x18
    16ff:	0205                	slli	tp,tp,0x1
    1701:	0000                	unimp
    1703:	0000                	unimp
    1705:	0019                	0x19
    1707:	0205                	slli	tp,tp,0x1
    1709:	0000                	unimp
    170b:	0000                	unimp
    170d:	0018                	0x18
    170f:	0205                	slli	tp,tp,0x1
    1711:	0000                	unimp
    1713:	0000                	unimp
    1715:	0018                	0x18
    1717:	0205                	slli	tp,tp,0x1
    1719:	0000                	unimp
    171b:	0000                	unimp
    171d:	0200                	li	tp,0
    171f:	0204                	mv	tp,ra
    1721:	0015                	0x15
    1723:	0205                	slli	tp,tp,0x1
    1725:	0000                	unimp
    1727:	0000                	unimp
    1729:	0200                	li	tp,0
    172b:	0104                	mv	sp,ra
    172d:	0106                	j	17cd <.Ldebug_line0+0x37e>
    172f:	0500                	li	a0,0
    1731:	0002                	j	1731 <.Ldebug_line0+0x2e2>
    1733:	0000                	unimp
    1735:	0000                	unimp
    1737:	0402                	j	1937 <.Ldebug_line0+0x161>
    1739:	0600                	li	a2,0
    173b:	001c                	0x1c
    173d:	0205                	slli	tp,tp,0x1
    173f:	0000                	unimp
    1741:	0000                	unimp
    1743:	0018                	0x18
    1745:	0205                	slli	tp,tp,0x1
    1747:	0000                	unimp
    1749:	0000                	unimp
    174b:	0205001b          	0x205001b
    174f:	0000                	unimp
    1751:	0000                	unimp
    1753:	0018                	0x18
    1755:	0205                	slli	tp,tp,0x1
    1757:	0000                	unimp
    1759:	0000                	unimp
    175b:	0018                	0x18
    175d:	0205                	slli	tp,tp,0x1
    175f:	0000                	unimp
    1761:	0000                	unimp
    1763:	0205001b          	0x205001b
    1767:	0000                	unimp
    1769:	0000                	unimp
    176b:	0018                	0x18
    176d:	0205                	slli	tp,tp,0x1
    176f:	0000                	unimp
    1771:	0000                	unimp
    1773:	0018                	0x18
    1775:	0205                	slli	tp,tp,0x1
    1777:	0000                	unimp
    1779:	0000                	unimp
    177b:	001d                	0x1d
    177d:	0205                	slli	tp,tp,0x1
    177f:	0000                	unimp
    1781:	0000                	unimp
    1783:	001a                	j	1789 <.Ldebug_line0+0x33a>
    1785:	0205                	slli	tp,tp,0x1
    1787:	0000                	unimp
    1789:	0000                	unimp
    178b:	0018                	0x18
    178d:	0205                	slli	tp,tp,0x1
    178f:	0000                	unimp
    1791:	0000                	unimp
    1793:	0018                	0x18
    1795:	0205                	slli	tp,tp,0x1
    1797:	0000                	unimp
    1799:	0000                	unimp
    179b:	0018                	0x18
    179d:	0205                	slli	tp,tp,0x1
    179f:	0000                	unimp
    17a1:	0000                	unimp
    17a3:	0018                	0x18
    17a5:	0205                	slli	tp,tp,0x1
    17a7:	0000                	unimp
    17a9:	0000                	unimp
    17ab:	0018                	0x18
    17ad:	0205                	slli	tp,tp,0x1
    17af:	0000                	unimp
    17b1:	0000                	unimp
    17b3:	0018                	0x18
    17b5:	0205                	slli	tp,tp,0x1
    17b7:	0000                	unimp
    17b9:	0000                	unimp
    17bb:	0205001b          	0x205001b
    17bf:	0000                	unimp
    17c1:	0000                	unimp
    17c3:	0018                	0x18
    17c5:	0205                	slli	tp,tp,0x1
    17c7:	0000                	unimp
    17c9:	0000                	unimp
    17cb:	0018                	0x18
    17cd:	0205                	slli	tp,tp,0x1
    17cf:	0000                	unimp
    17d1:	0000                	unimp
    17d3:	0100                	li	sp,0
    17d5:	6101                	bltz	a0,17d5 <.Ldebug_line0+0x386>

000017d6 <.Ldebug_line0>:
    17d6:	0b61                	slli	s6,s6,0x18
    17d8:	0000                	unimp
    17da:	0004                	0x4
    17dc:	0101                	slli	sp,sp,0x0
    17de:	0000                	unimp
    17e0:	0101                	slli	sp,sp,0x0
    17e2:	f601                	bgez	a2,1722 <.Ldebug_line0+0x2d3>
    17e4:	0df2                	j	1ec0 <.Ldebug_line0+0x6ea>
    17e6:	0100                	li	sp,0
    17e8:	0101                	slli	sp,sp,0x0
    17ea:	0001                	0x1
    17ec:	0000                	unimp
    17ee:	0001                	0x1
    17f0:	0100                	li	sp,0
    17f2:	6d6f682f          	0x6d6f682f
    17f6:	2f65                	srli	t5,t5,0x19
    17f8:	6568                	sltu	a0,a0,a0
    17fa:	6d616873          	csrrs	a6,0x6d6,2
    17fe:	6f72502f          	0x6f72502f
    1802:	656a                	bnez	a0,185c <.Ldebug_line0+0x86>
    1804:	2f737463          	bleu	s7,t1,1aec <.Ldebug_line0+0x316>
    1808:	344c6573          	csrrs	a0,mip,24
    180c:	4c65732f          	0x4c65732f
    1810:	7234                	0x7234
    1812:	7369                	bltz	a4,172c <.Ldebug_line0+0x2dd>
    1814:	6d2d7663          	bleu	s2,s10,1ee0 <.Ldebug_line0+0x70a>
    1818:	6c75                	bltz	s0,1914 <.Ldebug_line0+0x13e>
    181a:	6974                	0x6974
    181c:	6e72656b          	0x6e72656b
    1820:	6c65                	bltz	s0,1918 <.Ldebug_line0+0x142>
    1822:	6f6f742f          	0x6f6f742f
    1826:	736c                	0x736c
    1828:	6d6f632f          	0x6d6f632f
    182c:	6f6d                	bltz	a4,1926 <.Ldebug_line0+0x150>
    182e:	2f6e                	jal	1fe8 <.Ldebug_line0+0x812>
    1830:	2e2e                	jal	1f5a <.Ldebug_line0+0x784>
    1832:	666c652f          	0x666c652f
    1836:	6f6c                	sltu	a1,a4,a1
    1838:	6461                	bltz	s0,1890 <.Ldebug_line0+0xba>
    183a:	7265                	bltz	a2,1772 <.Ldebug_line0+0x323>
    183c:	6372732f          	0x6372732f
    1840:	6372612f          	0x6372612f
    1844:	2d68                	srai	s10,s10,0x1a
    1846:	6972                	bnez	a0,18e2 <.Ldebug_line0+0x10c>
    1848:	2f766373          	csrrs	t1,0x2f7,12
    184c:	6c65                	bltz	s0,1944 <.Ldebug_line0+0x16e>
    184e:	0066                	j	1886 <.Ldebug_line0+0xb0>
    1850:	6d6f682f          	0x6d6f682f
    1854:	2f65                	srli	t5,t5,0x19
    1856:	6568                	sltu	a0,a0,a0
    1858:	6d616873          	csrrs	a6,0x6d6,2
    185c:	6f72502f          	0x6f72502f
    1860:	656a                	bnez	a0,18ba <.Ldebug_line0+0xe4>
    1862:	2f737463          	bleu	s7,t1,1b4a <.Ldebug_line0+0x374>
    1866:	344c6573          	csrrs	a0,mip,24
    186a:	4c65732f          	0x4c65732f
    186e:	7234                	0x7234
    1870:	7369                	bltz	a4,178a <.Ldebug_line0+0x33b>
    1872:	6d2d7663          	bleu	s2,s10,1f3e <.Ldebug_line0+0x768>
    1876:	6c75                	bltz	s0,1972 <.Ldebug_line0+0x19c>
    1878:	6974                	0x6974
    187a:	6e72656b          	0x6e72656b
    187e:	6c65                	bltz	s0,1976 <.Ldebug_line0+0x1a0>
    1880:	6f6f742f          	0x6f6f742f
    1884:	736c                	0x736c
    1886:	6d6f632f          	0x6d6f632f
    188a:	6f6d                	bltz	a4,1984 <.Ldebug_line0+0x1ae>
    188c:	2f6e                	jal	2046 <.Ldebug_line0+0x870>
    188e:	2e2e                	jal	1fb8 <.Ldebug_line0+0x7e2>
    1890:	666c652f          	0x666c652f
    1894:	6f6c                	sltu	a1,a4,a1
    1896:	6461                	bltz	s0,18ee <.Ldebug_line0+0x118>
    1898:	7265                	bltz	a2,17d0 <.Ldebug_line0+0x381>
    189a:	6372732f          	0x6372732f
    189e:	6372612f          	0x6372612f
    18a2:	2d68                	srai	s10,s10,0x1a
    18a4:	6972                	bnez	a0,1940 <.Ldebug_line0+0x16a>
    18a6:	2f766373          	csrrs	t1,0x2f7,12
    18aa:	6c65                	bltz	s0,19a2 <.Ldebug_line0+0x1cc>
    18ac:	2f66                	jal	2064 <.Ldebug_line0+0x88e>
    18ae:	2e2e                	jal	1fd8 <.Ldebug_line0+0x802>
    18b0:	0000                	unimp
    18b2:	6c65                	bltz	s0,19aa <.Ldebug_line0+0x1d4>
    18b4:	3366                	jal	126c <.Ldebug_line0+0x19c>
    18b6:	2e32                	jal	1fc2 <.Ldebug_line0+0x7ec>
    18b8:	0068                	0x68
    18ba:	0001                	0x1
    18bc:	6500                	sll	a0,a0,s0
    18be:	666c                	sltu	a2,a2,a1
    18c0:	3436                	jal	12ec <.Ldebug_line0+0x21c>
    18c2:	682e                	bnez	s0,196c <.Ldebug_line0+0x196>
    18c4:	0100                	li	sp,0
    18c6:	0000                	unimp
    18c8:	6c65                	bltz	s0,19c0 <.Ldebug_line0+0x1ea>
    18ca:	2e66                	jal	2002 <.Ldebug_line0+0x82c>
    18cc:	00010063          	beqz	sp,18cc <.Ldebug_line0+0xf6>
    18d0:	2e00                	srai	t3,t3,0x0
    18d2:	2f2e                	jal	207c <.Ldebug_line0+0x8a6>
    18d4:	69647473          	csrrc	s0,0x696,8
    18d8:	746e                	bnez	s0,1852 <.Ldebug_line0+0x7c>
    18da:	682e                	bnez	s0,1984 <.Ldebug_line0+0x1ae>
    18dc:	0100                	li	sp,0
    18de:	0000                	unimp
    18e0:	0000                	unimp
    18e2:	0205                	slli	tp,tp,0x1
    18e4:	0000                	unimp
    18e6:	0000                	unimp
    18e8:	020500b3          	mul	ra,a0,zero
    18ec:	0000                	unimp
    18ee:	0000                	unimp
    18f0:	0019                	0x19
    18f2:	0205                	slli	tp,tp,0x1
    18f4:	0000                	unimp
    18f6:	0000                	unimp
    18f8:	0018                	0x18
    18fa:	0205                	slli	tp,tp,0x1
    18fc:	0000                	unimp
    18fe:	0000                	unimp
    1900:	001c                	0x1c
    1902:	0205                	slli	tp,tp,0x1
    1904:	0000                	unimp
    1906:	0000                	unimp
    1908:	0018                	0x18
    190a:	0205                	slli	tp,tp,0x1
    190c:	0000                	unimp
    190e:	0000                	unimp
    1910:	0018                	0x18
    1912:	0205                	slli	tp,tp,0x1
    1914:	0000                	unimp
    1916:	0000                	unimp
    1918:	0205001b          	0x205001b
    191c:	0000                	unimp
    191e:	0000                	unimp
    1920:	0018                	0x18
    1922:	0205                	slli	tp,tp,0x1
    1924:	0000                	unimp
    1926:	0000                	unimp
    1928:	0018                	0x18
    192a:	0205                	slli	tp,tp,0x1
    192c:	0000                	unimp
    192e:	0000                	unimp
    1930:	0028                	0x28
    1932:	0205                	slli	tp,tp,0x1
    1934:	0000                	unimp
    1936:	0000                	unimp
    1938:	0019                	0x19
    193a:	0205                	slli	tp,tp,0x1
    193c:	0000                	unimp
    193e:	0000                	unimp
    1940:	0018                	0x18
    1942:	0205                	slli	tp,tp,0x1
    1944:	0000                	unimp
    1946:	0000                	unimp
    1948:	001c                	0x1c
    194a:	0205                	slli	tp,tp,0x1
    194c:	0000                	unimp
    194e:	0000                	unimp
    1950:	0018                	0x18
    1952:	0205                	slli	tp,tp,0x1
    1954:	0000                	unimp
    1956:	0000                	unimp
    1958:	0018                	0x18
    195a:	0205                	slli	tp,tp,0x1
    195c:	0000                	unimp
    195e:	0000                	unimp
    1960:	0205001b          	0x205001b
    1964:	0000                	unimp
    1966:	0000                	unimp
    1968:	0018                	0x18
    196a:	0205                	slli	tp,tp,0x1
    196c:	0000                	unimp
    196e:	0000                	unimp
    1970:	0018                	0x18
    1972:	0205                	slli	tp,tp,0x1
    1974:	0000                	unimp
    1976:	0000                	unimp
    1978:	0205001b          	0x205001b
    197c:	0000                	unimp
    197e:	0000                	unimp
    1980:	0018                	0x18
    1982:	0205                	slli	tp,tp,0x1
    1984:	0000                	unimp
    1986:	0000                	unimp
    1988:	0018                	0x18
    198a:	0205                	slli	tp,tp,0x1
    198c:	0000                	unimp
    198e:	0000                	unimp
    1990:	0205001b          	0x205001b
    1994:	0000                	unimp
    1996:	0000                	unimp
    1998:	0018                	0x18
    199a:	0205                	slli	tp,tp,0x1
    199c:	0000                	unimp
    199e:	0000                	unimp
    19a0:	0018                	0x18
    19a2:	0205                	slli	tp,tp,0x1
    19a4:	0000                	unimp
    19a6:	0000                	unimp
    19a8:	0205001b          	0x205001b
    19ac:	0000                	unimp
    19ae:	0000                	unimp
    19b0:	0018                	0x18
    19b2:	0205                	slli	tp,tp,0x1
    19b4:	0000                	unimp
    19b6:	0000                	unimp
    19b8:	0018                	0x18
    19ba:	0205                	slli	tp,tp,0x1
    19bc:	0000                	unimp
    19be:	0000                	unimp
    19c0:	0205001b          	0x205001b
    19c4:	0000                	unimp
    19c6:	0000                	unimp
    19c8:	0018                	0x18
    19ca:	0205                	slli	tp,tp,0x1
    19cc:	0000                	unimp
    19ce:	0000                	unimp
    19d0:	0018                	0x18
    19d2:	0205                	slli	tp,tp,0x1
    19d4:	0000                	unimp
    19d6:	0000                	unimp
    19d8:	0205001b          	0x205001b
    19dc:	0000                	unimp
    19de:	0000                	unimp
    19e0:	0018                	0x18
    19e2:	0205                	slli	tp,tp,0x1
    19e4:	0000                	unimp
    19e6:	0000                	unimp
    19e8:	0018                	0x18
    19ea:	0205                	slli	tp,tp,0x1
    19ec:	0000                	unimp
    19ee:	0000                	unimp
    19f0:	0204                	mv	tp,ra
    19f2:	017fbc03          	0x17fbc03
    19f6:	0500                	li	a0,0
    19f8:	0002                	j	19f8 <.Ldebug_line0+0x222>
    19fa:	0000                	unimp
    19fc:	1900                	add	s2,s2,zero
    19fe:	0500                	li	a0,0
    1a00:	0002                	j	1a00 <.Ldebug_line0+0x22a>
    1a02:	0000                	unimp
    1a04:	1800                	add	a6,a6,zero
    1a06:	0500                	li	a0,0
    1a08:	0002                	j	1a08 <.Ldebug_line0+0x232>
    1a0a:	0000                	unimp
    1a0c:	1c00                	add	s8,s8,zero
    1a0e:	0500                	li	a0,0
    1a10:	0002                	j	1a10 <.Ldebug_line0+0x23a>
    1a12:	0000                	unimp
    1a14:	1800                	add	a6,a6,zero
    1a16:	0500                	li	a0,0
    1a18:	0002                	j	1a18 <.Ldebug_line0+0x242>
    1a1a:	0000                	unimp
    1a1c:	1800                	add	a6,a6,zero
    1a1e:	0500                	li	a0,0
    1a20:	0002                	j	1a20 <.Ldebug_line0+0x24a>
    1a22:	0000                	unimp
    1a24:	1b00                	add	s6,s6,zero
    1a26:	0500                	li	a0,0
    1a28:	0002                	j	1a28 <.Ldebug_line0+0x252>
    1a2a:	0000                	unimp
    1a2c:	1800                	add	a6,a6,zero
    1a2e:	0500                	li	a0,0
    1a30:	0002                	j	1a30 <.Ldebug_line0+0x25a>
    1a32:	0000                	unimp
    1a34:	1800                	add	a6,a6,zero
    1a36:	0500                	li	a0,0
    1a38:	0002                	j	1a38 <.Ldebug_line0+0x262>
    1a3a:	0000                	unimp
    1a3c:	2a00                	srai	s4,s4,0x0
    1a3e:	0500                	li	a0,0
    1a40:	0002                	j	1a40 <.Ldebug_line0+0x26a>
    1a42:	0000                	unimp
    1a44:	1900                	add	s2,s2,zero
    1a46:	0500                	li	a0,0
    1a48:	0002                	j	1a48 <.Ldebug_line0+0x272>
    1a4a:	0000                	unimp
    1a4c:	1800                	add	a6,a6,zero
    1a4e:	0500                	li	a0,0
    1a50:	0002                	j	1a50 <.Ldebug_line0+0x27a>
    1a52:	0000                	unimp
    1a54:	1c00                	add	s8,s8,zero
    1a56:	0500                	li	a0,0
    1a58:	0002                	j	1a58 <.Ldebug_line0+0x282>
    1a5a:	0000                	unimp
    1a5c:	1800                	add	a6,a6,zero
    1a5e:	0500                	li	a0,0
    1a60:	0002                	j	1a60 <.Ldebug_line0+0x28a>
    1a62:	0000                	unimp
    1a64:	1800                	add	a6,a6,zero
    1a66:	0500                	li	a0,0
    1a68:	0002                	j	1a68 <.Ldebug_line0+0x292>
    1a6a:	0000                	unimp
    1a6c:	1b00                	add	s6,s6,zero
    1a6e:	0500                	li	a0,0
    1a70:	0002                	j	1a70 <.Ldebug_line0+0x29a>
    1a72:	0000                	unimp
    1a74:	1800                	add	a6,a6,zero
    1a76:	0500                	li	a0,0
    1a78:	0002                	j	1a78 <.Ldebug_line0+0x2a2>
    1a7a:	0000                	unimp
    1a7c:	1800                	add	a6,a6,zero
    1a7e:	0500                	li	a0,0
    1a80:	0002                	j	1a80 <.Ldebug_line0+0x2aa>
    1a82:	0000                	unimp
    1a84:	1b00                	add	s6,s6,zero
    1a86:	0500                	li	a0,0
    1a88:	0002                	j	1a88 <.Ldebug_line0+0x2b2>
    1a8a:	0000                	unimp
    1a8c:	1800                	add	a6,a6,zero
    1a8e:	0500                	li	a0,0
    1a90:	0002                	j	1a90 <.Ldebug_line0+0x2ba>
    1a92:	0000                	unimp
    1a94:	1800                	add	a6,a6,zero
    1a96:	0500                	li	a0,0
    1a98:	0002                	j	1a98 <.Ldebug_line0+0x2c2>
    1a9a:	0000                	unimp
    1a9c:	1b00                	add	s6,s6,zero
    1a9e:	0500                	li	a0,0
    1aa0:	0002                	j	1aa0 <.Ldebug_line0+0x2ca>
    1aa2:	0000                	unimp
    1aa4:	1800                	add	a6,a6,zero
    1aa6:	0500                	li	a0,0
    1aa8:	0002                	j	1aa8 <.Ldebug_line0+0x2d2>
    1aaa:	0000                	unimp
    1aac:	1800                	add	a6,a6,zero
    1aae:	0500                	li	a0,0
    1ab0:	0002                	j	1ab0 <.Ldebug_line0+0x2da>
    1ab2:	0000                	unimp
    1ab4:	1b00                	add	s6,s6,zero
    1ab6:	0500                	li	a0,0
    1ab8:	0002                	j	1ab8 <.Ldebug_line0+0x2e2>
    1aba:	0000                	unimp
    1abc:	1800                	add	a6,a6,zero
    1abe:	0500                	li	a0,0
    1ac0:	0002                	j	1ac0 <.Ldebug_line0+0x2ea>
    1ac2:	0000                	unimp
    1ac4:	1800                	add	a6,a6,zero
    1ac6:	0500                	li	a0,0
    1ac8:	0002                	j	1ac8 <.Ldebug_line0+0x2f2>
    1aca:	0000                	unimp
    1acc:	1b00                	add	s6,s6,zero
    1ace:	0500                	li	a0,0
    1ad0:	0002                	j	1ad0 <.Ldebug_line0+0x2fa>
    1ad2:	0000                	unimp
    1ad4:	1800                	add	a6,a6,zero
    1ad6:	0500                	li	a0,0
    1ad8:	0002                	j	1ad8 <.Ldebug_line0+0x302>
    1ada:	0000                	unimp
    1adc:	1800                	add	a6,a6,zero
    1ade:	0500                	li	a0,0
    1ae0:	0002                	j	1ae0 <.Ldebug_line0+0x30a>
    1ae2:	0000                	unimp
    1ae4:	1b00                	add	s6,s6,zero
    1ae6:	0500                	li	a0,0
    1ae8:	0002                	j	1ae8 <.Ldebug_line0+0x312>
    1aea:	0000                	unimp
    1aec:	1800                	add	a6,a6,zero
    1aee:	0500                	li	a0,0
    1af0:	0002                	j	1af0 <.Ldebug_line0+0x31a>
    1af2:	0000                	unimp
    1af4:	1800                	add	a6,a6,zero
    1af6:	0500                	li	a0,0
    1af8:	0002                	j	1af8 <.Ldebug_line0+0x322>
    1afa:	0000                	unimp
    1afc:	0400                	li	s0,0
    1afe:	7ee50303          	lb	t1,2030(a0) # 31001258 <.L0 +0x30fecfa8>
    1b02:	0001                	0x1
    1b04:	0205                	slli	tp,tp,0x1
    1b06:	0000                	unimp
    1b08:	0000                	unimp
    1b0a:	0018                	0x18
    1b0c:	0205                	slli	tp,tp,0x1
    1b0e:	0000                	unimp
    1b10:	0000                	unimp
    1b12:	0019                	0x19
    1b14:	0205                	slli	tp,tp,0x1
    1b16:	0000                	unimp
    1b18:	0000                	unimp
    1b1a:	0200                	li	tp,0
    1b1c:	0104                	mv	sp,ra
    1b1e:	0106                	j	1bbe <.Ldebug_line0+0x3e8>
    1b20:	0500                	li	a0,0
    1b22:	0002                	j	1b22 <.Ldebug_line0+0x34c>
    1b24:	0000                	unimp
    1b26:	0600                	li	a2,0
    1b28:	0015                	0x15
    1b2a:	0205                	slli	tp,tp,0x1
    1b2c:	0000                	unimp
    1b2e:	0000                	unimp
    1b30:	0200                	li	tp,0
    1b32:	0204                	mv	tp,ra
    1b34:	0019                	0x19
    1b36:	0205                	slli	tp,tp,0x1
    1b38:	0000                	unimp
    1b3a:	0000                	unimp
    1b3c:	0200                	li	tp,0
    1b3e:	0104                	mv	sp,ra
    1b40:	0018                	0x18
    1b42:	0205                	slli	tp,tp,0x1
    1b44:	0000                	unimp
    1b46:	0000                	unimp
    1b48:	0200                	li	tp,0
    1b4a:	0004                	0x4
    1b4c:	001c                	0x1c
    1b4e:	0205                	slli	tp,tp,0x1
    1b50:	0000                	unimp
    1b52:	0000                	unimp
    1b54:	0018                	0x18
    1b56:	0205                	slli	tp,tp,0x1
    1b58:	0000                	unimp
    1b5a:	0000                	unimp
    1b5c:	0200                	li	tp,0
    1b5e:	0104                	mv	sp,ra
    1b60:	0106                	j	1c00 <.Ldebug_line0+0x42a>
    1b62:	0500                	li	a0,0
    1b64:	0002                	j	1b64 <.Ldebug_line0+0x38e>
    1b66:	0000                	unimp
    1b68:	0000                	unimp
    1b6a:	0402                	j	1d6a <.Ldebug_line0+0x594>
    1b6c:	0102                	j	1bec <.Ldebug_line0+0x416>
    1b6e:	0500                	li	a0,0
    1b70:	0002                	j	1b70 <.Ldebug_line0+0x39a>
    1b72:	0000                	unimp
    1b74:	0000                	unimp
    1b76:	0402                	j	1d76 <.Ldebug_line0+0x5a0>
    1b78:	0604                	mv	a2,ra
    1b7a:	001a                	j	1b80 <.Ldebug_line0+0x3aa>
    1b7c:	0205                	slli	tp,tp,0x1
    1b7e:	0000                	unimp
    1b80:	0000                	unimp
    1b82:	0200                	li	tp,0
    1b84:	0004                	0x4
    1b86:	0205001b          	0x205001b
    1b8a:	0000                	unimp
    1b8c:	0000                	unimp
    1b8e:	0018                	0x18
    1b90:	0205                	slli	tp,tp,0x1
    1b92:	0000                	unimp
    1b94:	0000                	unimp
    1b96:	0019                	0x19
    1b98:	0205                	slli	tp,tp,0x1
    1b9a:	0000                	unimp
    1b9c:	0000                	unimp
    1b9e:	0200                	li	tp,0
    1ba0:	0104                	mv	sp,ra
    1ba2:	0106                	j	1c42 <.Ldebug_line0+0x46c>
    1ba4:	0500                	li	a0,0
    1ba6:	0002                	j	1ba6 <.Ldebug_line0+0x3d0>
    1ba8:	0000                	unimp
    1baa:	0600                	li	a2,0
    1bac:	0015                	0x15
    1bae:	0205                	slli	tp,tp,0x1
    1bb0:	0000                	unimp
    1bb2:	0000                	unimp
    1bb4:	0200                	li	tp,0
    1bb6:	0204                	mv	tp,ra
    1bb8:	0019                	0x19
    1bba:	0205                	slli	tp,tp,0x1
    1bbc:	0000                	unimp
    1bbe:	0000                	unimp
    1bc0:	0200                	li	tp,0
    1bc2:	0104                	mv	sp,ra
    1bc4:	0018                	0x18
    1bc6:	0205                	slli	tp,tp,0x1
    1bc8:	0000                	unimp
    1bca:	0000                	unimp
    1bcc:	0200                	li	tp,0
    1bce:	0004                	0x4
    1bd0:	0205001b          	0x205001b
    1bd4:	0000                	unimp
    1bd6:	0000                	unimp
    1bd8:	0018                	0x18
    1bda:	0205                	slli	tp,tp,0x1
    1bdc:	0000                	unimp
    1bde:	0000                	unimp
    1be0:	0019                	0x19
    1be2:	0205                	slli	tp,tp,0x1
    1be4:	0000                	unimp
    1be6:	0000                	unimp
    1be8:	0200                	li	tp,0
    1bea:	0104                	mv	sp,ra
    1bec:	0106                	j	1c8c <.Ldebug_line0+0x4b6>
    1bee:	0500                	li	a0,0
    1bf0:	0002                	j	1bf0 <.Ldebug_line0+0x41a>
    1bf2:	0000                	unimp
    1bf4:	0600                	li	a2,0
    1bf6:	0015                	0x15
    1bf8:	0205                	slli	tp,tp,0x1
    1bfa:	0000                	unimp
    1bfc:	0000                	unimp
    1bfe:	0200                	li	tp,0
    1c00:	0204                	mv	tp,ra
    1c02:	0019                	0x19
    1c04:	0205                	slli	tp,tp,0x1
    1c06:	0000                	unimp
    1c08:	0000                	unimp
    1c0a:	0200                	li	tp,0
    1c0c:	0104                	mv	sp,ra
    1c0e:	0018                	0x18
    1c10:	0205                	slli	tp,tp,0x1
    1c12:	0000                	unimp
    1c14:	0000                	unimp
    1c16:	0200                	li	tp,0
    1c18:	0004                	0x4
    1c1a:	0205001b          	0x205001b
    1c1e:	0000                	unimp
    1c20:	0000                	unimp
    1c22:	0018                	0x18
    1c24:	0205                	slli	tp,tp,0x1
    1c26:	0000                	unimp
    1c28:	0000                	unimp
    1c2a:	0019                	0x19
    1c2c:	0205                	slli	tp,tp,0x1
    1c2e:	0000                	unimp
    1c30:	0000                	unimp
    1c32:	0200                	li	tp,0
    1c34:	0104                	mv	sp,ra
    1c36:	0016                	j	1c5a <.Ldebug_line0+0x484>
    1c38:	0205                	slli	tp,tp,0x1
    1c3a:	0000                	unimp
    1c3c:	0000                	unimp
    1c3e:	0018                	0x18
    1c40:	0205                	slli	tp,tp,0x1
    1c42:	0000                	unimp
    1c44:	0000                	unimp
    1c46:	0015                	0x15
    1c48:	0205                	slli	tp,tp,0x1
    1c4a:	0000                	unimp
    1c4c:	0000                	unimp
    1c4e:	0200                	li	tp,0
    1c50:	0204                	mv	tp,ra
    1c52:	0019                	0x19
    1c54:	0205                	slli	tp,tp,0x1
    1c56:	0000                	unimp
    1c58:	0000                	unimp
    1c5a:	0200                	li	tp,0
    1c5c:	0104                	mv	sp,ra
    1c5e:	0015                	0x15
    1c60:	0205                	slli	tp,tp,0x1
    1c62:	0000                	unimp
    1c64:	0000                	unimp
    1c66:	001a                	j	1c6c <.Ldebug_line0+0x496>
    1c68:	0205                	slli	tp,tp,0x1
    1c6a:	0000                	unimp
    1c6c:	0000                	unimp
    1c6e:	0200                	li	tp,0
    1c70:	0004                	0x4
    1c72:	0205001b          	0x205001b
    1c76:	0000                	unimp
    1c78:	0000                	unimp
    1c7a:	0018                	0x18
    1c7c:	0205                	slli	tp,tp,0x1
    1c7e:	0000                	unimp
    1c80:	0000                	unimp
    1c82:	0019                	0x19
    1c84:	0205                	slli	tp,tp,0x1
    1c86:	0000                	unimp
    1c88:	0000                	unimp
    1c8a:	0200                	li	tp,0
    1c8c:	0104                	mv	sp,ra
    1c8e:	0016                	j	1cb2 <.Ldebug_line0+0x4dc>
    1c90:	0205                	slli	tp,tp,0x1
    1c92:	0000                	unimp
    1c94:	0000                	unimp
    1c96:	0018                	0x18
    1c98:	0205                	slli	tp,tp,0x1
    1c9a:	0000                	unimp
    1c9c:	0000                	unimp
    1c9e:	0015                	0x15
    1ca0:	0205                	slli	tp,tp,0x1
    1ca2:	0000                	unimp
    1ca4:	0000                	unimp
    1ca6:	0200                	li	tp,0
    1ca8:	0204                	mv	tp,ra
    1caa:	0019                	0x19
    1cac:	0205                	slli	tp,tp,0x1
    1cae:	0000                	unimp
    1cb0:	0000                	unimp
    1cb2:	0200                	li	tp,0
    1cb4:	0104                	mv	sp,ra
    1cb6:	0015                	0x15
    1cb8:	0205                	slli	tp,tp,0x1
    1cba:	0000                	unimp
    1cbc:	0000                	unimp
    1cbe:	001a                	j	1cc4 <.Ldebug_line0+0x4ee>
    1cc0:	0205                	slli	tp,tp,0x1
    1cc2:	0000                	unimp
    1cc4:	0000                	unimp
    1cc6:	0200                	li	tp,0
    1cc8:	0004                	0x4
    1cca:	0205001b          	0x205001b
    1cce:	0000                	unimp
    1cd0:	0000                	unimp
    1cd2:	0018                	0x18
    1cd4:	0205                	slli	tp,tp,0x1
    1cd6:	0000                	unimp
    1cd8:	0000                	unimp
    1cda:	0019                	0x19
    1cdc:	0205                	slli	tp,tp,0x1
    1cde:	0000                	unimp
    1ce0:	0000                	unimp
    1ce2:	0200                	li	tp,0
    1ce4:	0104                	mv	sp,ra
    1ce6:	0016                	j	1d0a <.Ldebug_line0+0x534>
    1ce8:	0205                	slli	tp,tp,0x1
    1cea:	0000                	unimp
    1cec:	0000                	unimp
    1cee:	0018                	0x18
    1cf0:	0205                	slli	tp,tp,0x1
    1cf2:	0000                	unimp
    1cf4:	0000                	unimp
    1cf6:	0015                	0x15
    1cf8:	0205                	slli	tp,tp,0x1
    1cfa:	0000                	unimp
    1cfc:	0000                	unimp
    1cfe:	0200                	li	tp,0
    1d00:	0204                	mv	tp,ra
    1d02:	0019                	0x19
    1d04:	0205                	slli	tp,tp,0x1
    1d06:	0000                	unimp
    1d08:	0000                	unimp
    1d0a:	0200                	li	tp,0
    1d0c:	0104                	mv	sp,ra
    1d0e:	0015                	0x15
    1d10:	0205                	slli	tp,tp,0x1
    1d12:	0000                	unimp
    1d14:	0000                	unimp
    1d16:	001a                	j	1d1c <.Ldebug_line0+0x546>
    1d18:	0205                	slli	tp,tp,0x1
    1d1a:	0000                	unimp
    1d1c:	0000                	unimp
    1d1e:	0200                	li	tp,0
    1d20:	0004                	0x4
    1d22:	0205001b          	0x205001b
    1d26:	0000                	unimp
    1d28:	0000                	unimp
    1d2a:	0018                	0x18
    1d2c:	0205                	slli	tp,tp,0x1
    1d2e:	0000                	unimp
    1d30:	0000                	unimp
    1d32:	0019                	0x19
    1d34:	0205                	slli	tp,tp,0x1
    1d36:	0000                	unimp
    1d38:	0000                	unimp
    1d3a:	0200                	li	tp,0
    1d3c:	0104                	mv	sp,ra
    1d3e:	0016                	j	1d62 <.Ldebug_line0+0x58c>
    1d40:	0205                	slli	tp,tp,0x1
    1d42:	0000                	unimp
    1d44:	0000                	unimp
    1d46:	0018                	0x18
    1d48:	0205                	slli	tp,tp,0x1
    1d4a:	0000                	unimp
    1d4c:	0000                	unimp
    1d4e:	0015                	0x15
    1d50:	0205                	slli	tp,tp,0x1
    1d52:	0000                	unimp
    1d54:	0000                	unimp
    1d56:	0200                	li	tp,0
    1d58:	0204                	mv	tp,ra
    1d5a:	0019                	0x19
    1d5c:	0205                	slli	tp,tp,0x1
    1d5e:	0000                	unimp
    1d60:	0000                	unimp
    1d62:	0200                	li	tp,0
    1d64:	0104                	mv	sp,ra
    1d66:	0015                	0x15
    1d68:	0205                	slli	tp,tp,0x1
    1d6a:	0000                	unimp
    1d6c:	0000                	unimp
    1d6e:	001a                	j	1d74 <.Ldebug_line0+0x59e>
    1d70:	0205                	slli	tp,tp,0x1
    1d72:	0000                	unimp
    1d74:	0000                	unimp
    1d76:	0200                	li	tp,0
    1d78:	0004                	0x4
    1d7a:	0205001b          	0x205001b
    1d7e:	0000                	unimp
    1d80:	0000                	unimp
    1d82:	0018                	0x18
    1d84:	0205                	slli	tp,tp,0x1
    1d86:	0000                	unimp
    1d88:	0000                	unimp
    1d8a:	0019                	0x19
    1d8c:	0205                	slli	tp,tp,0x1
    1d8e:	0000                	unimp
    1d90:	0000                	unimp
    1d92:	0200                	li	tp,0
    1d94:	0104                	mv	sp,ra
    1d96:	0016                	j	1dba <.Ldebug_line0+0x5e4>
    1d98:	0205                	slli	tp,tp,0x1
    1d9a:	0000                	unimp
    1d9c:	0000                	unimp
    1d9e:	0018                	0x18
    1da0:	0205                	slli	tp,tp,0x1
    1da2:	0000                	unimp
    1da4:	0000                	unimp
    1da6:	0015                	0x15
    1da8:	0205                	slli	tp,tp,0x1
    1daa:	0000                	unimp
    1dac:	0000                	unimp
    1dae:	0200                	li	tp,0
    1db0:	0204                	mv	tp,ra
    1db2:	0019                	0x19
    1db4:	0205                	slli	tp,tp,0x1
    1db6:	0000                	unimp
    1db8:	0000                	unimp
    1dba:	0200                	li	tp,0
    1dbc:	0104                	mv	sp,ra
    1dbe:	0015                	0x15
    1dc0:	0205                	slli	tp,tp,0x1
    1dc2:	0000                	unimp
    1dc4:	0000                	unimp
    1dc6:	001a                	j	1dcc <.Ldebug_line0+0x5f6>
    1dc8:	0205                	slli	tp,tp,0x1
    1dca:	0000                	unimp
    1dcc:	0000                	unimp
    1dce:	0200                	li	tp,0
    1dd0:	0004                	0x4
    1dd2:	0205001b          	0x205001b
    1dd6:	0000                	unimp
    1dd8:	0000                	unimp
    1dda:	0018                	0x18
    1ddc:	0205                	slli	tp,tp,0x1
    1dde:	0000                	unimp
    1de0:	0000                	unimp
    1de2:	0019                	0x19
    1de4:	0205                	slli	tp,tp,0x1
    1de6:	0000                	unimp
    1de8:	0000                	unimp
    1dea:	0200                	li	tp,0
    1dec:	0104                	mv	sp,ra
    1dee:	0106                	j	1e8e <.Ldebug_line0+0x6b8>
    1df0:	0500                	li	a0,0
    1df2:	0002                	j	1df2 <.Ldebug_line0+0x61c>
    1df4:	0000                	unimp
    1df6:	0600                	li	a2,0
    1df8:	0015                	0x15
    1dfa:	0205                	slli	tp,tp,0x1
    1dfc:	0000                	unimp
    1dfe:	0000                	unimp
    1e00:	0200                	li	tp,0
    1e02:	0204                	mv	tp,ra
    1e04:	0019                	0x19
    1e06:	0205                	slli	tp,tp,0x1
    1e08:	0000                	unimp
    1e0a:	0000                	unimp
    1e0c:	0200                	li	tp,0
    1e0e:	0104                	mv	sp,ra
    1e10:	0018                	0x18
    1e12:	0205                	slli	tp,tp,0x1
    1e14:	0000                	unimp
    1e16:	0000                	unimp
    1e18:	0200                	li	tp,0
    1e1a:	0004                	0x4
    1e1c:	0205001b          	0x205001b
    1e20:	0000                	unimp
    1e22:	0000                	unimp
    1e24:	0018                	0x18
    1e26:	0205                	slli	tp,tp,0x1
    1e28:	0000                	unimp
    1e2a:	0000                	unimp
    1e2c:	0019                	0x19
    1e2e:	0205                	slli	tp,tp,0x1
    1e30:	0000                	unimp
    1e32:	0000                	unimp
    1e34:	0200                	li	tp,0
    1e36:	0104                	mv	sp,ra
    1e38:	0106                	j	1ed8 <.Ldebug_line0+0x702>
    1e3a:	0500                	li	a0,0
    1e3c:	0002                	j	1e3c <.Ldebug_line0+0x666>
    1e3e:	0000                	unimp
    1e40:	0600                	li	a2,0
    1e42:	0015                	0x15
    1e44:	0205                	slli	tp,tp,0x1
    1e46:	0000                	unimp
    1e48:	0000                	unimp
    1e4a:	0200                	li	tp,0
    1e4c:	0204                	mv	tp,ra
    1e4e:	0019                	0x19
    1e50:	0205                	slli	tp,tp,0x1
    1e52:	0000                	unimp
    1e54:	0000                	unimp
    1e56:	0200                	li	tp,0
    1e58:	0104                	mv	sp,ra
    1e5a:	0018                	0x18
    1e5c:	0205                	slli	tp,tp,0x1
    1e5e:	0000                	unimp
    1e60:	0000                	unimp
    1e62:	0200                	li	tp,0
    1e64:	0004                	0x4
    1e66:	001c                	0x1c
    1e68:	0205                	slli	tp,tp,0x1
    1e6a:	0000                	unimp
    1e6c:	0000                	unimp
    1e6e:	0018                	0x18
    1e70:	0205                	slli	tp,tp,0x1
    1e72:	0000                	unimp
    1e74:	0000                	unimp
    1e76:	0019                	0x19
    1e78:	0205                	slli	tp,tp,0x1
    1e7a:	0000                	unimp
    1e7c:	0000                	unimp
    1e7e:	0200                	li	tp,0
    1e80:	0104                	mv	sp,ra
    1e82:	0106                	j	1f22 <.Ldebug_line0+0x74c>
    1e84:	0500                	li	a0,0
    1e86:	0002                	j	1e86 <.Ldebug_line0+0x6b0>
    1e88:	0000                	unimp
    1e8a:	0600                	li	a2,0
    1e8c:	0015                	0x15
    1e8e:	0205                	slli	tp,tp,0x1
    1e90:	0000                	unimp
    1e92:	0000                	unimp
    1e94:	0200                	li	tp,0
    1e96:	0204                	mv	tp,ra
    1e98:	0019                	0x19
    1e9a:	0205                	slli	tp,tp,0x1
    1e9c:	0000                	unimp
    1e9e:	0000                	unimp
    1ea0:	0200                	li	tp,0
    1ea2:	0104                	mv	sp,ra
    1ea4:	0018                	0x18
    1ea6:	0205                	slli	tp,tp,0x1
    1ea8:	0000                	unimp
    1eaa:	0000                	unimp
    1eac:	0200                	li	tp,0
    1eae:	0004                	0x4
    1eb0:	0205001b          	0x205001b
    1eb4:	0000                	unimp
    1eb6:	0000                	unimp
    1eb8:	0018                	0x18
    1eba:	0205                	slli	tp,tp,0x1
    1ebc:	0000                	unimp
    1ebe:	0000                	unimp
    1ec0:	0019                	0x19
    1ec2:	0205                	slli	tp,tp,0x1
    1ec4:	0000                	unimp
    1ec6:	0000                	unimp
    1ec8:	0200                	li	tp,0
    1eca:	0104                	mv	sp,ra
    1ecc:	0106                	j	1f6c <.Ldebug_line0+0x796>
    1ece:	0500                	li	a0,0
    1ed0:	0002                	j	1ed0 <.Ldebug_line0+0x6fa>
    1ed2:	0000                	unimp
    1ed4:	0600                	li	a2,0
    1ed6:	0015                	0x15
    1ed8:	0205                	slli	tp,tp,0x1
    1eda:	0000                	unimp
    1edc:	0000                	unimp
    1ede:	0200                	li	tp,0
    1ee0:	0204                	mv	tp,ra
    1ee2:	0019                	0x19
    1ee4:	0205                	slli	tp,tp,0x1
    1ee6:	0000                	unimp
    1ee8:	0000                	unimp
    1eea:	0200                	li	tp,0
    1eec:	0104                	mv	sp,ra
    1eee:	0018                	0x18
    1ef0:	0205                	slli	tp,tp,0x1
    1ef2:	0000                	unimp
    1ef4:	0000                	unimp
    1ef6:	0200                	li	tp,0
    1ef8:	0004                	0x4
    1efa:	0205001b          	0x205001b
    1efe:	0000                	unimp
    1f00:	0000                	unimp
    1f02:	0018                	0x18
    1f04:	0205                	slli	tp,tp,0x1
    1f06:	0000                	unimp
    1f08:	0000                	unimp
    1f0a:	0019                	0x19
    1f0c:	0205                	slli	tp,tp,0x1
    1f0e:	0000                	unimp
    1f10:	0000                	unimp
    1f12:	0200                	li	tp,0
    1f14:	0104                	mv	sp,ra
    1f16:	0016                	j	1f3a <.Ldebug_line0+0x764>
    1f18:	0205                	slli	tp,tp,0x1
    1f1a:	0000                	unimp
    1f1c:	0000                	unimp
    1f1e:	0018                	0x18
    1f20:	0205                	slli	tp,tp,0x1
    1f22:	0000                	unimp
    1f24:	0000                	unimp
    1f26:	0015                	0x15
    1f28:	0205                	slli	tp,tp,0x1
    1f2a:	0000                	unimp
    1f2c:	0000                	unimp
    1f2e:	0200                	li	tp,0
    1f30:	0204                	mv	tp,ra
    1f32:	0019                	0x19
    1f34:	0205                	slli	tp,tp,0x1
    1f36:	0000                	unimp
    1f38:	0000                	unimp
    1f3a:	0200                	li	tp,0
    1f3c:	0104                	mv	sp,ra
    1f3e:	0018                	0x18
    1f40:	0205                	slli	tp,tp,0x1
    1f42:	0000                	unimp
    1f44:	0000                	unimp
    1f46:	0200                	li	tp,0
    1f48:	0004                	0x4
    1f4a:	0205001b          	0x205001b
    1f4e:	0000                	unimp
    1f50:	0000                	unimp
    1f52:	0018                	0x18
    1f54:	0205                	slli	tp,tp,0x1
    1f56:	0000                	unimp
    1f58:	0000                	unimp
    1f5a:	0019                	0x19
    1f5c:	0205                	slli	tp,tp,0x1
    1f5e:	0000                	unimp
    1f60:	0000                	unimp
    1f62:	0200                	li	tp,0
    1f64:	0104                	mv	sp,ra
    1f66:	0016                	j	1f8a <.Ldebug_line0+0x7b4>
    1f68:	0205                	slli	tp,tp,0x1
    1f6a:	0000                	unimp
    1f6c:	0000                	unimp
    1f6e:	0018                	0x18
    1f70:	0205                	slli	tp,tp,0x1
    1f72:	0000                	unimp
    1f74:	0000                	unimp
    1f76:	0015                	0x15
    1f78:	0205                	slli	tp,tp,0x1
    1f7a:	0000                	unimp
    1f7c:	0000                	unimp
    1f7e:	0200                	li	tp,0
    1f80:	0204                	mv	tp,ra
    1f82:	0019                	0x19
    1f84:	0205                	slli	tp,tp,0x1
    1f86:	0000                	unimp
    1f88:	0000                	unimp
    1f8a:	0200                	li	tp,0
    1f8c:	0104                	mv	sp,ra
    1f8e:	0018                	0x18
    1f90:	0205                	slli	tp,tp,0x1
    1f92:	0000                	unimp
    1f94:	0000                	unimp
    1f96:	0200                	li	tp,0
    1f98:	0004                	0x4
    1f9a:	0205001b          	0x205001b
    1f9e:	0000                	unimp
    1fa0:	0000                	unimp
    1fa2:	0018                	0x18
    1fa4:	0205                	slli	tp,tp,0x1
    1fa6:	0000                	unimp
    1fa8:	0000                	unimp
    1faa:	0019                	0x19
    1fac:	0205                	slli	tp,tp,0x1
    1fae:	0000                	unimp
    1fb0:	0000                	unimp
    1fb2:	0200                	li	tp,0
    1fb4:	0104                	mv	sp,ra
    1fb6:	0016                	j	1fda <.Ldebug_line0+0x804>
    1fb8:	0205                	slli	tp,tp,0x1
    1fba:	0000                	unimp
    1fbc:	0000                	unimp
    1fbe:	0018                	0x18
    1fc0:	0205                	slli	tp,tp,0x1
    1fc2:	0000                	unimp
    1fc4:	0000                	unimp
    1fc6:	0015                	0x15
    1fc8:	0205                	slli	tp,tp,0x1
    1fca:	0000                	unimp
    1fcc:	0000                	unimp
    1fce:	0200                	li	tp,0
    1fd0:	0204                	mv	tp,ra
    1fd2:	0019                	0x19
    1fd4:	0205                	slli	tp,tp,0x1
    1fd6:	0000                	unimp
    1fd8:	0000                	unimp
    1fda:	0200                	li	tp,0
    1fdc:	0104                	mv	sp,ra
    1fde:	0015                	0x15
    1fe0:	0205                	slli	tp,tp,0x1
    1fe2:	0000                	unimp
    1fe4:	0000                	unimp
    1fe6:	001a                	j	1fec <.Ldebug_line0+0x816>
    1fe8:	0205                	slli	tp,tp,0x1
    1fea:	0000                	unimp
    1fec:	0000                	unimp
    1fee:	0200                	li	tp,0
    1ff0:	0004                	0x4
    1ff2:	0205001b          	0x205001b
    1ff6:	0000                	unimp
    1ff8:	0000                	unimp
    1ffa:	0018                	0x18
    1ffc:	0205                	slli	tp,tp,0x1
    1ffe:	0000                	unimp
    2000:	0000                	unimp
    2002:	0019                	0x19
    2004:	0205                	slli	tp,tp,0x1
    2006:	0000                	unimp
    2008:	0000                	unimp
    200a:	0200                	li	tp,0
    200c:	0104                	mv	sp,ra
    200e:	0016                	j	2032 <.Ldebug_line0+0x85c>
    2010:	0205                	slli	tp,tp,0x1
    2012:	0000                	unimp
    2014:	0000                	unimp
    2016:	0018                	0x18
    2018:	0205                	slli	tp,tp,0x1
    201a:	0000                	unimp
    201c:	0000                	unimp
    201e:	0015                	0x15
    2020:	0205                	slli	tp,tp,0x1
    2022:	0000                	unimp
    2024:	0000                	unimp
    2026:	0200                	li	tp,0
    2028:	0204                	mv	tp,ra
    202a:	0019                	0x19
    202c:	0205                	slli	tp,tp,0x1
    202e:	0000                	unimp
    2030:	0000                	unimp
    2032:	0200                	li	tp,0
    2034:	0104                	mv	sp,ra
    2036:	0015                	0x15
    2038:	0205                	slli	tp,tp,0x1
    203a:	0000                	unimp
    203c:	0000                	unimp
    203e:	001a                	j	2044 <.Ldebug_line0+0x86e>
    2040:	0205                	slli	tp,tp,0x1
    2042:	0000                	unimp
    2044:	0000                	unimp
    2046:	0200                	li	tp,0
    2048:	0004                	0x4
    204a:	001c                	0x1c
    204c:	0205                	slli	tp,tp,0x1
    204e:	0000                	unimp
    2050:	0000                	unimp
    2052:	0018                	0x18
    2054:	0205                	slli	tp,tp,0x1
    2056:	0000                	unimp
    2058:	0000                	unimp
    205a:	0019                	0x19
    205c:	0205                	slli	tp,tp,0x1
    205e:	0000                	unimp
    2060:	0000                	unimp
    2062:	0200                	li	tp,0
    2064:	0104                	mv	sp,ra
    2066:	0106                	j	2106 <.Ldebug_line0+0x930>
    2068:	0500                	li	a0,0
    206a:	0002                	j	206a <.Ldebug_line0+0x894>
    206c:	0000                	unimp
    206e:	0600                	li	a2,0
    2070:	0015                	0x15
    2072:	0205                	slli	tp,tp,0x1
    2074:	0000                	unimp
    2076:	0000                	unimp
    2078:	0200                	li	tp,0
    207a:	0204                	mv	tp,ra
    207c:	0019                	0x19
    207e:	0205                	slli	tp,tp,0x1
    2080:	0000                	unimp
    2082:	0000                	unimp
    2084:	0200                	li	tp,0
    2086:	0104                	mv	sp,ra
    2088:	0018                	0x18
    208a:	0205                	slli	tp,tp,0x1
    208c:	0000                	unimp
    208e:	0000                	unimp
    2090:	0200                	li	tp,0
    2092:	0004                	0x4
    2094:	0205001b          	0x205001b
    2098:	0000                	unimp
    209a:	0000                	unimp
    209c:	0018                	0x18
    209e:	0205                	slli	tp,tp,0x1
    20a0:	0000                	unimp
    20a2:	0000                	unimp
    20a4:	0019                	0x19
    20a6:	0205                	slli	tp,tp,0x1
    20a8:	0000                	unimp
    20aa:	0000                	unimp
    20ac:	0200                	li	tp,0
    20ae:	0104                	mv	sp,ra
    20b0:	0106                	j	2150 <.Ldebug_line0+0x97a>
    20b2:	0500                	li	a0,0
    20b4:	0002                	j	20b4 <.Ldebug_line0+0x8de>
    20b6:	0000                	unimp
    20b8:	0600                	li	a2,0
    20ba:	0015                	0x15
    20bc:	0205                	slli	tp,tp,0x1
    20be:	0000                	unimp
    20c0:	0000                	unimp
    20c2:	0200                	li	tp,0
    20c4:	0204                	mv	tp,ra
    20c6:	0019                	0x19
    20c8:	0205                	slli	tp,tp,0x1
    20ca:	0000                	unimp
    20cc:	0000                	unimp
    20ce:	0200                	li	tp,0
    20d0:	0104                	mv	sp,ra
    20d2:	0018                	0x18
    20d4:	0205                	slli	tp,tp,0x1
    20d6:	0000                	unimp
    20d8:	0000                	unimp
    20da:	0200                	li	tp,0
    20dc:	0004                	0x4
    20de:	001d                	0x1d
    20e0:	0205                	slli	tp,tp,0x1
    20e2:	0000                	unimp
    20e4:	0000                	unimp
    20e6:	0018                	0x18
    20e8:	0205                	slli	tp,tp,0x1
    20ea:	0000                	unimp
    20ec:	0000                	unimp
    20ee:	0018                	0x18
    20f0:	0205                	slli	tp,tp,0x1
    20f2:	0000                	unimp
    20f4:	0000                	unimp
    20f6:	0018                	0x18
    20f8:	0205                	slli	tp,tp,0x1
    20fa:	0000                	unimp
    20fc:	0000                	unimp
    20fe:	0018                	0x18
    2100:	0205                	slli	tp,tp,0x1
    2102:	0000                	unimp
    2104:	0000                	unimp
    2106:	0018                	0x18
    2108:	0205                	slli	tp,tp,0x1
    210a:	0000                	unimp
    210c:	0000                	unimp
    210e:	0018                	0x18
    2110:	0205                	slli	tp,tp,0x1
    2112:	0000                	unimp
    2114:	0000                	unimp
    2116:	0205001b          	0x205001b
    211a:	0000                	unimp
    211c:	0000                	unimp
    211e:	0018                	0x18
    2120:	0205                	slli	tp,tp,0x1
    2122:	0000                	unimp
    2124:	0000                	unimp
    2126:	0019                	0x19
    2128:	0205                	slli	tp,tp,0x1
    212a:	0000                	unimp
    212c:	0000                	unimp
    212e:	0200                	li	tp,0
    2130:	0104                	mv	sp,ra
    2132:	0016                	j	2156 <.Ldebug_line0+0x980>
    2134:	0205                	slli	tp,tp,0x1
    2136:	0000                	unimp
    2138:	0000                	unimp
    213a:	0018                	0x18
    213c:	0205                	slli	tp,tp,0x1
    213e:	0000                	unimp
    2140:	0000                	unimp
    2142:	0015                	0x15
    2144:	0205                	slli	tp,tp,0x1
    2146:	0000                	unimp
    2148:	0000                	unimp
    214a:	0200                	li	tp,0
    214c:	0204                	mv	tp,ra
    214e:	0019                	0x19
    2150:	0205                	slli	tp,tp,0x1
    2152:	0000                	unimp
    2154:	0000                	unimp
    2156:	0200                	li	tp,0
    2158:	0104                	mv	sp,ra
    215a:	0015                	0x15
    215c:	0205                	slli	tp,tp,0x1
    215e:	0000                	unimp
    2160:	0000                	unimp
    2162:	001a                	j	2168 <.Ldebug_line0+0x992>
    2164:	0205                	slli	tp,tp,0x1
    2166:	0000                	unimp
    2168:	0000                	unimp
    216a:	0200                	li	tp,0
    216c:	0004                	0x4
    216e:	0205001b          	0x205001b
    2172:	0000                	unimp
    2174:	0000                	unimp
    2176:	0018                	0x18
    2178:	0205                	slli	tp,tp,0x1
    217a:	0000                	unimp
    217c:	0000                	unimp
    217e:	0018                	0x18
    2180:	0205                	slli	tp,tp,0x1
    2182:	0000                	unimp
    2184:	0000                	unimp
    2186:	001a                	j	218c <.Ldebug_line0+0x9b6>
    2188:	0205                	slli	tp,tp,0x1
    218a:	0000                	unimp
    218c:	0000                	unimp
    218e:	0018                	0x18
    2190:	0205                	slli	tp,tp,0x1
    2192:	0000                	unimp
    2194:	0000                	unimp
    2196:	001a                	j	219c <.Ldebug_line0+0x9c6>
    2198:	0205                	slli	tp,tp,0x1
    219a:	0000                	unimp
    219c:	0000                	unimp
    219e:	001a                	j	21a4 <.Ldebug_line0+0x9ce>
    21a0:	0205                	slli	tp,tp,0x1
    21a2:	0000                	unimp
    21a4:	0000                	unimp
    21a6:	0205001b          	0x205001b
    21aa:	0000                	unimp
    21ac:	0000                	unimp
    21ae:	0018                	0x18
    21b0:	0205                	slli	tp,tp,0x1
    21b2:	0000                	unimp
    21b4:	0000                	unimp
    21b6:	0019                	0x19
    21b8:	0205                	slli	tp,tp,0x1
    21ba:	0000                	unimp
    21bc:	0000                	unimp
    21be:	001a                	j	21c4 <.Ldebug_line0+0x9ee>
    21c0:	0205                	slli	tp,tp,0x1
    21c2:	0000                	unimp
    21c4:	0000                	unimp
    21c6:	0019                	0x19
    21c8:	0205                	slli	tp,tp,0x1
    21ca:	0000                	unimp
    21cc:	0000                	unimp
    21ce:	0018                	0x18
    21d0:	0205                	slli	tp,tp,0x1
    21d2:	0000                	unimp
    21d4:	0000                	unimp
    21d6:	0019                	0x19
    21d8:	0205                	slli	tp,tp,0x1
    21da:	0000                	unimp
    21dc:	0000                	unimp
    21de:	0018                	0x18
    21e0:	0205                	slli	tp,tp,0x1
    21e2:	0000                	unimp
    21e4:	0000                	unimp
    21e6:	00017103          	0x17103
    21ea:	0205                	slli	tp,tp,0x1
    21ec:	0000                	unimp
    21ee:	0000                	unimp
    21f0:	0200                	li	tp,0
    21f2:	0204                	mv	tp,ra
    21f4:	02050013          	addi	zero,a0,32
    21f8:	0000                	unimp
    21fa:	0000                	unimp
    21fc:	0200                	li	tp,0
    21fe:	0104                	mv	sp,ra
    2200:	0106                	j	22a0 <.Ldebug_line0+0xaca>
    2202:	0500                	li	a0,0
    2204:	0002                	j	2204 <.Ldebug_line0+0xa2e>
    2206:	0000                	unimp
    2208:	0000                	unimp
    220a:	0402                	j	240a <.Ldebug_line0+0xcf>
    220c:	0600                	li	a2,0
    220e:	002d                	0x2d
    2210:	0205                	slli	tp,tp,0x1
    2212:	0000                	unimp
    2214:	0000                	unimp
    2216:	0018                	0x18
    2218:	0205                	slli	tp,tp,0x1
    221a:	0000                	unimp
    221c:	0000                	unimp
    221e:	0019                	0x19
    2220:	0205                	slli	tp,tp,0x1
    2222:	0000                	unimp
    2224:	0000                	unimp
    2226:	0018                	0x18
    2228:	0205                	slli	tp,tp,0x1
    222a:	0000                	unimp
    222c:	0000                	unimp
    222e:	0205001b          	0x205001b
    2232:	0000                	unimp
    2234:	0000                	unimp
    2236:	0018                	0x18
    2238:	0205                	slli	tp,tp,0x1
    223a:	0000                	unimp
    223c:	0000                	unimp
    223e:	0018                	0x18
    2240:	0205                	slli	tp,tp,0x1
    2242:	0000                	unimp
    2244:	0000                	unimp
    2246:	0018                	0x18
    2248:	0205                	slli	tp,tp,0x1
    224a:	0000                	unimp
    224c:	0000                	unimp
    224e:	0200                	li	tp,0
    2250:	0104                	mv	sp,ra
    2252:	0106                	j	22f2 <.Ldebug_line0+0xb1c>
    2254:	0500                	li	a0,0
    2256:	0002                	j	2256 <.Ldebug_line0+0xa80>
    2258:	0000                	unimp
    225a:	0000                	unimp
    225c:	0402                	j	245c <.Ldebug_line0+0x121>
    225e:	0600                	li	a2,0
    2260:	0018                	0x18
    2262:	0205                	slli	tp,tp,0x1
    2264:	0000                	unimp
    2266:	0000                	unimp
    2268:	0019                	0x19
    226a:	0205                	slli	tp,tp,0x1
    226c:	0000                	unimp
    226e:	0000                	unimp
    2270:	0019                	0x19
    2272:	0205                	slli	tp,tp,0x1
    2274:	0000                	unimp
    2276:	0000                	unimp
    2278:	0205001b          	0x205001b
    227c:	0000                	unimp
    227e:	0000                	unimp
    2280:	0018                	0x18
    2282:	0205                	slli	tp,tp,0x1
    2284:	0000                	unimp
    2286:	0000                	unimp
    2288:	0018                	0x18
    228a:	0205                	slli	tp,tp,0x1
    228c:	0000                	unimp
    228e:	0000                	unimp
    2290:	001a                	j	2296 <.Ldebug_line0+0xac0>
    2292:	0205                	slli	tp,tp,0x1
    2294:	0000                	unimp
    2296:	0000                	unimp
    2298:	0019                	0x19
    229a:	0205                	slli	tp,tp,0x1
    229c:	0000                	unimp
    229e:	0000                	unimp
    22a0:	0018                	0x18
    22a2:	0205                	slli	tp,tp,0x1
    22a4:	0000                	unimp
    22a6:	0000                	unimp
    22a8:	0205001b          	0x205001b
    22ac:	0000                	unimp
    22ae:	0000                	unimp
    22b0:	001a                	j	22b6 <.Ldebug_line0+0xae0>
    22b2:	0205                	slli	tp,tp,0x1
    22b4:	0000                	unimp
    22b6:	0000                	unimp
    22b8:	0018                	0x18
    22ba:	0205                	slli	tp,tp,0x1
    22bc:	0000                	unimp
    22be:	0000                	unimp
    22c0:	001a                	j	22c6 <.Ldebug_line0+0xaf0>
    22c2:	0205                	slli	tp,tp,0x1
    22c4:	0000                	unimp
    22c6:	0000                	unimp
    22c8:	0205001b          	0x205001b
    22cc:	0000                	unimp
    22ce:	0000                	unimp
    22d0:	0018                	0x18
    22d2:	0205                	slli	tp,tp,0x1
    22d4:	0000                	unimp
    22d6:	0000                	unimp
    22d8:	0019                	0x19
    22da:	0205                	slli	tp,tp,0x1
    22dc:	0000                	unimp
    22de:	0000                	unimp
    22e0:	0200                	li	tp,0
    22e2:	0204                	mv	tp,ra
    22e4:	0019                	0x19
    22e6:	0205                	slli	tp,tp,0x1
    22e8:	0000                	unimp
    22ea:	0000                	unimp
    22ec:	0018                	0x18
    22ee:	0205                	slli	tp,tp,0x1
    22f0:	0000                	unimp
    22f2:	0000                	unimp
    22f4:	0018                	0x18
    22f6:	0205                	slli	tp,tp,0x1
    22f8:	0000                	unimp
    22fa:	0000                	unimp
    22fc:	0018                	0x18
    22fe:	0205                	slli	tp,tp,0x1
    2300:	0000                	unimp
    2302:	0000                	unimp
    2304:	0018                	0x18
    2306:	0205                	slli	tp,tp,0x1
    2308:	0000                	unimp
    230a:	0000                	unimp
    230c:	00017303          	0x17303
    2310:	0205                	slli	tp,tp,0x1
    2312:	0000                	unimp
    2314:	0000                	unimp
    2316:	0200                	li	tp,0
    2318:	0104                	mv	sp,ra
    231a:	0106                	j	23ba <.Ldebug_line0+0x7f>
    231c:	0500                	li	a0,0
    231e:	0002                	j	231e <.Ldebug_line0+0xb48>
    2320:	0000                	unimp
    2322:	0000                	unimp
    2324:	0402                	j	2524 <.Ldebug_line0+0x1e9>
    2326:	0600                	li	a2,0
    2328:	02050027          	0x2050027
    232c:	0000                	unimp
    232e:	0000                	unimp
    2330:	0018                	0x18
    2332:	0205                	slli	tp,tp,0x1
    2334:	0000                	unimp
    2336:	0000                	unimp
    2338:	0100                	li	sp,0
    233a:	6201                	bltz	a2,233a <.Ldebug_line0+0xb64>

0000233b <.Ldebug_line0>:
    233b:	0462                	j	2553 <.Ldebug_line0+0x218>
    233d:	0000                	unimp
    233f:	0004                	0x4
    2341:	00ba                	j	238f <.Ldebug_line0+0x54>
    2343:	0000                	unimp
    2345:	0101                	slli	sp,sp,0x0
    2347:	f601                	bgez	a2,2287 <.Ldebug_line0+0xab1>
    2349:	0df2                	j	2a25 <.Ldebug_line0+0x6ea>
    234b:	0100                	li	sp,0
    234d:	0101                	slli	sp,sp,0x0
    234f:	0001                	0x1
    2351:	0000                	unimp
    2353:	0001                	0x1
    2355:	0100                	li	sp,0
    2357:	6d6f682f          	0x6d6f682f
    235b:	2f65                	srli	t5,t5,0x19
    235d:	6568                	sltu	a0,a0,a0
    235f:	6d616873          	csrrs	a6,0x6d6,2
    2363:	6f72502f          	0x6f72502f
    2367:	656a                	bnez	a0,23c1 <.Ldebug_line0+0x86>
    2369:	2f737463          	bleu	s7,t1,2651 <.Ldebug_line0+0x316>
    236d:	344c6573          	csrrs	a0,mip,24
    2371:	4c65732f          	0x4c65732f
    2375:	7234                	0x7234
    2377:	7369                	bltz	a4,2291 <.Ldebug_line0+0xabb>
    2379:	6d2d7663          	bleu	s2,s10,2a45 <.Ldebug_line0+0x70a>
    237d:	6c75                	bltz	s0,2479 <.Ldebug_line0+0x13e>
    237f:	6974                	0x6974
    2381:	6e72656b          	0x6e72656b
    2385:	6c65                	bltz	s0,247d <.Ldebug_line0+0x142>
    2387:	62696c2f          	0x62696c2f
    238b:	696c2f73          	csrrs	t5,0x696,s8
    238f:	6362                	bnez	a4,23a7 <.Ldebug_line0+0x6c>
    2391:	6970                	0x6970
    2393:	72732f6f          	jal	t5,352b9 <.L0 +0x21009>
    2397:	682f0063          	beq	t5,sp,2a17 <.Ldebug_line0+0x6dc>
    239b:	2f656d6f          	jal	s10,58691 <.L0 +0x443e1>
    239f:	6568                	sltu	a0,a0,a0
    23a1:	6d616873          	csrrs	a6,0x6d6,2
    23a5:	6f72502f          	0x6f72502f
    23a9:	656a                	bnez	a0,2403 <.Ldebug_line0+0xc8>
    23ab:	2f737463          	bleu	s7,t1,2693 <.Ldebug_line0+0x358>
    23af:	344c6573          	csrrs	a0,mip,24
    23b3:	4c65732f          	0x4c65732f
    23b7:	7234                	0x7234
    23b9:	7369                	bltz	a4,22d3 <.Ldebug_line0+0xafd>
    23bb:	6d2d7663          	bleu	s2,s10,2a87 <.Ldebug_line0+0x74c>
    23bf:	6c75                	bltz	s0,24bb <.Ldebug_line0+0x180>
    23c1:	6974                	0x6974
    23c3:	6e72656b          	0x6e72656b
    23c7:	6c65                	bltz	s0,24bf <.Ldebug_line0+0x184>
    23c9:	6174732f          	0x6174732f
    23cd:	722f6567          	0x722f6567
    23d1:	7369                	bltz	a4,22eb <.Ldebug_line0+0xb15>
    23d3:	732f7663          	bleu	s2,t5,2aff <.Ldebug_line0+0x7c4>
    23d7:	6970                	0x6970
    23d9:	692f656b          	0x692f656b
    23dd:	636e                	bnez	a4,2417 <.Ldebug_line0+0xdc>
    23df:	756c                	0x756c
    23e1:	6564                	sltu	a0,a0,s1
    23e3:	6970632f          	0x6970632f
    23e7:	6300006f          	j	2a17 <.Ldebug_line0+0x6dc>
    23eb:	6970                	0x6970
    23ed:	00632e6f          	jal	t3,343f3 <.L0 +0x20143>
    23f1:	0001                	0x1
    23f3:	6300                	xor	a4,a4,s0
    23f5:	6970                	0x6970
    23f7:	00682e6f          	jal	t3,843fd <.L0 +0x7014d>
    23fb:	0002                	j	23fb <.Ldebug_line0+0xc0>
    23fd:	0000                	unimp
    23ff:	0500                	li	a0,0
    2401:	0002                	j	2401 <.Ldebug_line0+0xc6>
    2403:	0000                	unimp
    2405:	2e00                	srai	t3,t3,0x0
    2407:	0500                	li	a0,0
    2409:	0002                	j	2409 <.Ldebug_line0+0xce>
    240b:	0000                	unimp
    240d:	1900                	add	s2,s2,zero
    240f:	0500                	li	a0,0
    2411:	0002                	j	2411 <.Ldebug_line0+0xd6>
    2413:	0000                	unimp
    2415:	1c00                	add	s8,s8,zero
    2417:	0500                	li	a0,0
    2419:	0002                	j	2419 <.Ldebug_line0+0xde>
    241b:	0000                	unimp
    241d:	1900                	add	s2,s2,zero
    241f:	0500                	li	a0,0
    2421:	0002                	j	2421 <.Ldebug_line0+0xe6>
    2423:	0000                	unimp
    2425:	1900                	add	s2,s2,zero
    2427:	0500                	li	a0,0
    2429:	0002                	j	2429 <.Ldebug_line0+0xee>
    242b:	0000                	unimp
    242d:	1500                	add	a0,a0,zero
    242f:	0500                	li	a0,0
    2431:	0002                	j	2431 <.Ldebug_line0+0xf6>
    2433:	0000                	unimp
    2435:	1900                	add	s2,s2,zero
    2437:	0500                	li	a0,0
    2439:	0002                	j	2439 <.Ldebug_line0+0xfe>
    243b:	0000                	unimp
    243d:	1800                	add	a6,a6,zero
    243f:	0500                	li	a0,0
    2441:	0002                	j	2441 <.Ldebug_line0+0x106>
    2443:	0000                	unimp
    2445:	1000                	ebreak
    2447:	0500                	li	a0,0
    2449:	0002                	j	2449 <.Ldebug_line0+0x10e>
    244b:	0000                	unimp
    244d:	1900                	add	s2,s2,zero
    244f:	0500                	li	a0,0
    2451:	0002                	j	2451 <.Ldebug_line0+0x116>
    2453:	0000                	unimp
    2455:	1600                	add	a2,a2,zero
    2457:	0500                	li	a0,0
    2459:	0002                	j	2459 <.Ldebug_line0+0x11e>
    245b:	0000                	unimp
    245d:	1800                	add	a6,a6,zero
    245f:	0500                	li	a0,0
    2461:	0002                	j	2461 <.Ldebug_line0+0x126>
    2463:	0000                	unimp
    2465:	1900                	add	s2,s2,zero
    2467:	0500                	li	a0,0
    2469:	0002                	j	2469 <.Ldebug_line0+0x12e>
    246b:	0000                	unimp
    246d:	1500                	add	a0,a0,zero
    246f:	0500                	li	a0,0
    2471:	0002                	j	2471 <.Ldebug_line0+0x136>
    2473:	0000                	unimp
    2475:	1900                	add	s2,s2,zero
    2477:	0500                	li	a0,0
    2479:	0002                	j	2479 <.Ldebug_line0+0x13e>
    247b:	0000                	unimp
    247d:	1500                	add	a0,a0,zero
    247f:	0500                	li	a0,0
    2481:	0002                	j	2481 <.Ldebug_line0+0x146>
    2483:	0000                	unimp
    2485:	1a00                	add	s4,s4,zero
    2487:	0500                	li	a0,0
    2489:	0002                	j	2489 <.Ldebug_line0+0x14e>
    248b:	0000                	unimp
    248d:	1200                	add	tp,tp,zero
    248f:	0500                	li	a0,0
    2491:	0002                	j	2491 <.Ldebug_line0+0x156>
    2493:	0000                	unimp
    2495:	1800                	add	a6,a6,zero
    2497:	0500                	li	a0,0
    2499:	0002                	j	2499 <.Ldebug_line0+0x15e>
    249b:	0000                	unimp
    249d:	2400                	srai	s0,s0,0x0
    249f:	0500                	li	a0,0
    24a1:	0002                	j	24a1 <.Ldebug_line0+0x166>
    24a3:	0000                	unimp
    24a5:	4c00                	sw	s0,24(s0)
    24a7:	0500                	li	a0,0
    24a9:	0002                	j	24a9 <.Ldebug_line0+0x16e>
    24ab:	0000                	unimp
    24ad:	0300                	li	t1,0
    24af:	05000157          	0x5000157
    24b3:	0002                	j	24b3 <.Ldebug_line0+0x178>
    24b5:	0000                	unimp
    24b7:	1a00                	add	s4,s4,zero
    24b9:	0500                	li	a0,0
    24bb:	0002                	j	24bb <.Ldebug_line0+0x180>
    24bd:	0000                	unimp
    24bf:	1300                	add	t1,t1,zero
    24c1:	0500                	li	a0,0
    24c3:	0002                	j	24c3 <.Ldebug_line0+0x188>
    24c5:	0000                	unimp
    24c7:	4900                	sw	s0,16(a0)
    24c9:	0500                	li	a0,0
    24cb:	0002                	j	24cb <.Ldebug_line0+0x190>
    24cd:	0000                	unimp
    24cf:	1800                	add	a6,a6,zero
    24d1:	0500                	li	a0,0
    24d3:	0002                	j	24d3 <.Ldebug_line0+0x198>
    24d5:	0000                	unimp
    24d7:	1600                	add	a2,a2,zero
    24d9:	0500                	li	a0,0
    24db:	0002                	j	24db <.Ldebug_line0+0x1a0>
    24dd:	0000                	unimp
    24df:	1800                	add	a6,a6,zero
    24e1:	0500                	li	a0,0
    24e3:	0002                	j	24e3 <.Ldebug_line0+0x1a8>
    24e5:	0000                	unimp
    24e7:	0300                	li	t1,0
    24e9:	014e                	j	259b <.Ldebug_line0+0x260>
    24eb:	0500                	li	a0,0
    24ed:	0002                	j	24ed <.Ldebug_line0+0x1b2>
    24ef:	0000                	unimp
    24f1:	1a00                	add	s4,s4,zero
    24f3:	0500                	li	a0,0
    24f5:	0002                	j	24f5 <.Ldebug_line0+0x1ba>
    24f7:	0000                	unimp
    24f9:	1300                	add	t1,t1,zero
    24fb:	0500                	li	a0,0
    24fd:	0002                	j	24fd <.Ldebug_line0+0x1c2>
    24ff:	0000                	unimp
    2501:	4e00                	sw	s0,24(a2)
    2503:	0500                	li	a0,0
    2505:	0002                	j	2505 <.Ldebug_line0+0x1ca>
    2507:	0000                	unimp
    2509:	2300                	srai	t1,t1,0x0
    250b:	0500                	li	a0,0
    250d:	0002                	j	250d <.Ldebug_line0+0x1d2>
    250f:	0000                	unimp
    2511:	0e00                	li	t3,0
    2513:	0500                	li	a0,0
    2515:	0002                	j	2515 <.Ldebug_line0+0x1da>
    2517:	0000                	unimp
    2519:	0300                	li	t1,0
    251b:	7fa4                	0x7fa4
    251d:	0001                	0x1
    251f:	0205                	slli	tp,tp,0x1
    2521:	0000                	unimp
    2523:	0000                	unimp
    2525:	02050077          	0x2050077
    2529:	0000                	unimp
    252b:	0000                	unimp
    252d:	0015                	0x15
    252f:	0205                	slli	tp,tp,0x1
    2531:	0000                	unimp
    2533:	0000                	unimp
    2535:	0019                	0x19
    2537:	0205                	slli	tp,tp,0x1
    2539:	0000                	unimp
    253b:	0000                	unimp
    253d:	0018                	0x18
    253f:	0205                	slli	tp,tp,0x1
    2541:	0000                	unimp
    2543:	0000                	unimp
    2545:	0018                	0x18
    2547:	0205                	slli	tp,tp,0x1
    2549:	0000                	unimp
    254b:	0000                	unimp
    254d:	0019                	0x19
    254f:	0205                	slli	tp,tp,0x1
    2551:	0000                	unimp
    2553:	0000                	unimp
    2555:	00016d03          	0x16d03
    2559:	0205                	slli	tp,tp,0x1
    255b:	0000                	unimp
    255d:	0000                	unimp
    255f:	02050037          	lui	zero,0x2050
    2563:	0000                	unimp
    2565:	0000                	unimp
    2567:	001a                	j	256d <.Ldebug_line0+0x232>
    2569:	0205                	slli	tp,tp,0x1
    256b:	0000                	unimp
    256d:	0000                	unimp
    256f:	001a                	j	2575 <.Ldebug_line0+0x23a>
    2571:	0205                	slli	tp,tp,0x1
    2573:	0000                	unimp
    2575:	0000                	unimp
    2577:	001c                	0x1c
    2579:	0205                	slli	tp,tp,0x1
    257b:	0000                	unimp
    257d:	0000                	unimp
    257f:	0012                	j	2583 <.Ldebug_line0+0x248>
    2581:	0205                	slli	tp,tp,0x1
    2583:	0000                	unimp
    2585:	0000                	unimp
    2587:	0019                	0x19
    2589:	0205                	slli	tp,tp,0x1
    258b:	0000                	unimp
    258d:	0000                	unimp
    258f:	0015                	0x15
    2591:	0205                	slli	tp,tp,0x1
    2593:	0000                	unimp
    2595:	0000                	unimp
    2597:	001a                	j	259d <.Ldebug_line0+0x262>
    2599:	0205                	slli	tp,tp,0x1
    259b:	0000                	unimp
    259d:	0000                	unimp
    259f:	0014                	0x14
    25a1:	0205                	slli	tp,tp,0x1
    25a3:	0000                	unimp
    25a5:	0000                	unimp
    25a7:	0020                	0x20
    25a9:	0205                	slli	tp,tp,0x1
    25ab:	0000                	unimp
    25ad:	0000                	unimp
    25af:	0022                	j	25b7 <.Ldebug_line0+0x27c>
    25b1:	0205                	slli	tp,tp,0x1
    25b3:	0000                	unimp
    25b5:	0000                	unimp
    25b7:	0020                	0x20
    25b9:	0205                	slli	tp,tp,0x1
    25bb:	0000                	unimp
    25bd:	0000                	unimp
    25bf:	000e                	j	25e1 <.Ldebug_line0+0x2a6>
    25c1:	0205                	slli	tp,tp,0x1
    25c3:	0000                	unimp
    25c5:	0000                	unimp
    25c7:	0020                	0x20
    25c9:	0205                	slli	tp,tp,0x1
    25cb:	0000                	unimp
    25cd:	0000                	unimp
    25cf:	000e                	j	25f1 <.Ldebug_line0+0x2b6>
    25d1:	0205                	slli	tp,tp,0x1
    25d3:	0000                	unimp
    25d5:	0000                	unimp
    25d7:	0020                	0x20
    25d9:	0205                	slli	tp,tp,0x1
    25db:	0000                	unimp
    25dd:	0000                	unimp
    25df:	0019                	0x19
    25e1:	0205                	slli	tp,tp,0x1
    25e3:	0000                	unimp
    25e5:	0000                	unimp
    25e7:	0019                	0x19
    25e9:	0205                	slli	tp,tp,0x1
    25eb:	0000                	unimp
    25ed:	0000                	unimp
    25ef:	017f8e03          	lb	t3,23(t6)
    25f3:	0500                	li	a0,0
    25f5:	0002                	j	25f5 <.Ldebug_line0+0x2ba>
    25f7:	0000                	unimp
    25f9:	1300                	add	t1,t1,zero
    25fb:	0500                	li	a0,0
    25fd:	0002                	j	25fd <.Ldebug_line0+0x2c2>
    25ff:	0000                	unimp
    2601:	1800                	add	a6,a6,zero
    2603:	0500                	li	a0,0
    2605:	0002                	j	2605 <.Ldebug_line0+0x2ca>
    2607:	0000                	unimp
    2609:	8e00                	sub	t3,t3,zero
    260b:	0500                	li	a0,0
    260d:	0002                	j	260d <.Ldebug_line0+0x2d2>
    260f:	0000                	unimp
    2611:	1100                	add	sp,sp,zero
    2613:	0500                	li	a0,0
    2615:	0002                	j	2615 <.Ldebug_line0+0x2da>
    2617:	0000                	unimp
    2619:	1900                	add	s2,s2,zero
    261b:	0500                	li	a0,0
    261d:	0002                	j	261d <.Ldebug_line0+0x2e2>
    261f:	0000                	unimp
    2621:	1d00                	add	s10,s10,zero
    2623:	0500                	li	a0,0
    2625:	0002                	j	2625 <.Ldebug_line0+0x2ea>
    2627:	0000                	unimp
    2629:	1200                	add	tp,tp,zero
    262b:	0500                	li	a0,0
    262d:	0002                	j	262d <.Ldebug_line0+0x2f2>
    262f:	0000                	unimp
    2631:	1c00                	add	s8,s8,zero
    2633:	0500                	li	a0,0
    2635:	0002                	j	2635 <.Ldebug_line0+0x2fa>
    2637:	0000                	unimp
    2639:	1400                	add	s0,s0,zero
    263b:	0500                	li	a0,0
    263d:	0002                	j	263d <.Ldebug_line0+0x302>
    263f:	0000                	unimp
    2641:	1a00                	add	s4,s4,zero
    2643:	0500                	li	a0,0
    2645:	0002                	j	2645 <.Ldebug_line0+0x30a>
    2647:	0000                	unimp
    2649:	1900                	add	s2,s2,zero
    264b:	0500                	li	a0,0
    264d:	0002                	j	264d <.Ldebug_line0+0x312>
    264f:	0000                	unimp
    2651:	1e00                	add	t3,t3,zero
    2653:	0500                	li	a0,0
    2655:	0002                	j	2655 <.Ldebug_line0+0x31a>
    2657:	0000                	unimp
    2659:	1000                	ebreak
    265b:	0500                	li	a0,0
    265d:	0002                	j	265d <.Ldebug_line0+0x322>
    265f:	0000                	unimp
    2661:	1f00                	add	t5,t5,zero
    2663:	0500                	li	a0,0
    2665:	0002                	j	2665 <.Ldebug_line0+0x32a>
    2667:	0000                	unimp
    2669:	1800                	add	a6,a6,zero
    266b:	0500                	li	a0,0
    266d:	0002                	j	266d <.Ldebug_line0+0x332>
    266f:	0000                	unimp
    2671:	1d00                	add	s10,s10,zero
    2673:	0500                	li	a0,0
    2675:	0002                	j	2675 <.Ldebug_line0+0x33a>
    2677:	0000                	unimp
    2679:	1900                	add	s2,s2,zero
    267b:	0500                	li	a0,0
    267d:	0002                	j	267d <.Ldebug_line0+0x342>
    267f:	0000                	unimp
    2681:	1300                	add	t1,t1,zero
    2683:	0500                	li	a0,0
    2685:	0002                	j	2685 <.Ldebug_line0+0x34a>
    2687:	0000                	unimp
    2689:	1900                	add	s2,s2,zero
    268b:	0500                	li	a0,0
    268d:	0002                	j	268d <.Ldebug_line0+0x352>
    268f:	0000                	unimp
    2691:	1900                	add	s2,s2,zero
    2693:	0500                	li	a0,0
    2695:	0002                	j	2695 <.Ldebug_line0+0x35a>
    2697:	0000                	unimp
    2699:	1b00                	add	s6,s6,zero
    269b:	0500                	li	a0,0
    269d:	0002                	j	269d <.Ldebug_line0+0x362>
    269f:	0000                	unimp
    26a1:	1b00                	add	s6,s6,zero
    26a3:	0500                	li	a0,0
    26a5:	0002                	j	26a5 <.Ldebug_line0+0x36a>
    26a7:	0000                	unimp
    26a9:	1400                	add	s0,s0,zero
    26ab:	0500                	li	a0,0
    26ad:	0002                	j	26ad <.Ldebug_line0+0x372>
    26af:	0000                	unimp
    26b1:	1600                	add	a2,a2,zero
    26b3:	0500                	li	a0,0
    26b5:	0002                	j	26b5 <.Ldebug_line0+0x37a>
    26b7:	0000                	unimp
    26b9:	0300                	li	t1,0
    26bb:	00017f8b          	custom0	t6,sp,zero,0
    26bf:	0205                	slli	tp,tp,0x1
    26c1:	0000                	unimp
    26c3:	0000                	unimp
    26c5:	0091                	slli	ra,ra,0x4
    26c7:	0205                	slli	tp,tp,0x1
    26c9:	0000                	unimp
    26cb:	0000                	unimp
    26cd:	0018                	0x18
    26cf:	0205                	slli	tp,tp,0x1
    26d1:	0000                	unimp
    26d3:	0000                	unimp
    26d5:	00017203          	0x17203
    26d9:	0205                	slli	tp,tp,0x1
    26db:	0000                	unimp
    26dd:	0000                	unimp
    26df:	0019                	0x19
    26e1:	0205                	slli	tp,tp,0x1
    26e3:	0000                	unimp
    26e5:	0000                	unimp
    26e7:	0028                	0x28
    26e9:	0205                	slli	tp,tp,0x1
    26eb:	0000                	unimp
    26ed:	0000                	unimp
    26ef:	00017303          	0x17303
    26f3:	0205                	slli	tp,tp,0x1
    26f5:	0000                	unimp
    26f7:	0000                	unimp
    26f9:	00017403          	0x17403
    26fd:	0205                	slli	tp,tp,0x1
    26ff:	0000                	unimp
    2701:	0000                	unimp
    2703:	0030                	0x30
    2705:	0205                	slli	tp,tp,0x1
    2707:	0000                	unimp
    2709:	0000                	unimp
    270b:	001a                	j	2711 <.Ldebug_line0+0x3d6>
    270d:	0205                	slli	tp,tp,0x1
    270f:	0000                	unimp
    2711:	0000                	unimp
    2713:	001f 0205 0000      	0x205001f
    2719:	0000                	unimp
    271b:	0205000f          	0x205000f
    271f:	0000                	unimp
    2721:	0000                	unimp
    2723:	001f 0205 0000      	0x205001f
    2729:	0000                	unimp
    272b:	0018                	0x18
    272d:	0205                	slli	tp,tp,0x1
    272f:	0000                	unimp
    2731:	0000                	unimp
    2733:	001a                	j	2739 <.Ldebug_line0+0x3fe>
    2735:	0205                	slli	tp,tp,0x1
    2737:	0000                	unimp
    2739:	0000                	unimp
    273b:	0200                	li	tp,0
    273d:	0204                	mv	tp,ra
    273f:	0018                	0x18
    2741:	0205                	slli	tp,tp,0x1
    2743:	0000                	unimp
    2745:	0000                	unimp
    2747:	017ee503          	0x17ee503
    274b:	0500                	li	a0,0
    274d:	0002                	j	274d <.Ldebug_line0+0x412>
    274f:	0000                	unimp
    2751:	0000                	unimp
    2753:	0402                	j	2953 <.Ldebug_line0+0x618>
    2755:	1800                	add	a6,a6,zero
    2757:	0500                	li	a0,0
    2759:	0002                	j	2759 <.Ldebug_line0+0x41e>
    275b:	0000                	unimp
    275d:	1900                	add	s2,s2,zero
    275f:	0500                	li	a0,0
    2761:	0002                	j	2761 <.Ldebug_line0+0x426>
    2763:	0000                	unimp
    2765:	1400                	add	s0,s0,zero
    2767:	0500                	li	a0,0
    2769:	0002                	j	2769 <.Ldebug_line0+0x42e>
    276b:	0000                	unimp
    276d:	1900                	add	s2,s2,zero
    276f:	0500                	li	a0,0
    2771:	0002                	j	2771 <.Ldebug_line0+0x436>
    2773:	0000                	unimp
    2775:	1500                	add	a0,a0,zero
    2777:	0500                	li	a0,0
    2779:	0002                	j	2779 <.Ldebug_line0+0x43e>
    277b:	0000                	unimp
    277d:	ad00                	add	a1,a0,s0
    277f:	0500                	li	a0,0
    2781:	0002                	j	2781 <.Ldebug_line0+0x446>
    2783:	0000                	unimp
    2785:	1d00                	add	s10,s10,zero
    2787:	0500                	li	a0,0
    2789:	0002                	j	2789 <.Ldebug_line0+0x44e>
    278b:	0000                	unimp
    278d:	1100                	add	sp,sp,zero
    278f:	0500                	li	a0,0
    2791:	0002                	j	2791 <.Ldebug_line0+0x456>
    2793:	0000                	unimp
    2795:	1f00                	add	t5,t5,zero
    2797:	0500                	li	a0,0
    2799:	0002                	j	2799 <.Ldebug_line0+0x45e>
    279b:	0000                	unimp
    279d:	0000                	unimp
    279f:	0101                	slli	sp,sp,0x0

Disassembly of section .debug_str:

00000000 <.LASF77>:
       0:	616d                	bltz	a0,3a <.LASF43+0x4>
       2:	5f78                	sw	a4,124(a4)
       4:	7375                	bltz	a4,ffffff40 <.L0 +0xfffebc90>
       6:	7265                	bltz	a2,ffffff3e <.L0 +0xfffebc8e>
       8:	695f 616d 6567      	0x6567616d695f
       e:	5f650073          	0x5f650073

00000010 <.LASF25>:
      10:	5f65                	sw	s9,188(sp)
      12:	74736873          	csrrs	a6,0x747,6
      16:	6e72                	bnez	a2,f2 <.LASF96+0x4>
      18:	7864                	0x7864
	...

0000001b <.LASF70>:
      1b:	6164                	0x6164
      1d:	6174                	0x6174
      1f:	6f5f 6666 6573      	0x657366666f5f
      25:	0074                	0x74

00000027 <.LASF81>:
      27:	656e                	bnez	a0,a1 <.LASF19+0x4>
      29:	7478                	0x7478
      2b:	705f 7968 5f73      	0x5f737968705f
      31:	6461                	bltz	s0,89 <.LASF92+0x1>
      33:	7264                	0x7264
	...

00000036 <.LASF43>:
      36:	6976                	bnez	a0,f2 <.LASF96+0x4>
      38:	7472                	bnez	s0,ffffff94 <.L0 +0xfffebce4>
      3a:	725f 6765 6f69      	0x6f696765725f
      40:	5f6e                	beqz	a4,3a <.LASF43+0x4>
      42:	6e65                	bltz	a2,13a <.LASF23+0x1>
      44:	0064                	0x64

00000046 <.LASF59>:
      46:	6e65                	bltz	a2,13e <.LASF23+0x5>
      48:	4264                	sw	s1,68(a2)
	...

0000004b <.LASF16>:
      4b:	5f65                	sw	s9,188(sp)
      4d:	6e65                	bltz	a2,145 <.LASF99>
      4f:	7274                	0x7274
      51:	0079                	0x79

00000053 <.LASF9>:
      53:	6975                	bltz	a0,10f <.LASF63+0xd>
      55:	746e                	bnez	s0,ffffffcf <.L0 +0xfffebd1f>
      57:	3436                	jal	fffffa83 <.L0 +0xfffeb7d3>
      59:	745f 6c00 616f      	0x616f6c00745f

0000005c <.LASF71>:
      5c:	6f6c                	sltu	a1,a4,a1
      5e:	6461                	bltz	s0,b6 <.LASF21+0x2>
      60:	655f 666c 7300      	0x7300666c655f

00000065 <.LASF1>:
      65:	726f6873          	csrrs	a6,0x726,30
      69:	2074                	0x2074
      6b:	6e69                	bltz	a2,145 <.LASF99>
      6d:	0074                	0x74

0000006f <.LASF34>:
      6f:	5f70                	sw	a2,124(a4)
      71:	656d                	bltz	a0,eb <.LASF87+0x2>
      73:	736d                	bltz	a4,ffffffad <.L0 +0xfffebcfd>
      75:	007a                	j	93 <.LASF47+0x4>

00000077 <.LASF26>:
      77:	657a6973          	csrrs	s2,0x657,20
      7b:	7974                	0x7974
      7d:	6570                	sltu	a0,a0,a2
	...

00000080 <.LASF32>:
      80:	5f70                	sw	a2,124(a4)
      82:	6170                	0x6170
      84:	6464                	sltu	s0,s0,s1
      86:	0072                	j	a2 <.LASF19+0x5>

00000088 <.LASF92>:
      88:	735f 6174 7472      	0x74726174735f
	...

0000008f <.LASF47>:
      8f:	6e69                	bltz	a2,169 <.LASF99+0x24>
      91:	7469                	bltz	s0,ffffffeb <.L0 +0xfffebd3b>
      93:	6b5f 7265 656e      	0x656e72656b5f
      99:	5f6c                	sw	a1,124(a4)
      9b:	0074                	0x74

0000009d <.LASF19>:
      9d:	5f65                	sw	s9,188(sp)
      9f:	6c66                	bnez	s0,197 <.LASF53+0x2>
      a1:	6761                	bltz	a4,f9 <.LASF31+0x6>
      a3:	5f650073          	0x5f650073

000000a5 <.LASF14>:
      a5:	5f65                	sw	s9,188(sp)
      a7:	616d                	bltz	a0,e1 <.LASF82+0xa>
      a9:	6e696863          	bltu	s2,t1,799 <.LASF28+0x49>
      ad:	0065                	0x65

000000af <.LASF90>:
      af:	616d                	bltz	a0,e9 <.LASF87>
      b1:	6e69                	bltz	a2,18b <.LASF67+0x1>
	...

000000b4 <.LASF21>:
      b4:	5f65                	sw	s9,188(sp)
      b6:	6870                	0x6870
      b8:	6e65                	bltz	a2,1b0 <.LASF20+0x6>
      ba:	7374                	0x7374
      bc:	7a69                	bltz	a2,56 <.LASF9+0x3>
      be:	0065                	0x65

000000c0 <.LASF55>:
      c0:	6572                	bnez	a0,11c <.LASF11+0x6>
      c2:	6e6f6967          	0x6e6f6967
      c6:	766f5f73          	csrrw	t5,0x766,30
      ca:	7265                	bltz	a2,2 <.LASF77+0x2>
      cc:	616c                	0x616c
      ce:	0070                	0x70

000000d0 <.LASF98>:
      d0:	5f757063          	bleu	s7,a0,6b0 <.LASF6+0x6>
      d4:	6469                	bltz	s0,12e <.LASF86+0xe>
	...

000000d7 <.LASF82>:
      d7:	6c65                	bltz	s0,1cf <.LASF93+0x4>
      d9:	5f66                	beqz	a4,d1 <.LASF98+0x1>
      db:	6966                	bnez	a0,193 <.LASF67+0x9>
      dd:	656c                	sltu	a0,a0,a1
      df:	616e                	bnez	a0,119 <.LASF11+0x3>
      e1:	656d                	bltz	a0,15b <.LASF99+0x16>
	...

000000e4 <.LASF50>:
      e4:	6966                	bnez	a0,19c <.LASF13+0x1>
      e6:	656c                	sltu	a0,a0,a1
	...

000000e9 <.LASF87>:
      e9:	6f6e                	bnez	a4,1e3 <.LASF58+0x1>
      eb:	6564                	sltu	a0,a0,s1
	...

000000ee <.LASF96>:
      ee:	326c                	srai	tp,tp,0x3b
      f0:	7470                	0x7470
	...

000000f3 <.LASF31>:
      f3:	5f70                	sw	a2,124(a4)
      f5:	6176                	bnez	a0,131 <.LASF86+0x11>
      f7:	6464                	sltu	s0,s0,s1
      f9:	0072                	j	115 <.LASF63+0x13>

000000fb <.LASF29>:
      fb:	5f70                	sw	a2,124(a4)
      fd:	7974                	0x7974
      ff:	6570                	sltu	a0,a0,a2
	...

00000102 <.LASF63>:
     102:	6e75                	bltz	a2,1fe <.LASF61+0x3>
     104:	6170                	0x6170
     106:	655f6b63          	bltu	t5,s5,75c <.LASF28+0xc>
     10a:	666c                	sltu	a2,a2,a1
     10c:	745f 5f6f 6170      	0x61705f6f745f
     112:	6464                	sltu	s0,s0,s1
     114:	0072                	j	130 <.LASF86+0x10>

00000116 <.LASF11>:
     116:	6975                	bltz	a0,1d2 <.LASF28+0x2>
     118:	746e                	bnez	s0,92 <.LASF47+0x3>
     11a:	7470                	0x7470
     11c:	5f72                	beqz	a4,f8 <.LASF31+0x5>
     11e:	0074                	0x74

00000120 <.LASF86>:
     120:	6f62                	bnez	a4,1f8 <.LASF40+0xf>
     122:	735f746f          	jal	s0,f8056 <.L0 +0xe3da6>
     126:	6365                	bltz	a4,15e <.LASF99+0x19>
     128:	61646e6f          	jal	t3,4673e <.L0 +0x3248e>
     12c:	7972                	bnez	a0,c8 <.LASF55+0x8>
     12e:	705f 6f72 6563      	0x65636f72705f
     134:	726f7373          	csrrc	t1,0x726,30
	...

00000139 <.LASF23>:
     139:	5f65                	sw	s9,188(sp)
     13b:	6e656873          	csrrs	a6,0x6e6,10
     13f:	7374                	0x7374
     141:	7a69                	bltz	a2,db <.LASF82+0x4>
     143:	0065                	0x65

00000145 <.LASF99>:
     145:	20554e47          	fmsub.s	ft8,fa0,ft5,ft4,rmm
     149:	20313143          	fmadd.s	ft2,ft2,ft3,ft4,rup
     14d:	2e35                	srli	t3,t3,0xd
     14f:	2e32                	jal	85b <.LASF2+0x9>
     151:	2030                	0x2030
     153:	6d2d                	bltz	a0,23d <.LASF69+0x4>
     155:	2d203233          	0x2d203233
     159:	732d2067          	0x732d2067
     15d:	6474                	sltu	s0,s0,a3
     15f:	673d                	bltz	a4,1cd <.LASF93+0x2>
     161:	756e                	bnez	a0,db <.LASF82+0x4>
     163:	3131                	srli	sp,sp,0x2c
     165:	2d20                	srai	s10,s10,0x8
     167:	6666                	bnez	a2,1df <.LASF56+0x4>
     169:	6572                	bnez	a0,1c5 <.LASF57+0x4>
     16b:	7365                	bltz	a4,a3 <.LASF19+0x6>
     16d:	6174                	0x6174
     16f:	646e                	bnez	s0,1e9 <.LASF40>
     171:	6e69                	bltz	a2,24b <.LASF100+0x3>
     173:	662d2067          	0x662d2067
     177:	6f6e                	bnez	a4,271 <.LASF100+0x29>
     179:	732d                	bltz	a4,a3 <.LASF19+0x6>
     17b:	6174                	0x6174
     17d:	702d6b63          	bltu	s10,sp,893 <.LASF14+0x14>
     181:	6f72                	bnez	a4,25d <.LASF100+0x15>
     183:	6574                	sltu	a0,a0,a3
     185:	726f7463          	bleu	t1,t5,8ad <.LASF14+0x2e>
	...

0000018a <.LASF67>:
     18a:	6d69                	bltz	a0,264 <.LASF100+0x1c>
     18c:	6761                	bltz	a4,1e4 <.LASF58+0x2>
     18e:	5f65                	sw	s9,188(sp)
     190:	657a6973          	csrrs	s2,0x657,20
	...

00000195 <.LASF53>:
     195:	5f5f 6d74 0070      	0x706d745f5f

0000019b <.LASF13>:
     19b:	5f65                	sw	s9,188(sp)
     19d:	7974                	0x7974
     19f:	6570                	sltu	a0,a0,a2
	...

000001a2 <.LASF38>:
     1a2:	6176                	bnez	a0,1de <.LASF56+0x3>
     1a4:	6464                	sltu	s0,s0,s1
     1a6:	5f72                	beqz	a4,182 <.LASF99+0x3d>
     1a8:	0074                	0x74

000001aa <.LASF20>:
     1aa:	5f65                	sw	s9,188(sp)
     1ac:	6865                	bltz	s0,264 <.LASF100+0x1c>
     1ae:	657a6973          	csrrs	s2,0x657,20
	...

000001b3 <.LASF2>:
     1b3:	6f6c                	sltu	a1,a4,a1
     1b5:	676e                	bnez	a4,22f <.LASF48+0x1b>
     1b7:	6c20                	srl	s0,s0,s0
     1b9:	20676e6f          	jal	t3,763bf <.L0 +0x6210f>
     1bd:	6e69                	bltz	a2,297 <.LASF100+0x4f>
     1bf:	0074                	0x74

000001c1 <.LASF57>:
     1c1:	6e65                	bltz	a2,2b9 <.LASF60+0x2>
     1c3:	4164                	sw	s1,68(a0)
	...

000001c6 <.LASF73>:
     1c6:	6e69                	bltz	a2,2a0 <.LASF100+0x58>
     1c8:	6f66                	bnez	a4,2c0 <.LASF60+0x9>
	...

000001cb <.LASF93>:
     1cb:	655f 646e 4500      	0x4500646e655f

000001d0 <.LASF28>:
     1d0:	6c45                	bltz	s0,2c0 <.LASF60+0x9>
     1d2:	3366                	jal	fffffb8a <.L0 +0xfffeb8da>
     1d4:	5f32                	beqz	a4,1a0 <.LASF13+0x5>
     1d6:	6850                	0x6850
     1d8:	7264                	0x7264
	...

000001db <.LASF56>:
     1db:	72617473          	csrrc	s0,0x726,2
     1df:	4174                	sw	a3,68(a0)
	...

000001e2 <.LASF58>:
     1e2:	72617473          	csrrc	s0,0x726,2
     1e6:	4274                	sw	a3,68(a2)
	...

000001e9 <.LASF40>:
     1e9:	6870                	0x6870
     1eb:	7379                	bltz	a4,109 <.LASF63+0x7>
     1ed:	725f 6765 6f69      	0x6f696765725f
     1f3:	5f6e                	beqz	a4,1ed <.LASF40+0x4>
     1f5:	72617473          	csrrc	s0,0x726,2
     1f9:	0074                	0x74

000001fb <.LASF61>:
     1fb:	6170                	0x6170
     1fd:	6464                	sltu	s0,s0,s1
     1ff:	5f72                	beqz	a4,1db <.LASF56>
     201:	616d                	bltz	a0,23b <.LASF69+0x2>
     203:	0078                	0x78

00000205 <.LASF52>:
     205:	6870                	0x6870
     207:	7379                	bltz	a4,125 <.LASF86+0x5>
	...

0000020a <.LASF15>:
     20a:	5f65                	sw	s9,188(sp)
     20c:	6576                	bnez	a0,288 <.LASF100+0x40>
     20e:	7372                	bnez	a4,12a <.LASF86+0xa>
     210:	6f69                	bltz	a4,2ea <.LASF10+0x8>
     212:	006e                	j	24c <.LASF100+0x4>

00000214 <.LASF48>:
     214:	6c65                	bltz	s0,30c <.LASF84+0x2>
     216:	3366                	jal	fffffbce <.L0 +0xfffeb91e>
     218:	5f32                	beqz	a4,1e4 <.LASF58+0x2>
     21a:	50746567          	0x50746567
     21e:	6f72                	bnez	a4,2fa <.LASF12+0x1>
     220:	6d617267          	0x6d617267
     224:	6548                	slt	a0,a0,a0
     226:	6461                	bltz	s0,27e <.LASF100+0x36>
     228:	7265                	bltz	a2,160 <.LASF99+0x1b>
     22a:	6154                	0x6154
     22c:	6c62                	bnez	s0,304 <.LASF7+0x3>
     22e:	0065                	0x65

00000230 <.LASF85>:
     230:	7375                	bltz	a4,16c <.LASF99+0x27>
     232:	7265                	bltz	a2,16a <.LASF99+0x25>
     234:	655f 666c 6400      	0x6400666c655f

00000239 <.LASF69>:
     239:	6164                	0x6164
     23b:	6174                	0x6174
     23d:	735f 7a69 0065      	0x657a69735f

00000243 <.LASF72>:
     243:	616e                	bnez	a0,27d <.LASF100+0x35>
     245:	656d                	bltz	a0,2bf <.LASF60+0x8>
	...

00000248 <.LASF100>:
     248:	6d6f682f          	0x6d6f682f
     24c:	2f65                	srli	t5,t5,0x19
     24e:	6568                	sltu	a0,a0,a0
     250:	6d616873          	csrrs	a6,0x6d6,2
     254:	6f72502f          	0x6f72502f
     258:	656a                	bnez	a0,2b2 <.LASF3+0x9>
     25a:	2f737463          	bleu	s7,t1,542 <.LASF1+0x5>
     25e:	344c6573          	csrrs	a0,mip,24
     262:	4c65732f          	0x4c65732f
     266:	7234                	0x7234
     268:	7369                	bltz	a4,182 <.LASF99+0x3d>
     26a:	6d2d7663          	bleu	s2,s10,936 <.LASF7+0x43>
     26e:	6c75                	bltz	s0,36a <.LASF76+0x5>
     270:	6974                	0x6974
     272:	6e72656b          	0x6e72656b
     276:	6c65                	bltz	s0,36e <.LASF76+0x9>
     278:	6f6f742f          	0x6f6f742f
     27c:	736c                	0x736c
     27e:	6d6f632f          	0x6d6f632f
     282:	6f6d                	bltz	a4,37c <.LASF4>
     284:	2f6e                	jal	a3e <.LASF27+0xb>
     286:	2e2e                	jal	9b0 <.LASF8+0x2a>
     288:	666c652f          	0x666c652f
     28c:	6f6c                	sltu	a1,a4,a1
     28e:	6461                	bltz	s0,2e6 <.LASF10+0x4>
     290:	7265                	bltz	a2,1c8 <.LASF73+0x2>
     292:	6372732f          	0x6372732f
     296:	6372612f          	0x6372612f
     29a:	2d68                	srai	s10,s10,0x1a
     29c:	6972                	bnez	a0,338 <.LASF89+0x4>
     29e:	2f766373          	csrrs	t1,0x2f7,12
     2a2:	6f62                	bnez	a4,37a <.LASF27+0xb>
     2a4:	632e746f          	jal	s0,e78d6 <.L0 +0xd3626>
	...

000002a9 <.LASF3>:
     2a9:	6e75                	bltz	a2,3a5 <.LASF42+0x9>
     2ab:	6e676973          	csrrs	s2,0x6e6,14
     2af:	6465                	bltz	s0,327 <.LASF5+0x5>
     2b1:	6320                	sra	a4,a4,s0
     2b3:	6168                	0x6168
     2b5:	0072                	j	2d1 <.LASF41+0xb>

000002b7 <.LASF60>:
     2b7:	6170                	0x6170
     2b9:	6464                	sltu	s0,s0,s1
     2bb:	5f72                	beqz	a4,297 <.LASF100+0x4f>
     2bd:	696d                	bltz	a0,377 <.LASF27+0x8>
     2bf:	006e                	j	2f9 <.LASF12>

000002c1 <.LASF95>:
     2c1:	316c                	srai	sp,sp,0x3b
     2c3:	7470                	0x7470
	...

000002c6 <.LASF41>:
     2c6:	6870                	0x6870
     2c8:	7379                	bltz	a4,1e6 <.LASF58+0x4>
     2ca:	725f 6765 6f69      	0x6f696765725f
     2d0:	5f6e                	beqz	a4,2ca <.LASF41+0x4>
     2d2:	6e65                	bltz	a2,3ca <.LASF79+0xc>
     2d4:	0064                	0x64

000002d6 <.LASF0>:
     2d6:	6e676973          	csrrs	s2,0x6e6,14
     2da:	6465                	bltz	s0,352 <.LASF6+0xd>
     2dc:	6320                	sra	a4,a4,s0
     2de:	6168                	0x6168
     2e0:	0072                	j	2fc <.LASF12+0x3>

000002e2 <.LASF10>:
     2e2:	6f6c                	sltu	a1,a4,a1
     2e4:	676e                	bnez	a4,35e <.LASF35+0x6>
     2e6:	6c20                	srl	s0,s0,s0
     2e8:	20676e6f          	jal	t3,764ee <.L0 +0x6223e>
     2ec:	6e75                	bltz	a2,3e8 <.LASF54+0xe>
     2ee:	6e676973          	csrrs	s2,0x6e6,14
     2f2:	6465                	bltz	s0,36a <.LASF76+0x5>
     2f4:	6920                	0x6920
     2f6:	746e                	bnez	s0,270 <.LASF100+0x28>
	...

000002f9 <.LASF12>:
     2f9:	5f65                	sw	s9,188(sp)
     2fb:	6469                	bltz	s0,355 <.LASF6+0x10>
     2fd:	6e65                	bltz	a2,3f5 <.LASF94+0x9>
     2ff:	0074                	0x74

00000301 <.LASF7>:
     301:	6975                	bltz	a0,3bd <.LASF18+0x7>
     303:	746e                	bnez	s0,27d <.LASF100+0x35>
     305:	745f3233          	0x745f3233
	...

0000030a <.LASF84>:
     30a:	6e72656b          	0x6e72656b
     30e:	6c65                	bltz	s0,406 <.LASF44+0x2>
     310:	655f 666c 7500      	0x7500666c655f

00000315 <.LASF8>:
     315:	6e75                	bltz	a2,411 <.LASF51+0x2>
     317:	6e676973          	csrrs	s2,0x6e6,14
     31b:	6465                	bltz	s0,393 <.LASF80+0xf>
     31d:	6920                	0x6920
     31f:	746e                	bnez	s0,299 <.LASF100+0x51>
	...

00000322 <.LASF5>:
     322:	6975                	bltz	a0,3de <.LASF54+0x4>
     324:	746e                	bnez	s0,29e <.LASF100+0x56>
     326:	3631                	srli	a2,a2,0x2c
     328:	745f 6e00 6d75      	0x6d756e00745f

0000032b <.LASF91>:
     32b:	756e                	bnez	a0,2a5 <.LASF100+0x5d>
     32d:	5f6d                	sw	s11,188(sp)
     32f:	7061                	bltz	s0,247 <.LASF72+0x4>
     331:	7370                	0x7370
	...

00000334 <.LASF89>:
     334:	6e72656b          	0x6e72656b
     338:	6c65                	bltz	s0,430 <.LASF39+0xa>
     33a:	705f 7968 5f73      	0x5f737968705f
     340:	6461                	bltz	s0,398 <.LASF17+0x4>
     342:	7264                	0x7264
	...

00000345 <.LASF6>:
     345:	726f6873          	csrrs	a6,0x726,30
     349:	2074                	0x2074
     34b:	6e75                	bltz	a2,447 <.LASF75+0x5>
     34d:	6e676973          	csrrs	s2,0x6e6,14
     351:	6465                	bltz	s0,3c9 <.LASF79+0xb>
     353:	6920                	0x6920
     355:	746e                	bnez	s0,2cf <.LASF41+0x9>
	...

00000358 <.LASF35>:
     358:	5f70                	sw	a2,124(a4)
     35a:	6c66                	bnez	s0,452 <.LASF62+0x4>
     35c:	6761                	bltz	a4,3b4 <.LASF37+0x6>
     35e:	68630073          	0x68630073

00000360 <.LASF46>:
     360:	72616863          	bltu	sp,t1,a90 <.LASF10>
	...

00000365 <.LASF76>:
     365:	7375                	bltz	a4,2a1 <.LASF100+0x59>
     367:	7265                	bltz	a2,29f <.LASF100+0x57>
     369:	695f 666e 006f      	0x6f666e695f

0000036f <.LASF27>:
     36f:	6c45                	bltz	s0,45f <.LASF62+0x11>
     371:	3366                	jal	fffffd29 <.L0 +0xfffeba79>
     373:	5f32                	beqz	a4,33f <.LASF89+0xb>
     375:	6548                	slt	a0,a0,a0
     377:	6461                	bltz	s0,3cf <.LASF79+0x11>
     379:	7265                	bltz	a2,2b1 <.LASF3+0x8>
	...

0000037c <.LASF4>:
     37c:	6e69                	bltz	a2,456 <.LASF62+0x8>
     37e:	3374                	srai	t1,t1,0x3d
     380:	5f32                	beqz	a4,34c <.LASF6+0x7>
     382:	0074                	0x74

00000384 <.LASF80>:
     384:	6e72656b          	0x6e72656b
     388:	6c65                	bltz	s0,480 <.LASF49+0x9>
     38a:	705f 7968 5f73      	0x5f737968705f
     390:	6e65                	bltz	a2,488 <.LASF49+0x11>
     392:	0064                	0x64

00000394 <.LASF17>:
     394:	5f65                	sw	s9,188(sp)
     396:	6870                	0x6870
     398:	0066666f          	jal	a2,6639e <.L0 +0x520ee>

0000039c <.LASF42>:
     39c:	6976                	bnez	a0,458 <.LASF62+0xa>
     39e:	7472                	bnez	s0,2fa <.LASF12+0x1>
     3a0:	725f 6765 6f69      	0x6f696765725f
     3a6:	5f6e                	beqz	a4,3a0 <.LASF42+0x4>
     3a8:	72617473          	csrrc	s0,0x726,2
     3ac:	0074                	0x74

000003ae <.LASF37>:
     3ae:	6170                	0x6170
     3b0:	6464                	sltu	s0,s0,s1
     3b2:	5f72                	beqz	a4,38e <.LASF80+0xa>
     3b4:	0074                	0x74

000003b6 <.LASF18>:
     3b6:	5f65                	sw	s9,188(sp)
     3b8:	666f6873          	csrrs	a6,0x666,30
     3bc:	0066                	j	3f4 <.LASF94+0x8>

000003be <.LASF79>:
     3be:	6e72656b          	0x6e72656b
     3c2:	6c65                	bltz	s0,4ba <.LASF36+0x4>
     3c4:	705f 7968 5f73      	0x5f737968705f
     3ca:	72617473          	csrrc	s0,0x726,2
     3ce:	0074                	0x74

000003d0 <.LASF65>:
     3d0:	696d                	bltz	a0,48a <.LASF49+0x13>
     3d2:	5f6e                	beqz	a4,3cc <.LASF79+0xe>
     3d4:	6176                	bnez	a0,410 <.LASF51+0x1>
     3d6:	6464                	sltu	s0,s0,s1
     3d8:	0072                	j	3f4 <.LASF94+0x8>

000003da <.LASF54>:
     3da:	6f6c                	sltu	a1,a4,a1
     3dc:	676e                	bnez	a4,456 <.LASF62+0x8>
     3de:	7520                	0x7520
     3e0:	736e                	bnez	a4,31a <.LASF8+0x5>
     3e2:	6769                	bltz	a4,43c <.LASF22+0x2>
     3e4:	656e                	bnez	a0,45e <.LASF62+0x10>
     3e6:	2064                	0x2064
     3e8:	6e69                	bltz	a2,4c2 <.LASF68+0x4>
     3ea:	0074                	0x74

000003ec <.LASF94>:
     3ec:	615f 6372 6968      	0x69686372615f
     3f2:	6576                	bnez	a0,46e <.LASF45+0x8>
     3f4:	735f 6174 7472      	0x74726174735f
	...

000003fb <.LASF30>:
     3fb:	5f70                	sw	a2,124(a4)
     3fd:	7366666f          	jal	a2,66b33 <.L0 +0x52883>
     401:	7465                	bltz	s0,379 <.LASF27+0xa>
	...

00000404 <.LASF44>:
     404:	6976                	bnez	a0,4c0 <.LASF68+0x2>
     406:	7472                	bnez	s0,362 <.LASF46+0x2>
     408:	655f 746e 7972      	0x7972746e655f
	...

0000040f <.LASF51>:
     40f:	6e72656b          	0x6e72656b
     413:	6c65                	bltz	s0,50b <.LASF0+0x13>
     415:	695f 666e 006f      	0x6f666e695f

0000041b <.LASF64>:
     41b:	6564                	sltu	a0,a0,s1
     41d:	705f7473          	csrrc	s0,0x705,30
     421:	6461                	bltz	s0,479 <.LASF49+0x2>
     423:	7264                	0x7264
	...

00000426 <.LASF39>:
     426:	6d69                	bltz	a0,500 <.LASF0+0x8>
     428:	6761                	bltz	a4,480 <.LASF49+0x9>
     42a:	5f65                	sw	s9,188(sp)
     42c:	6e69                	bltz	a2,506 <.LASF0+0xe>
     42e:	6f66                	bnez	a4,526 <.LASF0+0x2e>
	...

00000431 <.LASF33>:
     431:	5f70                	sw	a2,124(a4)
     433:	6966                	bnez	a0,4eb <.LASF78+0x5>
     435:	656c                	sltu	a0,a0,a1
     437:	65007a73          	csrrc	s4,0x650,0

0000043a <.LASF22>:
     43a:	5f65                	sw	s9,188(sp)
     43c:	6870                	0x6870
     43e:	756e                	bnez	a0,3b8 <.LASF18+0x2>
     440:	006d                	0x6d

00000442 <.LASF75>:
     442:	6f6c                	sltu	a1,a4,a1
     444:	6461                	bltz	s0,49c <.LASF74+0x2>
     446:	695f 616d 6567      	0x6567616d695f
     44c:	6e650073          	0x6e650073

0000044e <.LASF62>:
     44e:	6e65                	bltz	a2,546 <.LASF1+0x9>
     450:	65727573          	csrrc	a0,0x657,4
     454:	705f 7968 5f73      	0x5f737968705f
     45a:	6172                	bnez	a0,476 <.LASF45+0x10>
     45c:	676e                	bnez	a4,4d6 <.LASF97>
     45e:	5f65                	sw	s9,188(sp)
     460:	6176                	bnez	a0,49c <.LASF74+0x2>
     462:	696c                	0x696c
     464:	0064                	0x64

00000466 <.LASF45>:
     466:	6870                	0x6870
     468:	7379                	bltz	a4,386 <.LASF80+0x2>
     46a:	765f 7269 5f74      	0x5f747269765f
     470:	7366666f          	jal	a2,66ba6 <.L0 +0x528f6>
     474:	7465                	bltz	s0,3ec <.LASF94>
	...

00000477 <.LASF49>:
     477:	6c65                	bltz	s0,56f <.LASF1+0x32>
     479:	3366                	jal	fffffe31 <.L0 +0xfffebb81>
     47b:	5f32                	beqz	a4,447 <.LASF75+0x5>
     47d:	50746567          	0x50746567
     481:	6f72                	bnez	a4,55d <.LASF1+0x20>
     483:	6d617267          	0x6d617267
     487:	6548                	slt	a0,a0,a0
     489:	6461                	bltz	s0,4e1 <.LASF97+0xb>
     48b:	7265                	bltz	a2,3c3 <.LASF79+0x5>
     48d:	7954                	0x7954
     48f:	6570                	sltu	a0,a0,a2
	...

00000492 <.LASF24>:
     492:	5f65                	sw	s9,188(sp)
     494:	756e6873          	csrrs	a6,0x756,28
     498:	006d                	0x6d

0000049a <.LASF74>:
     49a:	616d                	bltz	a0,4d4 <.LASF88+0xb>
     49c:	5f70                	sw	a2,124(a4)
     49e:	6e72656b          	0x6e72656b
     4a2:	6c65                	bltz	s0,59a <.LASF1+0x5d>
     4a4:	775f 6e69 6f64      	0x6f646e69775f
     4aa:	616d0077          	0x616d0077

000004ac <.LASF66>:
     4ac:	616d                	bltz	a0,4e6 <.LASF78>
     4ae:	5f78                	sw	a4,124(a4)
     4b0:	6176                	bnez	a0,4ec <.LASF78+0x6>
     4b2:	6464                	sltu	s0,s0,s1
     4b4:	0072                	j	4d0 <.LASF88+0x7>

000004b6 <.LASF36>:
     4b6:	5f70                	sw	a2,124(a4)
     4b8:	6c61                	bltz	s0,590 <.LASF1+0x53>
     4ba:	6769                	bltz	a4,514 <.LASF0+0x1c>
     4bc:	006e                	j	4f6 <.LASF83+0x5>

000004be <.LASF68>:
     4be:	6564                	sltu	a0,a0,s1
     4c0:	765f7473          	csrrc	s0,0x765,30
     4c4:	6461                	bltz	s0,51c <.LASF0+0x24>
     4c6:	7264                	0x7264
	...

000004c9 <.LASF88>:
     4c9:	6170                	0x6170
     4cb:	645f6567          	0x645f6567
     4cf:	7269                	bltz	a2,3e9 <.LASF54+0xf>
     4d1:	615f 7264 6b00      	0x6b007264615f

000004d6 <.LASF97>:
     4d6:	6e72656b          	0x6e72656b
     4da:	6c65                	bltz	s0,5d2 <.LASF26+0x6>
     4dc:	655f 666c 635f      	0x635f666c655f
     4e2:	6970                	0x6970
     4e4:	756e006f          	j	e0c3a <.L0 +0xcc98a>

000004e6 <.LASF78>:
     4e6:	756e                	bnez	a0,460 <.LASF62+0x12>
     4e8:	5f6d                	sw	s11,188(sp)
     4ea:	6d69                	bltz	a0,5c4 <.LASF29+0xa>
     4ec:	6761                	bltz	a4,544 <.LASF1+0x7>
     4ee:	7365                	bltz	a4,426 <.LASF39>
	...

000004f1 <.LASF83>:
     4f1:	6e75                	bltz	a2,5ed <.LASF27+0x3>
     4f3:	7375                	bltz	a4,42f <.LASF39+0x9>
     4f5:	6465                	bltz	s0,56d <.LASF1+0x30>
	...

000004f8 <.LASF0>:
     4f8:	20554e47          	fmsub.s	ft8,fa0,ft5,ft4,rmm
     4fc:	20313143          	fmadd.s	ft2,ft2,ft3,ft4,rup
     500:	2e35                	srli	t3,t3,0xd
     502:	2e32                	jal	c0e <.LASF64+0xb>
     504:	2030                	0x2030
     506:	6d2d                	bltz	a0,5f0 <.LASF27+0x6>
     508:	2d203233          	0x2d203233
     50c:	732d2067          	0x732d2067
     510:	6474                	sltu	s0,s0,a3
     512:	673d                	bltz	a4,580 <.LASF1+0x43>
     514:	756e                	bnez	a0,48e <.LASF49+0x17>
     516:	3131                	srli	sp,sp,0x2c
     518:	2d20                	srai	s10,s10,0x8
     51a:	6666                	bnez	a2,592 <.LASF1+0x55>
     51c:	6572                	bnez	a0,578 <.LASF1+0x3b>
     51e:	7365                	bltz	a4,456 <.LASF62+0x8>
     520:	6174                	0x6174
     522:	646e                	bnez	s0,59c <.LASF1+0x5f>
     524:	6e69                	bltz	a2,5fe <.LASF27+0x14>
     526:	662d2067          	0x662d2067
     52a:	6f6e                	bnez	a4,624 <.LASF27+0x3a>
     52c:	732d                	bltz	a4,456 <.LASF62+0x8>
     52e:	6174                	0x6174
     530:	702d6b63          	bltu	s10,sp,c46 <.LASF60+0x4>
     534:	6f72                	bnez	a4,610 <.LASF27+0x26>
     536:	6574                	sltu	a0,a0,a3
     538:	726f7463          	bleu	t1,t5,c60 <.LASF38+0x9>
	...

0000053d <.LASF1>:
     53d:	6d6f682f          	0x6d6f682f
     541:	2f65                	srli	t5,t5,0x19
     543:	6568                	sltu	a0,a0,a0
     545:	6d616873          	csrrs	a6,0x6d6,2
     549:	6f72502f          	0x6f72502f
     54d:	656a                	bnez	a0,5a7 <.LASF2+0x5>
     54f:	2f737463          	bleu	s7,t1,837 <.LASF9+0x1>
     553:	344c6573          	csrrs	a0,mip,24
     557:	4c65732f          	0x4c65732f
     55b:	7234                	0x7234
     55d:	7369                	bltz	a4,477 <.LASF49>
     55f:	6d2d7663          	bleu	s2,s10,c2b <.LASF10+0x4>
     563:	6c75                	bltz	s0,65f <.LASF3+0xb>
     565:	6974                	0x6974
     567:	6e72656b          	0x6e72656b
     56b:	6c65                	bltz	s0,663 <.LASF15+0x1>
     56d:	6f6f742f          	0x6f6f742f
     571:	736c                	0x736c
     573:	6d6f632f          	0x6d6f632f
     577:	6f6d                	bltz	a4,671 <.LASF4+0xa>
     579:	2f6e                	jal	d33 <.LASF56+0x13>
     57b:	2e2e                	jal	ca5 <.LASF71+0x33>
     57d:	666c652f          	0x666c652f
     581:	6f6c                	sltu	a1,a4,a1
     583:	6461                	bltz	s0,5db <.LASF26+0xf>
     585:	7265                	bltz	a2,4bd <.LASF36+0x7>
     587:	6372732f          	0x6372732f
     58b:	6372612f          	0x6372612f
     58f:	2d68                	srai	s10,s10,0x1a
     591:	6972                	bnez	a0,62d <.LASF27+0x43>
     593:	2f766373          	csrrs	t1,0x2f7,12
     597:	6564                	sltu	a0,a0,s1
     599:	6166                	bnez	a0,5d1 <.LASF26+0x5>
     59b:	6c75                	bltz	s0,697 <.LASF8+0x8>
     59d:	7374                	0x7374
     59f:	632e                	bnez	a4,5c9 <.LASF29+0xf>
	...

000005a2 <.LASF2>:
     5a2:	6261                	bltz	a2,5ba <.LASF29>
     5a4:	0074726f          	jal	tp,47daa <.L0 +0x33afa>

000005a8 <.LASF23>:
     5a8:	756e                	bnez	a0,522 <.LASF0+0x2a>
     5aa:	5f6d                	sw	s11,188(sp)
     5ac:	72616863          	bltu	sp,t1,cdc <.LASF14+0x4>
     5b0:	72705f73          	csrrw	t5,0x727,0
     5b4:	6e69                	bltz	a2,68e <.LASF18+0x6>
     5b6:	6574                	sltu	a0,a0,a3
     5b8:	0064                	0x64

000005ba <.LASF29>:
     5ba:	5f5f 7562 6c69      	0x6c6975625f5f
     5c0:	6974                	0x6974
     5c2:	5f6e                	beqz	a4,5bc <.LASF29+0x2>
     5c4:	6176                	bnez	a0,600 <.LASF27+0x16>
     5c6:	6c5f 7369 0074      	0x7473696c5f

000005cc <.LASF26>:
     5cc:	69727073          	csrci	0x697,4
     5d0:	746e                	bnez	s0,54a <.LASF1+0xd>
     5d2:	5f66                	beqz	a4,5ca <.LASF29+0x10>
     5d4:	74697277          	0x74697277
     5d8:	5f65                	sw	s9,188(sp)
     5da:	72616863          	bltu	sp,t1,d0a <.LASF53+0x12>
	...

000005df <.LASF11>:
     5df:	74697277          	0x74697277
     5e3:	5f65                	sw	s9,188(sp)
     5e5:	72616863          	bltu	sp,t1,d15 <.LASF24>
	...

000005ea <.LASF27>:
     5ea:	20554e47          	fmsub.s	ft8,fa0,ft5,ft4,rmm
     5ee:	20313143          	fmadd.s	ft2,ft2,ft3,ft4,rup
     5f2:	2e35                	srli	t3,t3,0xd
     5f4:	2e32                	jal	d00 <.LASF53+0x8>
     5f6:	2030                	0x2030
     5f8:	6d2d                	bltz	a0,6e2 <.LASF2+0x4>
     5fa:	2d203233          	0x2d203233
     5fe:	732d2067          	0x732d2067
     602:	6474                	sltu	s0,s0,a3
     604:	673d                	bltz	a4,672 <.LASF4+0xb>
     606:	756e                	bnez	a0,580 <.LASF1+0x43>
     608:	3131                	srli	sp,sp,0x2c
     60a:	2d20                	srai	s10,s10,0x8
     60c:	6666                	bnez	a2,684 <.LASF17+0x5>
     60e:	6572                	bnez	a0,66a <.LASF4+0x3>
     610:	7365                	bltz	a4,548 <.LASF1+0xb>
     612:	6174                	0x6174
     614:	646e                	bnez	s0,68e <.LASF18+0x6>
     616:	6e69                	bltz	a2,6f0 <.LASF14+0x4>
     618:	662d2067          	0x662d2067
     61c:	6f6e                	bnez	a4,716 <.LASF22+0x5>
     61e:	732d                	bltz	a4,548 <.LASF1+0xb>
     620:	6174                	0x6174
     622:	702d6b63          	bltu	s10,sp,d38 <.LASF56+0x18>
     626:	6f72                	bnez	a4,702 <.LASF1>
     628:	6574                	sltu	a0,a0,a3
     62a:	726f7463          	bleu	t1,t5,d52 <.LASF4+0xf>
	...

0000062f <.LASF21>:
     62f:	7261                	bltz	a2,547 <.LASF1+0xa>
     631:	775f6863          	bltu	t5,s5,da1 <.LASF72+0x42>
     635:	6972                	bnez	a0,6d1 <.LASF12+0x4>
     637:	6574                	sltu	a0,a0,a3
     639:	635f 6168 0072      	0x726168635f

0000063f <.LASF13>:
     63f:	74697277          	0x74697277
     643:	5f65                	sw	s9,188(sp)
     645:	69727473          	csrrc	s0,0x697,4
     649:	676e                	bnez	a4,6c3 <.LASF20+0x2>
	...

0000064c <.LASF7>:
     64c:	6176                	bnez	a0,688 <.LASF18>
     64e:	6c5f 7369 0074      	0x7473696c5f

00000654 <.LASF3>:
     654:	6e75                	bltz	a2,750 <.LASF28>
     656:	6e676973          	csrrs	s2,0x6e6,14
     65a:	6465                	bltz	s0,6d2 <.LASF12+0x5>
     65c:	6320                	sra	a4,a4,s0
     65e:	6168                	0x6168
     660:	0072                	j	67c <.LASF9+0x2>

00000662 <.LASF15>:
     662:	6162                	bnez	a0,67a <.LASF9>
     664:	73006573          	csrrs	a0,0x730,0

00000667 <.LASF4>:
     667:	726f6873          	csrrs	a6,0x726,30
     66b:	2074                	0x2074
     66d:	6e75                	bltz	a2,769 <.LASF28+0x19>
     66f:	6e676973          	csrrs	s2,0x6e6,14
     673:	6465                	bltz	s0,6eb <.LASF2+0xd>
     675:	6920                	0x6920
     677:	746e                	bnez	s0,5f1 <.LASF27+0x7>
	...

0000067a <.LASF9>:
     67a:	7562                	bnez	a0,5d2 <.LASF26+0x6>
     67c:	6666                	bnez	a2,6f4 <.LASF14+0x8>
	...

0000067f <.LASF17>:
     67f:	7876                	bnez	s0,63b <.LASF21+0xc>
     681:	7270                	0x7270
     683:	6e69                	bltz	a2,75d <.LASF28+0xd>
     685:	6674                	sltu	a2,a2,a3
	...

00000688 <.LASF18>:
     688:	6f66                	bnez	a4,780 <.LASF28+0x30>
     68a:	6d72                	bnez	a0,766 <.LASF28+0x16>
     68c:	7461                	bltz	s0,5e4 <.LASF11+0x5>
	...

0000068f <.LASF8>:
     68f:	74697277          	0x74697277
     693:	5f65                	sw	s9,188(sp)
     695:	72616863          	bltu	sp,t1,dc5 <.LASF27>
     699:	665f 006e 6e75      	0x6e75006e665f

0000069d <.LASF5>:
     69d:	6e75                	bltz	a2,799 <.LASF28+0x49>
     69f:	6e676973          	csrrs	s2,0x6e6,14
     6a3:	6465                	bltz	s0,71b <.LASF22+0xa>
     6a5:	6920                	0x6920
     6a7:	746e                	bnez	s0,621 <.LASF27+0x37>
	...

000006aa <.LASF6>:
     6aa:	6f6c                	sltu	a1,a4,a1
     6ac:	676e                	bnez	a4,726 <.LASF22+0x15>
     6ae:	6c20                	srl	s0,s0,s0
     6b0:	20676e6f          	jal	t3,768b6 <.L0 +0x62606>
     6b4:	6e75                	bltz	a2,7b0 <.LASF28+0x60>
     6b6:	6e676973          	csrrs	s2,0x6e6,14
     6ba:	6465                	bltz	s0,732 <.LASF30+0xb>
     6bc:	6920                	0x6920
     6be:	746e                	bnez	s0,638 <.LASF21+0x9>
	...

000006c1 <.LASF20>:
     6c1:	7365                	bltz	a4,5f9 <.LASF27+0xf>
     6c3:	65706163          	bltu	zero,s7,d05 <.LASF53+0xd>
     6c7:	6d5f 646f 0065      	0x65646f6d5f

000006cd <.LASF12>:
     6cd:	6170                	0x6170
     6cf:	6c79                	bltz	s0,7ad <.LASF28+0x5d>
     6d1:	0064616f          	jal	sp,466d7 <.L0 +0x32427>

000006d5 <.LASF16>:
     6d5:	657a6973          	csrrs	s2,0x657,20
     6d9:	7974                	0x7974
     6db:	6570                	sltu	a0,a0,a2
	...

000006de <.LASF2>:
     6de:	6f6c                	sltu	a1,a4,a1
     6e0:	676e                	bnez	a4,75a <.LASF28+0xa>
     6e2:	6c20                	srl	s0,s0,s0
     6e4:	20676e6f          	jal	t3,768ea <.L0 +0x6263a>
     6e8:	6e69                	bltz	a2,7c2 <.LASF13+0xf>
     6ea:	0074                	0x74

000006ec <.LASF14>:
     6ec:	74697277          	0x74697277
     6f0:	5f65                	sw	s9,188(sp)
     6f2:	756e                	bnez	a0,66c <.LASF4+0x5>
     6f4:	006d                	0x6d

000006f6 <.LASF10>:
     6f6:	72616863          	bltu	sp,t1,e26 <.LASF37+0x5>
	...

000006fb <.LASF24>:
     6fb:	7270                	0x7270
     6fd:	6e69                	bltz	a2,7d7 <.LASF13+0x24>
     6ff:	6674                	sltu	a2,a2,a3
	...

00000702 <.LASF1>:
     702:	726f6873          	csrrs	a6,0x726,30
     706:	2074                	0x2074
     708:	6e69                	bltz	a2,7e2 <.LASF13+0x2f>
     70a:	0074                	0x74

0000070c <.LASF19>:
     70c:	7261                	bltz	a2,624 <.LASF27+0x3a>
     70e:	6e007367          	0x6e007367

00000711 <.LASF22>:
     711:	756e                	bnez	a0,68b <.LASF18+0x3>
     713:	5f6d                	sw	s11,188(sp)
     715:	72616863          	bltu	sp,t1,e45 <.LASF61+0x8>
     719:	72705f73          	csrrw	t5,0x727,0
     71d:	6e69                	bltz	a2,7f7 <.LASF13+0x44>
     71f:	6574                	sltu	a0,a0,a3
     721:	5f64                	sw	s1,124(a4)
     723:	7470                	0x7470
     725:	0072                	j	741 <.LASF0+0x5>

00000727 <.LASF30>:
     727:	69727073          	csrci	0x697,4
     72b:	746e                	bnez	s0,6a5 <.LASF5+0x8>
     72d:	5f66                	beqz	a4,725 <.LASF22+0x14>
     72f:	6170                	0x6170
     731:	6c79                	bltz	s0,80f <.LASF8+0x5>
     733:	0064616f          	jal	sp,46739 <.L0 +0x32489>

00000737 <.LASF25>:
     737:	7570                	0x7570
     739:	7374                	0x7374
	...

0000073c <.LASF0>:
     73c:	6e676973          	csrrs	s2,0x6e6,14
     740:	6465                	bltz	s0,7b8 <.LASF13+0x5>
     742:	6320                	sra	a4,a4,s0
     744:	6168                	0x6168
     746:	0072                	j	762 <.LASF28+0x12>

00000748 <.LASF31>:
     748:	69727073          	csrci	0x697,4
     74c:	746e                	bnez	s0,6c6 <.LASF20+0x5>
     74e:	0066                	j	786 <.LASF28+0x36>

00000750 <.LASF28>:
     750:	6d6f682f          	0x6d6f682f
     754:	2f65                	srli	t5,t5,0x19
     756:	6568                	sltu	a0,a0,a0
     758:	6d616873          	csrrs	a6,0x6d6,2
     75c:	6f72502f          	0x6f72502f
     760:	656a                	bnez	a0,7ba <.LASF13+0x7>
     762:	2f737463          	bleu	s7,t1,a4a <.LASF27+0x17>
     766:	344c6573          	csrrs	a0,mip,24
     76a:	4c65732f          	0x4c65732f
     76e:	7234                	0x7234
     770:	7369                	bltz	a4,68a <.LASF18+0x2>
     772:	6d2d7663          	bleu	s2,s10,e3e <.LASF61+0x1>
     776:	6c75                	bltz	s0,872 <.LASF4+0x12>
     778:	6974                	0x6974
     77a:	6e72656b          	0x6e72656b
     77e:	6c65                	bltz	s0,876 <.LASF0+0x3>
     780:	6f6f742f          	0x6f6f742f
     784:	736c                	0x736c
     786:	6d6f632f          	0x6d6f632f
     78a:	6f6d                	bltz	a4,884 <.LASF14+0x5>
     78c:	2f6e                	jal	f46 <.LASF57+0x3>
     78e:	2e2e                	jal	eb8 <.LASF12+0x1>
     790:	666c652f          	0x666c652f
     794:	6f6c                	sltu	a1,a4,a1
     796:	6461                	bltz	s0,7ee <.LASF13+0x3b>
     798:	7265                	bltz	a2,6d0 <.LASF12+0x3>
     79a:	6372732f          	0x6372732f
     79e:	6372612f          	0x6372612f
     7a2:	2d68                	srai	s10,s10,0x1a
     7a4:	6972                	bnez	a0,840 <.LASF7+0x5>
     7a6:	2f766373          	csrrs	t1,0x2f7,12
     7aa:	7270                	0x7270
     7ac:	6e69                	bltz	a2,886 <.LASF14+0x7>
     7ae:	6674                	sltu	a2,a2,a3
     7b0:	632e                	bnez	a4,7da <.LASF13+0x27>
	...

000007b3 <.LASF13>:
     7b3:	20554e47          	fmsub.s	ft8,fa0,ft5,ft4,rmm
     7b7:	20313143          	fmadd.s	ft2,ft2,ft3,ft4,rup
     7bb:	2e35                	srli	t3,t3,0xd
     7bd:	2e32                	jal	ec9 <.LASF13+0x1>
     7bf:	2030                	0x2030
     7c1:	6d2d                	bltz	a0,8ab <.LASF14+0x2c>
     7c3:	2d203233          	0x2d203233
     7c7:	732d2067          	0x732d2067
     7cb:	6474                	sltu	s0,s0,a3
     7cd:	673d                	bltz	a4,83b <.LASF7>
     7cf:	756e                	bnez	a0,749 <.LASF31+0x1>
     7d1:	3131                	srli	sp,sp,0x2c
     7d3:	2d20                	srai	s10,s10,0x8
     7d5:	6666                	bnez	a2,84d <.LASF15+0x2>
     7d7:	6572                	bnez	a0,833 <.LASF3+0xb>
     7d9:	7365                	bltz	a4,711 <.LASF22>
     7db:	6174                	0x6174
     7dd:	646e                	bnez	s0,857 <.LASF2+0x5>
     7df:	6e69                	bltz	a2,8b9 <.LASF14+0x3a>
     7e1:	662d2067          	0x662d2067
     7e5:	6f6e                	bnez	a4,8df <.LASF14+0x60>
     7e7:	732d                	bltz	a4,711 <.LASF22>
     7e9:	6174                	0x6174
     7eb:	702d6b63          	bltu	s10,sp,f01 <.LASF73+0x4>
     7ef:	6f72                	bnez	a4,8cb <.LASF14+0x4c>
     7f1:	6574                	sltu	a0,a0,a3
     7f3:	726f7463          	bleu	t1,t5,f1b <.LASF52>
	...

000007f8 <.LASF5>:
     7f8:	6e75                	bltz	a2,8f4 <.LASF7+0x1>
     7fa:	6e676973          	csrrs	s2,0x6e6,14
     7fe:	6465                	bltz	s0,876 <.LASF0+0x3>
     800:	6920                	0x6920
     802:	746e                	bnez	s0,77c <.LASF28+0x2c>
	...

00000805 <.LASF12>:
     805:	6564                	sltu	a0,a0,s1
     807:	73007473          	csrrc	s0,0x730,0

0000080a <.LASF8>:
     80a:	657a6973          	csrrs	s2,0x657,20
     80e:	745f 6c00 6e6f      	0x6e6f6c00745f

00000811 <.LASF6>:
     811:	6f6c                	sltu	a1,a4,a1
     813:	676e                	bnez	a4,88d <.LASF14+0xe>
     815:	6c20                	srl	s0,s0,s0
     817:	20676e6f          	jal	t3,76a1d <.L0 +0x6276d>
     81b:	6e75                	bltz	a2,917 <.LASF7+0x24>
     81d:	6e676973          	csrrs	s2,0x6e6,14
     821:	6465                	bltz	s0,899 <.LASF14+0x1a>
     823:	6920                	0x6920
     825:	746e                	bnez	s0,79f <.LASF28+0x4f>
	...

00000828 <.LASF3>:
     828:	6e75                	bltz	a2,924 <.LASF7+0x31>
     82a:	6e676973          	csrrs	s2,0x6e6,14
     82e:	6465                	bltz	s0,8a6 <.LASF14+0x27>
     830:	6320                	sra	a4,a4,s0
     832:	6168                	0x6168
     834:	0072                	j	850 <.LASF15+0x5>

00000836 <.LASF9>:
     836:	72616863          	bltu	sp,t1,f66 <.LASF5+0x6>
	...

0000083b <.LASF7>:
     83b:	6975                	bltz	a0,8f7 <.LASF7+0x4>
     83d:	746e                	bnez	s0,7b7 <.LASF13+0x4>
     83f:	745f3233          	0x745f3233
	...

00000844 <.LASF10>:
     844:	63727473          	csrrc	s0,0x637,4
     848:	706d                	bltz	s0,782 <.LASF28+0x32>
	...

0000084b <.LASF15>:
     84b:	656d                	bltz	a0,8c5 <.LASF14+0x46>
     84d:	636d                	bltz	a4,887 <.LASF14+0x8>
     84f:	7970                	0x7970
	...

00000852 <.LASF2>:
     852:	6f6c                	sltu	a1,a4,a1
     854:	676e                	bnez	a4,8ce <.LASF14+0x4f>
     856:	6c20                	srl	s0,s0,s0
     858:	20676e6f          	jal	t3,76a5e <.L0 +0x627ae>
     85c:	6e69                	bltz	a2,936 <.LASF7+0x43>
     85e:	0074                	0x74

00000860 <.LASF4>:
     860:	726f6873          	csrrs	a6,0x726,30
     864:	2074                	0x2074
     866:	6e75                	bltz	a2,962 <.LASF6+0xf>
     868:	6e676973          	csrrs	s2,0x6e6,14
     86c:	6465                	bltz	s0,8e4 <.LASF1+0x2>
     86e:	6920                	0x6920
     870:	746e                	bnez	s0,7ea <.LASF13+0x37>
	...

00000873 <.LASF0>:
     873:	6e676973          	csrrs	s2,0x6e6,14
     877:	6465                	bltz	s0,8ef <.LASF11+0x3>
     879:	6320                	sra	a4,a4,s0
     87b:	6168                	0x6168
     87d:	0072                	j	899 <.LASF14+0x1a>

0000087f <.LASF14>:
     87f:	6d6f682f          	0x6d6f682f
     883:	2f65                	srli	t5,t5,0x19
     885:	6568                	sltu	a0,a0,a0
     887:	6d616873          	csrrs	a6,0x6d6,2
     88b:	6f72502f          	0x6f72502f
     88f:	656a                	bnez	a0,8e9 <.LASF1+0x7>
     891:	2f737463          	bleu	s7,t1,b79 <.LASF19+0x3>
     895:	344c6573          	csrrs	a0,mip,24
     899:	4c65732f          	0x4c65732f
     89d:	7234                	0x7234
     89f:	7369                	bltz	a4,7b9 <.LASF13+0x6>
     8a1:	6d2d7663          	bleu	s2,s10,f6d <.LASF6+0x4>
     8a5:	6c75                	bltz	s0,9a1 <.LASF8+0x1b>
     8a7:	6974                	0x6974
     8a9:	6e72656b          	0x6e72656b
     8ad:	6c65                	bltz	s0,9a5 <.LASF8+0x1f>
     8af:	6f6f742f          	0x6f6f742f
     8b3:	736c                	0x736c
     8b5:	6d6f632f          	0x6d6f632f
     8b9:	6f6d                	bltz	a4,9b3 <.LASF8+0x2d>
     8bb:	2f6e                	jal	1075 <.LASF72+0x1e>
     8bd:	2e2e                	jal	fe7 <.LASF62+0x13>
     8bf:	666c652f          	0x666c652f
     8c3:	6f6c                	sltu	a1,a4,a1
     8c5:	6461                	bltz	s0,91d <.LASF7+0x2a>
     8c7:	7265                	bltz	a2,7ff <.LASF5+0x7>
     8c9:	6372732f          	0x6372732f
     8cd:	6372612f          	0x6372612f
     8d1:	2d68                	srai	s10,s10,0x1a
     8d3:	6972                	bnez	a0,96f <.LASF3+0x5>
     8d5:	2f766373          	csrrs	t1,0x2f7,12
     8d9:	69727473          	csrrc	s0,0x697,4
     8dd:	676e                	bnez	a4,957 <.LASF6+0x4>
     8df:	632e                	bnez	a4,909 <.LASF7+0x16>
	...

000008e2 <.LASF1>:
     8e2:	726f6873          	csrrs	a6,0x726,30
     8e6:	2074                	0x2074
     8e8:	6e69                	bltz	a2,9c2 <.LASF8+0x3c>
     8ea:	0074                	0x74

000008ec <.LASF11>:
     8ec:	656d                	bltz	a0,966 <.LASF6+0x13>
     8ee:	736d                	bltz	a4,828 <.LASF3>
     8f0:	7465                	bltz	s0,868 <.LASF4+0x8>
	...

000008f3 <.LASF7>:
     8f3:	20554e47          	fmsub.s	ft8,fa0,ft5,ft4,rmm
     8f7:	20313143          	fmadd.s	ft2,ft2,ft3,ft4,rup
     8fb:	2e35                	srli	t3,t3,0xd
     8fd:	2e32                	jal	1009 <.LASF2+0xa>
     8ff:	2030                	0x2030
     901:	6d2d                	bltz	a0,9eb <.LASF8+0x65>
     903:	2d203233          	0x2d203233
     907:	732d2067          	0x732d2067
     90b:	6474                	sltu	s0,s0,a3
     90d:	673d                	bltz	a4,97b <.LASF2+0x3>
     90f:	756e                	bnez	a0,889 <.LASF14+0xa>
     911:	3131                	srli	sp,sp,0x2c
     913:	2d20                	srai	s10,s10,0x8
     915:	6666                	bnez	a2,98d <.LASF8+0x7>
     917:	6572                	bnez	a0,973 <.LASF3+0x9>
     919:	7365                	bltz	a4,851 <.LASF15+0x6>
     91b:	6174                	0x6174
     91d:	646e                	bnez	s0,997 <.LASF8+0x11>
     91f:	6e69                	bltz	a2,9f9 <.LASF8+0x73>
     921:	662d2067          	0x662d2067
     925:	6f6e                	bnez	a4,a1f <.LASF1+0x5>
     927:	732d                	bltz	a4,851 <.LASF15+0x6>
     929:	6174                	0x6174
     92b:	702d6b63          	bltu	s10,sp,1041 <.LASF49+0x2>
     92f:	6f72                	bnez	a4,a0b <.LASF4+0x10>
     931:	6574                	sltu	a0,a0,a3
     933:	726f7463          	bleu	t1,t5,105b <.LASF72+0x4>
	...

00000938 <.LASF5>:
     938:	6e75                	bltz	a2,a34 <.LASF27+0x1>
     93a:	6e676973          	csrrs	s2,0x6e6,14
     93e:	6465                	bltz	s0,9b6 <.LASF8+0x30>
     940:	6920                	0x6920
     942:	746e                	bnez	s0,8bc <.LASF14+0x3d>
	...

00000945 <.LASF9>:
     945:	6c70                	sltu	a2,s0,a2
     947:	7461                	bltz	s0,89f <.LASF14+0x20>
     949:	6f66                	bnez	a4,a41 <.LASF27+0xe>
     94b:	6d72                	bnez	a0,a27 <.LASF24+0x3>
     94d:	695f 696e 0074      	0x74696e695f

00000953 <.LASF6>:
     953:	6f6c                	sltu	a1,a4,a1
     955:	676e                	bnez	a4,9cf <.LASF8+0x49>
     957:	6c20                	srl	s0,s0,s0
     959:	20676e6f          	jal	t3,76b5f <.L0 +0x628af>
     95d:	6e75                	bltz	a2,a59 <.LASF27+0x26>
     95f:	6e676973          	csrrs	s2,0x6e6,14
     963:	6465                	bltz	s0,9db <.LASF8+0x55>
     965:	6920                	0x6920
     967:	746e                	bnez	s0,8e1 <.LASF14+0x62>
	...

0000096a <.LASF3>:
     96a:	6e75                	bltz	a2,a66 <.LASF27+0x33>
     96c:	6e676973          	csrrs	s2,0x6e6,14
     970:	6465                	bltz	s0,9e8 <.LASF8+0x62>
     972:	6320                	sra	a4,a4,s0
     974:	6168                	0x6168
     976:	0072                	j	992 <.LASF8+0xc>

00000978 <.LASF2>:
     978:	6f6c                	sltu	a1,a4,a1
     97a:	676e                	bnez	a4,9f4 <.LASF8+0x6e>
     97c:	6c20                	srl	s0,s0,s0
     97e:	20676e6f          	jal	t3,76b84 <.L0 +0x628d4>
     982:	6e69                	bltz	a2,a5c <.LASF27+0x29>
     984:	0074                	0x74

00000986 <.LASF8>:
     986:	6d6f682f          	0x6d6f682f
     98a:	2f65                	srli	t5,t5,0x19
     98c:	6568                	sltu	a0,a0,a0
     98e:	6d616873          	csrrs	a6,0x6d6,2
     992:	6f72502f          	0x6f72502f
     996:	656a                	bnez	a0,9f0 <.LASF8+0x6a>
     998:	2f737463          	bleu	s7,t1,c80 <.LASF71+0xe>
     99c:	344c6573          	csrrs	a0,mip,24
     9a0:	4c65732f          	0x4c65732f
     9a4:	7234                	0x7234
     9a6:	7369                	bltz	a4,8c0 <.LASF14+0x41>
     9a8:	6d2d7663          	bleu	s2,s10,1074 <.LASF72+0x1d>
     9ac:	6c75                	bltz	s0,aa8 <.LASF15>
     9ae:	6974                	0x6974
     9b0:	6e72656b          	0x6e72656b
     9b4:	6c65                	bltz	s0,aac <.LASF15+0x4>
     9b6:	6f6f742f          	0x6f6f742f
     9ba:	736c                	0x736c
     9bc:	6d6f632f          	0x6d6f632f
     9c0:	6f6d                	bltz	a4,aba <.LASF4+0xc>
     9c2:	2f6e                	jal	117c <.LASF54+0x11>
     9c4:	2e2e                	jal	10ee <.LASF26+0x6>
     9c6:	666c652f          	0x666c652f
     9ca:	6f6c                	sltu	a1,a4,a1
     9cc:	6461                	bltz	s0,a24 <.LASF24>
     9ce:	7265                	bltz	a2,906 <.LASF7+0x13>
     9d0:	6372732f          	0x6372732f
     9d4:	6372612f          	0x6372612f
     9d8:	2d68                	srai	s10,s10,0x1a
     9da:	6972                	bnez	a0,a76 <.LASF27+0x43>
     9dc:	2f766373          	csrrs	t1,0x2f7,12
     9e0:	6c70                	sltu	a2,s0,a2
     9e2:	7461                	bltz	s0,93a <.LASF5+0x2>
     9e4:	732d                	bltz	a4,90e <.LASF7+0x1b>
     9e6:	6970                	0x6970
     9e8:	702f656b          	0x702f656b
     9ec:	616c                	0x616c
     9ee:	6674                	sltu	a2,a2,a3
     9f0:	5f6d726f          	jal	tp,d7fe6 <.L0 +0xc3d36>
     9f4:	6e69                	bltz	a2,ace <.LASF28+0xd>
     9f6:	7469                	bltz	s0,950 <.LASF9+0xb>
     9f8:	632e                	bnez	a4,a22 <.LASF1+0x8>
	...

000009fb <.LASF4>:
     9fb:	726f6873          	csrrs	a6,0x726,30
     9ff:	2074                	0x2074
     a01:	6e75                	bltz	a2,afd <.LASF28+0x3c>
     a03:	6e676973          	csrrs	s2,0x6e6,14
     a07:	6465                	bltz	s0,a7f <.LASF7+0x7>
     a09:	6920                	0x6920
     a0b:	746e                	bnez	s0,985 <.LASF2+0xd>
	...

00000a0e <.LASF0>:
     a0e:	6e676973          	csrrs	s2,0x6e6,14
     a12:	6465                	bltz	s0,a8a <.LASF16+0x9>
     a14:	6320                	sra	a4,a4,s0
     a16:	6168                	0x6168
     a18:	0072                	j	a34 <.LASF27+0x1>

00000a1a <.LASF1>:
     a1a:	726f6873          	csrrs	a6,0x726,30
     a1e:	2074                	0x2074
     a20:	6e69                	bltz	a2,afa <.LASF28+0x39>
     a22:	0074                	0x74

00000a24 <.LASF24>:
     a24:	65727473          	csrrc	s0,0x657,4
     a28:	6d61                	bltz	a0,b00 <.LASF28+0x3f>
	...

00000a2b <.LASF13>:
     a2b:	63737973          	csrrc	s2,0x637,6
     a2f:	6c61                	bltz	s0,b07 <.LASF28+0x46>
     a31:	006c                	0x6c

00000a33 <.LASF27>:
     a33:	20554e47          	fmsub.s	ft8,fa0,ft5,ft4,rmm
     a37:	20313143          	fmadd.s	ft2,ft2,ft3,ft4,rup
     a3b:	2e35                	srli	t3,t3,0xd
     a3d:	2e32                	jal	1149 <.LASF71+0x7>
     a3f:	2030                	0x2030
     a41:	6d2d                	bltz	a0,b2b <.LASF28+0x6a>
     a43:	2d203233          	0x2d203233
     a47:	732d2067          	0x732d2067
     a4b:	6474                	sltu	s0,s0,a3
     a4d:	673d                	bltz	a4,abb <.LASF4+0xd>
     a4f:	756e                	bnez	a0,9c9 <.LASF8+0x43>
     a51:	3131                	srli	sp,sp,0x2c
     a53:	2d20                	srai	s10,s10,0x8
     a55:	6666                	bnez	a2,acd <.LASF28+0xc>
     a57:	6572                	bnez	a0,ab3 <.LASF4+0x5>
     a59:	7365                	bltz	a4,991 <.LASF8+0xb>
     a5b:	6174                	0x6174
     a5d:	646e                	bnez	s0,ad7 <.LASF28+0x16>
     a5f:	6e69                	bltz	a2,b39 <.LASF21+0x7>
     a61:	662d2067          	0x662d2067
     a65:	6f6e                	bnez	a4,b5f <.LASF8+0x5>
     a67:	732d                	bltz	a4,991 <.LASF8+0xb>
     a69:	6174                	0x6174
     a6b:	702d6b63          	bltu	s10,sp,1181 <.LASF70+0x1>
     a6f:	6f72                	bnez	a4,b4b <.LASF5+0x5>
     a71:	6574                	sltu	a0,a0,a3
     a73:	726f7463          	bleu	t1,t5,119b <.LASF46+0x6>
	...

00000a78 <.LASF7>:
     a78:	6975                	bltz	a0,b34 <.LASF21+0x2>
     a7a:	746e                	bnez	s0,9f4 <.LASF8+0x6e>
     a7c:	3436                	jal	4a8 <.LASF74+0xe>
     a7e:	745f 6d00 6761      	0x67616d00745f

00000a81 <.LASF16>:
     a81:	616d                	bltz	a0,abb <.LASF4+0xd>
     a83:	5f636967          	0x5f636967
     a87:	656d                	bltz	a0,b01 <.LASF28+0x40>
     a89:	006d                	0x6d

00000a8b <.LASF9>:
     a8b:	7261                	bltz	a2,9a3 <.LASF8+0x1d>
     a8d:	61003067          	0x61003067

00000a90 <.LASF10>:
     a90:	7261                	bltz	a2,9a8 <.LASF8+0x22>
     a92:	61003167          	0x61003167

00000a95 <.LASF11>:
     a95:	7261                	bltz	a2,9ad <.LASF8+0x27>
     a97:	75003267          	0x75003267

00000a9a <.LASF3>:
     a9a:	6e75                	bltz	a2,b96 <.LASF18+0x2>
     a9c:	6e676973          	csrrs	s2,0x6e6,14
     aa0:	6465                	bltz	s0,b18 <.LASF28+0x57>
     aa2:	6320                	sra	a4,a4,s0
     aa4:	6168                	0x6168
     aa6:	0072                	j	ac2 <.LASF28+0x1>

00000aa8 <.LASF15>:
     aa8:	63696877          	0x63696877
     aac:	0068                	0x68

00000aae <.LASF4>:
     aae:	726f6873          	csrrs	a6,0x726,30
     ab2:	2074                	0x2074
     ab4:	6e75                	bltz	a2,bb0 <.LASF23>
     ab6:	6e676973          	csrrs	s2,0x6e6,14
     aba:	6465                	bltz	s0,b32 <.LASF21>
     abc:	6920                	0x6920
     abe:	746e                	bnez	s0,a38 <.LASF27+0x5>
	...

00000ac1 <.LASF28>:
     ac1:	6d6f682f          	0x6d6f682f
     ac5:	2f65                	srli	t5,t5,0x19
     ac7:	6568                	sltu	a0,a0,a0
     ac9:	6d616873          	csrrs	a6,0x6d6,2
     acd:	6f72502f          	0x6f72502f
     ad1:	656a                	bnez	a0,b2b <.LASF28+0x6a>
     ad3:	2f737463          	bleu	s7,t1,dbb <.LASF72+0x5c>
     ad7:	344c6573          	csrrs	a0,mip,24
     adb:	4c65732f          	0x4c65732f
     adf:	7234                	0x7234
     ae1:	7369                	bltz	a4,9fb <.LASF4>
     ae3:	6d2d7663          	bleu	s2,s10,11af <.LASF69+0x7>
     ae7:	6c75                	bltz	s0,be3 <.LASF0+0x9>
     ae9:	6974                	0x6974
     aeb:	6e72656b          	0x6e72656b
     aef:	6c65                	bltz	s0,be7 <.LASF51+0x1>
     af1:	6f6f742f          	0x6f6f742f
     af5:	736c                	0x736c
     af7:	6d6f632f          	0x6d6f632f
     afb:	6f6d                	bltz	a4,bf5 <.LASF51+0xf>
     afd:	2f6e                	jal	12b7 <.LASF73+0x22>
     aff:	2e2e                	jal	1229 <.LASF61+0x1>
     b01:	666c652f          	0x666c652f
     b05:	6f6c                	sltu	a1,a4,a1
     b07:	6461                	bltz	s0,b5f <.LASF8+0x5>
     b09:	7265                	bltz	a2,a41 <.LASF27+0xe>
     b0b:	6372732f          	0x6372732f
     b0f:	6372612f          	0x6372612f
     b13:	2d68                	srai	s10,s10,0x1a
     b15:	6972                	bnez	a0,bb1 <.LASF23+0x1>
     b17:	2f766373          	csrrs	t1,0x2f7,12
     b1b:	6c70                	sltu	a2,s0,a2
     b1d:	7461                	bltz	s0,a75 <.LASF27+0x42>
     b1f:	732d                	bltz	a4,a49 <.LASF27+0x16>
     b21:	6970                	0x6970
     b23:	732f656b          	0x732f656b
     b27:	7379                	bltz	a4,a45 <.LASF27+0x12>
     b29:	665f 7570 6374      	0x63747570665f
     b2f:	632e                	bnez	a4,b59 <.LASF25+0x6>
	...

00000b32 <.LASF21>:
     b32:	5f737973          	csrrc	s2,0x5f7,6
     b36:	6572                	bnez	a0,b92 <.LASF14+0x16>
     b38:	0074                	0x74

00000b3a <.LASF22>:
     b3a:	6168                	0x6168
     b3c:	646e                	bnez	s0,bb6 <.LASF23+0x6>
     b3e:	656c                	sltu	a0,a0,a1
     b40:	745f 6172 0070      	0x706172745f

00000b46 <.LASF5>:
     b46:	6e75                	bltz	a2,c42 <.LASF60>
     b48:	6e676973          	csrrs	s2,0x6e6,14
     b4c:	6465                	bltz	s0,bc4 <.LASF17+0x2>
     b4e:	6920                	0x6920
     b50:	746e                	bnez	s0,aca <.LASF28+0x9>
	...

00000b53 <.LASF25>:
     b53:	7562                	bnez	a0,aab <.LASF15+0x3>
     b55:	6c66                	bnez	s0,c4d <.LASF60+0xb>
     b57:	6e65                	bltz	a2,c4f <.LASF60+0xd>
	...

00000b5a <.LASF8>:
     b5a:	6f6c                	sltu	a1,a4,a1
     b5c:	676e                	bnez	a4,bd6 <.LASF12+0x5>
     b5e:	6c20                	srl	s0,s0,s0
     b60:	20676e6f          	jal	t3,76d66 <.L0 +0x62ab6>
     b64:	6e75                	bltz	a2,c60 <.LASF38+0x9>
     b66:	6e676973          	csrrs	s2,0x6e6,14
     b6a:	6465                	bltz	s0,be2 <.LASF0+0x8>
     b6c:	6920                	0x6920
     b6e:	746e                	bnez	s0,ae8 <.LASF28+0x27>
	...

00000b71 <.LASF20>:
     b71:	6572                	bnez	a0,bcd <.LASF6+0x5>
     b73:	63007367          	0x63007367

00000b76 <.LASF19>:
     b76:	73756163          	bltu	a0,s7,1298 <.LASF73+0x3>
     b7a:	0065                	0x65

00000b7c <.LASF14>:
     b7c:	6168                	0x6168
     b7e:	646e                	bnez	s0,bf8 <.LASF51+0x12>
     b80:	656c                	sltu	a0,a0,a1
     b82:	665f 6f72 746e      	0x746e6f72665f
     b88:	6e65                	bltz	a2,c80 <.LASF71+0xe>
     b8a:	5f64                	sw	s1,124(a4)
     b8c:	63737973          	csrrc	s2,0x637,6
     b90:	6c61                	bltz	s0,c68 <.LASF43+0x6>
     b92:	006c                	0x6c

00000b94 <.LASF18>:
     b94:	657a6973          	csrrs	s2,0x657,20
     b98:	7974                	0x7974
     b9a:	6570                	sltu	a0,a0,a2
	...

00000b9d <.LASF2>:
     b9d:	6f6c                	sltu	a1,a4,a1
     b9f:	676e                	bnez	a4,c19 <.LASF64+0x16>
     ba1:	6c20                	srl	s0,s0,s0
     ba3:	20676e6f          	jal	t3,76da9 <.L0 +0x62af9>
     ba7:	6e69                	bltz	a2,c81 <.LASF71+0xf>
     ba9:	0074                	0x74

00000bab <.LASF26>:
     bab:	72616863          	bltu	sp,t1,12db <.LASF73+0x46>
	...

00000bb0 <.LASF23>:
     bb0:	5f5f 7066 7475      	0x747570665f5f
     bb6:	68730063          	beq	t1,t2,1236 <.LASF61+0xe>

00000bb8 <.LASF1>:
     bb8:	726f6873          	csrrs	a6,0x726,30
     bbc:	2074                	0x2074
     bbe:	6e69                	bltz	a2,c98 <.LASF71+0x26>
     bc0:	0074                	0x74

00000bc2 <.LASF17>:
     bc2:	5f5f 6d74 0070      	0x706d745f5f

00000bc8 <.LASF6>:
     bc8:	6975                	bltz	a0,c84 <.LASF71+0x12>
     bca:	746e                	bnez	s0,b44 <.LASF22+0xa>
     bcc:	745f3233          	0x745f3233
	...

00000bd1 <.LASF12>:
     bd1:	6f6c                	sltu	a1,a4,a1
     bd3:	676e                	bnez	a4,c4d <.LASF60+0xb>
     bd5:	6920                	0x6920
     bd7:	746e                	bnez	s0,b51 <.LASF5+0xb>
	...

00000bda <.LASF0>:
     bda:	6e676973          	csrrs	s2,0x6e6,14
     bde:	6465                	bltz	s0,c56 <.LASF60+0x14>
     be0:	6320                	sra	a4,a4,s0
     be2:	6168                	0x6168
     be4:	0072                	j	c00 <.LASF42+0x5>

00000be6 <.LASF51>:
     be6:	6c65                	bltz	s0,cde <.LASF14+0x6>
     be8:	3366                	jal	5a0 <.LASF1+0x63>
     bea:	5f32                	beqz	a4,bb6 <.LASF23+0x6>
     bec:	53746567          	0x53746567
     bf0:	7274                	0x7274
     bf2:	6e69                	bltz	a2,ccc <.LASF46+0x4>
     bf4:	62615467          	0x62615467
     bf8:	656c                	sltu	a0,a0,a1
	...

00000bfb <.LASF42>:
     bfb:	5f70                	sw	a2,124(a4)
     bfd:	6170                	0x6170
     bff:	6464                	sltu	s0,s0,s1
     c01:	0072                	j	c1d <.LASF64+0x1a>

00000c03 <.LASF64>:
     c03:	6c65                	bltz	s0,cfb <.LASF53+0x3>
     c05:	3366                	jal	5bd <.LASF29+0x3>
     c07:	5f32                	beqz	a4,bd3 <.LASF12+0x2>
     c09:	53746567          	0x53746567
     c0d:	6765                	bltz	a4,c85 <.LASF71+0x13>
     c0f:	656d                	bltz	a0,c89 <.LASF71+0x17>
     c11:	746e                	bnez	s0,b8b <.LASF14+0xf>
     c13:	69727453          	0x69727453
     c17:	676e                	bnez	a4,c91 <.LASF71+0x1f>
     c19:	6154                	0x6154
     c1b:	6c62                	bnez	s0,cf3 <.LASF3+0x9>
     c1d:	0065                	0x65

00000c1f <.LASF66>:
     c1f:	6d676573          	csrrs	a0,0x6d6,14
     c23:	6e65                	bltz	a2,d1b <.LASF24+0x6>
     c25:	0074                	0x74

00000c27 <.LASF10>:
     c27:	6975                	bltz	a0,ce3 <.LASF33+0x1>
     c29:	746e                	bnez	s0,ba3 <.LASF2+0x6>
     c2b:	7470                	0x7470
     c2d:	5f72                	beqz	a4,c09 <.LASF64+0x6>
     c2f:	0074                	0x74

00000c31 <.LASF19>:
     c31:	5f65                	sw	s9,188(sp)
     c33:	6865                	bltz	s0,ceb <.LASF3+0x1>
     c35:	657a6973          	csrrs	s2,0x657,20
	...

00000c3a <.LASF55>:
     c3a:	6966                	bnez	a0,cf2 <.LASF3+0x8>
     c3c:	656c                	sltu	a0,a0,a1
     c3e:	6448                	slt	s0,s0,a0
     c40:	0072                	j	c5c <.LASF38+0x5>

00000c42 <.LASF60>:
     c42:	6c65                	bltz	s0,d3a <.LASF56+0x1a>
     c44:	3366                	jal	5fc <.LASF27+0x12>
     c46:	5f32                	beqz	a4,c12 <.LASF64+0xf>
     c48:	53746567          	0x53746567
     c4c:	6365                	bltz	a4,c84 <.LASF71+0x12>
     c4e:	6974                	0x6974
     c50:	64416e6f          	jal	t3,17294 <.L0 +0x2fe4>
     c54:	7264                	0x7264
	...

00000c57 <.LASF38>:
     c57:	6c45                	bltz	s0,d47 <.LASF4+0x4>
     c59:	3366                	jal	611 <.LASF27+0x27>
     c5b:	5f32                	beqz	a4,c27 <.LASF10>
     c5d:	6850                	0x6850
     c5f:	7264                	0x7264
	...

00000c62 <.LASF43>:
     c62:	5f70                	sw	a2,124(a4)
     c64:	6966                	bnez	a0,d1c <.LASF24+0x7>
     c66:	656c                	sltu	a0,a0,a1
     c68:	70007a73          	csrrc	s4,0x700,0

00000c6b <.LASF39>:
     c6b:	5f70                	sw	a2,124(a4)
     c6d:	7974                	0x7974
     c6f:	6570                	sltu	a0,a0,a2
	...

00000c72 <.LASF71>:
     c72:	20554e47          	fmsub.s	ft8,fa0,ft5,ft4,rmm
     c76:	20313143          	fmadd.s	ft2,ft2,ft3,ft4,rup
     c7a:	2e35                	srli	t3,t3,0xd
     c7c:	2e32                	jal	1388 <.LASF63+0xe>
     c7e:	2030                	0x2030
     c80:	6d2d                	bltz	a0,d6a <.LASF72+0xb>
     c82:	2d203233          	0x2d203233
     c86:	732d2067          	0x732d2067
     c8a:	6474                	sltu	s0,s0,a3
     c8c:	673d                	bltz	a4,cfa <.LASF53+0x2>
     c8e:	756e                	bnez	a0,c08 <.LASF64+0x5>
     c90:	3131                	srli	sp,sp,0x2c
     c92:	2d20                	srai	s10,s10,0x8
     c94:	6666                	bnez	a2,d0c <.LASF53+0x14>
     c96:	6572                	bnez	a0,cf2 <.LASF3+0x8>
     c98:	7365                	bltz	a4,bd0 <.LASF6+0x8>
     c9a:	6174                	0x6174
     c9c:	646e                	bnez	s0,d16 <.LASF24+0x1>
     c9e:	6e69                	bltz	a2,d78 <.LASF72+0x19>
     ca0:	662d2067          	0x662d2067
     ca4:	6f6e                	bnez	a4,d9e <.LASF72+0x3f>
     ca6:	732d                	bltz	a4,bd0 <.LASF6+0x8>
     ca8:	6174                	0x6174
     caa:	702d6b63          	bltu	s10,sp,13c0 <.LASF0+0xa>
     cae:	6f72                	bnez	a4,d8a <.LASF72+0x2b>
     cb0:	6574                	sltu	a0,a0,a3
     cb2:	726f7463          	bleu	t1,t5,13da <.LASF58+0x18>
	...

00000cb7 <.LASF8>:
     cb7:	6975                	bltz	a0,d73 <.LASF72+0x14>
     cb9:	746e                	bnez	s0,c33 <.LASF19+0x2>
     cbb:	3436                	jal	6e7 <.LASF2+0x9>
     cbd:	745f 7300 5f68      	0x5f687300745f

00000cc0 <.LASF31>:
     cc0:	615f6873          	csrrs	a6,0x615,30
     cc4:	6464                	sltu	s0,s0,s1
     cc6:	0072                	j	ce2 <.LASF33>

00000cc8 <.LASF46>:
     cc8:	5f70                	sw	a2,124(a4)
     cca:	6c61                	bltz	s0,da2 <.LASF72+0x43>
     ccc:	6769                	bltz	a4,d26 <.LASF56+0x6>
     cce:	006e                	j	d08 <.LASF53+0x10>

00000cd0 <.LASF21>:
     cd0:	5f65                	sw	s9,188(sp)
     cd2:	6870                	0x6870
     cd4:	756e                	bnez	a0,c4e <.LASF60+0xc>
     cd6:	006d                	0x6d

00000cd8 <.LASF14>:
     cd8:	5f65                	sw	s9,188(sp)
     cda:	6576                	bnez	a0,d56 <.LASF40>
     cdc:	7372                	bnez	a4,bf8 <.LASF51+0x12>
     cde:	6f69                	bltz	a4,db8 <.LASF72+0x59>
     ce0:	006e                	j	d1a <.LASF24+0x5>

00000ce2 <.LASF33>:
     ce2:	735f6873          	csrrs	a6,0x735,30
     ce6:	7a69                	bltz	a2,c80 <.LASF71+0xe>
     ce8:	0065                	0x65

00000cea <.LASF3>:
     cea:	6e75                	bltz	a2,de6 <.LASF65+0x1>
     cec:	6e676973          	csrrs	s2,0x6e6,14
     cf0:	6465                	bltz	s0,d68 <.LASF72+0x9>
     cf2:	6320                	sra	a4,a4,s0
     cf4:	6168                	0x6168
     cf6:	0072                	j	d12 <.LASF53+0x1a>

00000cf8 <.LASF53>:
     cf8:	6c65                	bltz	s0,df0 <.LASF65+0xb>
     cfa:	3366                	jal	6b2 <.LASF6+0x8>
     cfc:	5f32                	beqz	a4,cc8 <.LASF46>
     cfe:	50746567          	0x50746567
     d02:	6f72                	bnez	a4,dde <.LASF15+0x6>
     d04:	6d617267          	0x6d617267
     d08:	6d676553          	0x6d676553
     d0c:	6e65                	bltz	a2,e04 <.LASF49+0xa>
     d0e:	5474                	sw	a3,108(s0)
     d10:	6261                	bltz	a2,d28 <.LASF56+0x8>
     d12:	656c                	sltu	a0,a0,a1
	...

00000d15 <.LASF24>:
     d15:	5f65                	sw	s9,188(sp)
     d17:	74736873          	csrrs	a6,0x747,6
     d1b:	6e72                	bnez	a2,df7 <.LASF65+0x12>
     d1d:	7864                	0x7864
	...

00000d20 <.LASF56>:
     d20:	6c65                	bltz	s0,e18 <.LASF58+0x9>
     d22:	3366                	jal	6da <.LASF16+0x5>
     d24:	5f32                	beqz	a4,cf0 <.LASF3+0x6>
     d26:	4e746567          	0x4e746567
     d2a:	6d75                	bltz	a0,e26 <.LASF37+0x5>
     d2c:	7250                	0x7250
     d2e:	6172676f          	jal	a4,27b44 <.L0 +0x13894>
     d32:	486d                	sw	s11,16(sp)
     d34:	6165                	bltz	a0,d6c <.LASF72+0xd>
     d36:	6564                	sltu	a0,a0,s1
     d38:	7372                	bnez	a4,c54 <.LASF60+0x12>
	...

00000d3b <.LASF17>:
     d3b:	5f65                	sw	s9,188(sp)
     d3d:	666f6873          	csrrs	a6,0x666,30
     d41:	0066                	j	d79 <.LASF72+0x1a>

00000d43 <.LASF4>:
     d43:	726f6873          	csrrs	a6,0x726,30
     d47:	2074                	0x2074
     d49:	6e75                	bltz	a2,e45 <.LASF61+0x8>
     d4b:	6e676973          	csrrs	s2,0x6e6,14
     d4f:	6465                	bltz	s0,dc7 <.LASF27+0x2>
     d51:	6920                	0x6920
     d53:	746e                	bnez	s0,ccd <.LASF46+0x5>
	...

00000d56 <.LASF40>:
     d56:	5f70                	sw	a2,124(a4)
     d58:	7366666f          	jal	a2,6748e <.L0 +0x531de>
     d5c:	7465                	bltz	s0,cd4 <.LASF21+0x4>
	...

00000d5f <.LASF72>:
     d5f:	6d6f682f          	0x6d6f682f
     d63:	2f65                	srli	t5,t5,0x19
     d65:	6568                	sltu	a0,a0,a0
     d67:	6d616873          	csrrs	a6,0x6d6,2
     d6b:	6f72502f          	0x6f72502f
     d6f:	656a                	bnez	a0,dc9 <.LASF27+0x4>
     d71:	2f737463          	bleu	s7,t1,1059 <.LASF72+0x2>
     d75:	344c6573          	csrrs	a0,mip,24
     d79:	4c65732f          	0x4c65732f
     d7d:	7234                	0x7234
     d7f:	7369                	bltz	a4,c99 <.LASF71+0x27>
     d81:	6d2d7663          	bleu	s2,s10,144d <.LASF97+0x4>
     d85:	6c75                	bltz	s0,e81 <.LASF50+0x5>
     d87:	6974                	0x6974
     d89:	6e72656b          	0x6e72656b
     d8d:	6c65                	bltz	s0,e85 <.LASF9+0x1>
     d8f:	6f6f742f          	0x6f6f742f
     d93:	736c                	0x736c
     d95:	6d6f632f          	0x6d6f632f
     d99:	6f6d                	bltz	a4,e93 <.LASF9+0xf>
     d9b:	2f6e                	jal	1555 <.LASF56+0x14>
     d9d:	2e2e                	jal	14c7 <.LASF26>
     d9f:	666c652f          	0x666c652f
     da3:	6f6c                	sltu	a1,a4,a1
     da5:	6461                	bltz	s0,dfd <.LASF49+0x3>
     da7:	7265                	bltz	a2,cdf <.LASF14+0x7>
     da9:	6372732f          	0x6372732f
     dad:	6372612f          	0x6372612f
     db1:	2d68                	srai	s10,s10,0x1a
     db3:	6972                	bnez	a0,e4f <.LASF20+0x1>
     db5:	2f766373          	csrrs	t1,0x2f7,12
     db9:	6c65                	bltz	s0,eb1 <.LASF16+0x2>
     dbb:	2f66                	jal	1573 <.LASF40+0x3>
     dbd:	6c65                	bltz	s0,eb5 <.LASF16+0x6>
     dbf:	3366                	jal	777 <.LASF28+0x27>
     dc1:	2e32                	jal	14cd <.LASF26+0x6>
     dc3:	6c450063          	beq	a0,tp,1483 <.LASF62+0x8>

00000dc5 <.LASF27>:
     dc5:	6c45                	bltz	s0,eb5 <.LASF16+0x6>
     dc7:	3366                	jal	77f <.LASF28+0x2f>
     dc9:	5f32                	beqz	a4,d95 <.LASF72+0x36>
     dcb:	72646853          	0x72646853
	...

00000dd0 <.LASF35>:
     dd0:	695f6873          	csrrs	a6,0x695,30
     dd4:	666e                	bnez	a2,e4e <.LASF20>
     dd6:	5f65006f          	j	513cc <.L0 +0x3d11c>

00000dd8 <.LASF15>:
     dd8:	5f65                	sw	s9,188(sp)
     dda:	6e65                	bltz	a2,ed2 <.LASF28>
     ddc:	7274                	0x7274
     dde:	0079                	0x79

00000de0 <.LASF47>:
     de0:	6966                	bnez	a0,e98 <.LASF9+0x14>
     de2:	656c                	sltu	a0,a0,a1
	...

00000de5 <.LASF65>:
     de5:	6c65                	bltz	s0,edd <.LASF25+0x3>
     de7:	3366                	jal	79f <.LASF28+0x4f>
     de9:	5f32                	beqz	a4,db5 <.LASF72+0x56>
     deb:	53746567          	0x53746567
     def:	6765                	bltz	a4,e67 <.LASF59>
     df1:	656d                	bltz	a0,e6b <.LASF59+0x4>
     df3:	746e                	bnez	s0,d6d <.LASF72+0xe>
     df5:	7954                	0x7954
     df7:	6570                	sltu	a0,a0,a2
	...

00000dfa <.LASF49>:
     dfa:	6c65                	bltz	s0,ef2 <.LASF2+0x3>
     dfc:	3366                	jal	7b4 <.LASF13+0x1>
     dfe:	5f32                	beqz	a4,dca <.LASF27+0x5>
     e00:	4e746567          	0x4e746567
     e04:	6d75                	bltz	a0,f00 <.LASF73+0x3>
     e06:	74636553          	0x74636553
     e0a:	6f69                	bltz	a4,ee4 <.LASF22+0x1>
     e0c:	736e                	bnez	a4,d46 <.LASF4+0x3>
	...

00000e0f <.LASF58>:
     e0f:	5f727473          	csrrc	s0,0x5f7,4
     e13:	6174                	0x6174
     e15:	6c62                	bnez	s0,eed <.LASF22+0xa>
     e17:	0065                	0x65

00000e19 <.LASF44>:
     e19:	5f70                	sw	a2,124(a4)
     e1b:	656d                	bltz	a0,e95 <.LASF9+0x11>
     e1d:	736d                	bltz	a4,d57 <.LASF40+0x1>
     e1f:	007a                	j	e3d <.LASF61>

00000e21 <.LASF37>:
     e21:	655f6873          	csrrs	a6,0x655,30
     e25:	746e                	bnez	s0,d9f <.LASF72+0x40>
     e27:	657a6973          	csrrs	s2,0x657,20
	...

00000e2c <.LASF68>:
     e2c:	6d676573          	csrrs	a0,0x6d6,14
     e30:	6e65                	bltz	a2,f28 <.LASF30>
     e32:	7374                	0x7374
	...

00000e35 <.LASF34>:
     e35:	6c5f6873          	csrrs	a6,0x6c5,30
     e39:	6e69                	bltz	a2,f13 <.LASF45>
     e3b:	6c65006b          	0x6c65006b

00000e3d <.LASF61>:
     e3d:	6c65                	bltz	s0,f35 <.LASF29+0x4>
     e3f:	3366                	jal	7f7 <.LASF13+0x44>
     e41:	5f32                	beqz	a4,e0d <.LASF49+0x13>
     e43:	53746567          	0x53746567
     e47:	6365                	bltz	a4,e7f <.LASF50+0x3>
     e49:	6974                	0x6974
     e4b:	65006e6f          	jal	t3,749b <.Ldebug_info0+0x490e>

00000e4e <.LASF20>:
     e4e:	5f65                	sw	s9,188(sp)
     e50:	6870                	0x6870
     e52:	6e65                	bltz	a2,f4a <.LASF57+0x7>
     e54:	7374                	0x7374
     e56:	7a69                	bltz	a2,df0 <.LASF65+0xb>
     e58:	0065                	0x65

00000e5a <.LASF7>:
     e5a:	6e75                	bltz	a2,f56 <.LASF57+0x13>
     e5c:	6e676973          	csrrs	s2,0x6e6,14
     e60:	6465                	bltz	s0,ed8 <.LASF28+0x6>
     e62:	6920                	0x6920
     e64:	746e                	bnez	s0,dde <.LASF15+0x6>
	...

00000e67 <.LASF59>:
     e67:	6c65                	bltz	s0,f5f <.LASF18+0x7>
     e69:	3366                	jal	821 <.LASF6+0x10>
     e6b:	5f32                	beqz	a4,e37 <.LASF34+0x2>
     e6d:	53746567          	0x53746567
     e71:	6365                	bltz	a4,ea9 <.LASF67+0x1>
     e73:	6974                	0x6974
     e75:	69536e6f          	jal	t3,37d09 <.L0 +0x23a59>
     e79:	657a                	bnez	a0,ed7 <.LASF28+0x5>
	...

00000e7c <.LASF50>:
     e7c:	6c65                	bltz	s0,f74 <.LASF63+0x2>
     e7e:	4666                	beqz	a2,ef6 <.LASF2+0x7>
     e80:	6c69                	bltz	s0,f5a <.LASF18+0x2>
     e82:	0065                	0x65

00000e84 <.LASF9>:
     e84:	6f6c                	sltu	a1,a4,a1
     e86:	676e                	bnez	a4,f00 <.LASF73+0x3>
     e88:	6c20                	srl	s0,s0,s0
     e8a:	20676e6f          	jal	t3,77090 <.L0 +0x62de0>
     e8e:	6e75                	bltz	a2,f8a <.LASF11>
     e90:	6e676973          	csrrs	s2,0x6e6,14
     e94:	6465                	bltz	s0,f0c <.LASF73+0xf>
     e96:	6920                	0x6920
     e98:	746e                	bnez	s0,e12 <.LASF58+0x3>
	...

00000e9b <.LASF36>:
     e9b:	615f6873          	csrrs	a6,0x615,30
     e9f:	6464                	sltu	s0,s0,s1
     ea1:	6172                	bnez	a0,ebd <.LASF12+0x6>
     ea3:	696c                	0x696c
     ea5:	70006e67          	0x70006e67

00000ea8 <.LASF67>:
     ea8:	5f70                	sw	a2,124(a4)
     eaa:	6461                	bltz	s0,f02 <.LASF73+0x5>
     eac:	7264                	0x7264
	...

00000eaf <.LASF16>:
     eaf:	5f65                	sw	s9,188(sp)
     eb1:	6870                	0x6870
     eb3:	0066666f          	jal	a2,66eb9 <.L0 +0x52c09>

00000eb7 <.LASF12>:
     eb7:	5f65                	sw	s9,188(sp)
     eb9:	7974                	0x7974
     ebb:	6570                	sltu	a0,a0,a2
	...

00000ebe <.LASF32>:
     ebe:	6f5f6873          	csrrs	a6,0x6f5,30
     ec2:	6666                	bnez	a2,f3a <.LASF1+0x1>
     ec4:	00746573          	csrrs	a0,0x7,8

00000ec8 <.LASF13>:
     ec8:	5f65                	sw	s9,188(sp)
     eca:	616d                	bltz	a0,f04 <.LASF73+0x7>
     ecc:	6e696863          	bltu	s2,t1,15bc <.LASF79+0x7>
     ed0:	0065                	0x65

00000ed2 <.LASF28>:
     ed2:	6e5f6873          	csrrs	a6,0x6e5,30
     ed6:	6d61                	bltz	a0,fae <.LASF70+0x7>
     ed8:	0065                	0x65

00000eda <.LASF25>:
     eda:	657a6973          	csrrs	s2,0x657,20
     ede:	7974                	0x7974
     ee0:	6570                	sltu	a0,a0,a2
	...

00000ee3 <.LASF22>:
     ee3:	5f65                	sw	s9,188(sp)
     ee5:	6e656873          	csrrs	a6,0x6e6,10
     ee9:	7374                	0x7374
     eeb:	7a69                	bltz	a2,e85 <.LASF9+0x1>
     eed:	0065                	0x65

00000eef <.LASF2>:
     eef:	6f6c                	sltu	a1,a4,a1
     ef1:	676e                	bnez	a4,f6b <.LASF6+0x2>
     ef3:	6c20                	srl	s0,s0,s0
     ef5:	20676e6f          	jal	t3,770fb <.L0 +0x62e4b>
     ef9:	6e69                	bltz	a2,fd3 <.LASF48+0xf>
     efb:	0074                	0x74

00000efd <.LASF73>:
     efd:	6c65                	bltz	s0,ff5 <.LASF26+0x3>
     eff:	3366                	jal	8b7 <.LASF14+0x38>
     f01:	5f32                	beqz	a4,ecd <.LASF13+0x5>
     f03:	53746567          	0x53746567
     f07:	6365                	bltz	a4,f3f <.LASF1+0x6>
     f09:	6974                	0x6974
     f0b:	61546e6f          	jal	t3,47d1f <.L0 +0x33a6f>
     f0f:	6c62                	bnez	s0,fe7 <.LASF62+0x13>
     f11:	0065                	0x65

00000f13 <.LASF45>:
     f13:	5f70                	sw	a2,124(a4)
     f15:	6c66                	bnez	s0,100d <.LASF44>
     f17:	6761                	bltz	a4,f6f <.LASF6+0x6>
     f19:	68630073          	0x68630073

00000f1b <.LASF52>:
     f1b:	72616863          	bltu	sp,t1,164b <.LASF13+0x4>
	...

00000f20 <.LASF41>:
     f20:	5f70                	sw	a2,124(a4)
     f22:	6176                	bnez	a0,f5e <.LASF18+0x6>
     f24:	6464                	sltu	s0,s0,s1
     f26:	0072                	j	f42 <.LASF1+0x9>

00000f28 <.LASF30>:
     f28:	665f6873          	csrrs	a6,0x665,30
     f2c:	616c                	0x616c
     f2e:	73007367          	0x73007367

00000f31 <.LASF29>:
     f31:	745f6873          	csrrs	a6,0x745,30
     f35:	7079                	bltz	s0,e53 <.LASF20+0x5>
     f37:	0065                	0x65

00000f39 <.LASF1>:
     f39:	726f6873          	csrrs	a6,0x726,30
     f3d:	2074                	0x2074
     f3f:	6e69                	bltz	a2,1019 <.LASF11+0x4>
     f41:	0074                	0x74

00000f43 <.LASF57>:
     f43:	6c65                	bltz	s0,103b <.LASF52+0x4>
     f45:	3366                	jal	8fd <.LASF7+0xa>
     f47:	5f32                	beqz	a4,f13 <.LASF45>
     f49:	53746567          	0x53746567
     f4d:	6365                	bltz	a4,f85 <.LASF0+0x7>
     f4f:	6974                	0x6974
     f51:	614e6e6f          	jal	t3,e7565 <.L0 +0xd32b5>
     f55:	656d                	bltz	a0,fcf <.LASF48+0xb>
	...

00000f58 <.LASF18>:
     f58:	5f65                	sw	s9,188(sp)
     f5a:	6c66                	bnez	s0,1052 <.LASF40+0x2>
     f5c:	6761                	bltz	a4,fb4 <.LASF70+0xd>
     f5e:	69750073          	0x69750073

00000f60 <.LASF5>:
     f60:	6975                	bltz	a0,101c <.LASF68>
     f62:	746e                	bnez	s0,edc <.LASF25+0x2>
     f64:	3631                	srli	a2,a2,0x2c
     f66:	745f 7500 6e69      	0x6e697500745f

00000f69 <.LASF6>:
     f69:	6975                	bltz	a0,1025 <.LASF10+0x1>
     f6b:	746e                	bnez	s0,ee5 <.LASF22+0x2>
     f6d:	745f3233          	0x745f3233
	...

00000f72 <.LASF63>:
     f72:	756e                	bnez	a0,eec <.LASF22+0x9>
     f74:	536d                	sw	s11,164(sp)
     f76:	6365                	bltz	a4,fae <.LASF70+0x7>
     f78:	6974                	0x6974
     f7a:	00736e6f          	jal	t3,37780 <.L0 +0x234d0>

00000f7e <.LASF0>:
     f7e:	6e676973          	csrrs	s2,0x6e6,14
     f82:	6465                	bltz	s0,ffa <.LASF26+0x8>
     f84:	6320                	sra	a4,a4,s0
     f86:	6168                	0x6168
     f88:	0072                	j	fa4 <.LASF69+0x12>

00000f8a <.LASF11>:
     f8a:	5f65                	sw	s9,188(sp)
     f8c:	6469                	bltz	s0,fe6 <.LASF62+0x12>
     f8e:	6e65                	bltz	a2,1086 <.LASF72+0x2f>
     f90:	0074                	0x74

00000f92 <.LASF69>:
     f92:	6c65                	bltz	s0,108a <.LASF72+0x33>
     f94:	3366                	jal	94c <.LASF9+0x7>
     f96:	5f32                	beqz	a4,f62 <.LASF5+0x2>
     f98:	53746567          	0x53746567
     f9c:	6765                	bltz	a4,1014 <.LASF44+0x7>
     f9e:	656d                	bltz	a0,1018 <.LASF11+0x3>
     fa0:	746e                	bnez	s0,f1a <.LASF45+0x7>
     fa2:	6e49                	bltz	a2,1074 <.LASF72+0x1d>
     fa4:	6f66                	bnez	a4,109c <.LASF8>
	...

00000fa7 <.LASF70>:
     fa7:	6c65                	bltz	s0,109f <.LASF8+0x3>
     fa9:	3366                	jal	961 <.LASF6+0xe>
     fab:	5f32                	beqz	a4,f77 <.LASF63+0x5>
     fad:	45746567          	0x45746567
     fb1:	746e                	bnez	s0,f2b <.LASF30+0x3>
     fb3:	7972                	bnez	a0,f4f <.LASF57+0xc>
     fb5:	6f50                	slt	a2,a4,a2
     fb7:	6e69                	bltz	a2,1091 <.LASF72+0x3a>
     fb9:	0074                	0x74

00000fbb <.LASF54>:
     fbb:	74636573          	csrrs	a0,0x746,6
     fbf:	6f69                	bltz	a4,1099 <.LASF72+0x42>
     fc1:	736e                	bnez	a4,efb <.LASF2+0xc>
	...

00000fc4 <.LASF48>:
     fc4:	6c65                	bltz	s0,10bc <.LASF23+0x7>
     fc6:	3366                	jal	97e <.LASF2+0x6>
     fc8:	5f32                	beqz	a4,f94 <.LASF69+0x2>
     fca:	63656863          	bltu	a0,s6,15fa <.LASF113+0x1f>
     fce:	6c69466b          	0x6c69466b
     fd2:	0065                	0x65

00000fd4 <.LASF62>:
     fd4:	6c65                	bltz	s0,10cc <.LASF16+0x4>
     fd6:	3366                	jal	98e <.LASF8+0x8>
     fd8:	5f32                	beqz	a4,fa4 <.LASF69+0x12>
     fda:	53746567          	0x53746567
     fde:	6365                	bltz	a4,1016 <.LASF11+0x1>
     fe0:	6974                	0x6974
     fe2:	614e6e6f          	jal	t3,e75f6 <.L0 +0xd3346>
     fe6:	656d                	bltz	a0,1060 <.LASF72+0x9>
     fe8:	0064                	0x64

00000fea <.LASF23>:
     fea:	5f65                	sw	s9,188(sp)
     fec:	756e6873          	csrrs	a6,0x756,28
     ff0:	006d                	0x6d

00000ff2 <.LASF26>:
     ff2:	6c45                	bltz	s0,10e2 <.LASF3+0x8>
     ff4:	3366                	jal	9ac <.LASF8+0x26>
     ff6:	5f32                	beqz	a4,fc2 <.LASF54+0x7>
     ff8:	6548                	slt	a0,a0,a0
     ffa:	6461                	bltz	s0,1052 <.LASF40+0x2>
     ffc:	7265                	bltz	a2,f34 <.LASF29+0x3>
	...

00000fff <.LASF2>:
     fff:	6f6c                	sltu	a1,a4,a1
    1001:	676e                	bnez	a4,107b <.LASF72+0x24>
    1003:	6c20                	srl	s0,s0,s0
    1005:	20676e6f          	jal	t3,7720b <.L0 +0x62f5b>
    1009:	6e69                	bltz	a2,10e3 <.LASF3+0x9>
    100b:	0074                	0x74

0000100d <.LASF44>:
    100d:	5f70                	sw	a2,124(a4)
    100f:	6170                	0x6170
    1011:	6464                	sltu	s0,s0,s1
    1013:	0072                	j	102f <.LASF21+0x1>

00001015 <.LASF11>:
    1015:	657a6973          	csrrs	s2,0x657,20
    1019:	745f 7300 6765      	0x67657300745f

0000101c <.LASF68>:
    101c:	6d676573          	csrrs	a0,0x6d6,14
    1020:	6e65                	bltz	a2,1118 <.LASF4+0x11>
    1022:	0074                	0x74

00001024 <.LASF10>:
    1024:	6975                	bltz	a0,10e0 <.LASF3+0x6>
    1026:	746e                	bnez	s0,fa0 <.LASF69+0xe>
    1028:	7470                	0x7470
    102a:	5f72                	beqz	a4,1006 <.LASF2+0x7>
    102c:	0074                	0x74

0000102e <.LASF21>:
    102e:	5f65                	sw	s9,188(sp)
    1030:	6865                	bltz	s0,10e8 <.LASF26>
    1032:	657a6973          	csrrs	s2,0x657,20
	...

00001037 <.LASF52>:
    1037:	6966                	bnez	a0,10ef <.LASF26+0x7>
    1039:	656c                	sltu	a0,a0,a1
    103b:	6448                	slt	s0,s0,a0
    103d:	0072                	j	1059 <.LASF72+0x2>

0000103f <.LASF49>:
    103f:	6c65                	bltz	s0,1137 <.LASF55+0x4>
    1041:	4666                	beqz	a2,10b9 <.LASF23+0x4>
    1043:	6c69                	bltz	s0,111d <.LASF42+0x3>
    1045:	0065                	0x65

00001047 <.LASF45>:
    1047:	5f70                	sw	a2,124(a4)
    1049:	6966                	bnez	a0,1101 <.LASF19+0x2>
    104b:	656c                	sltu	a0,a0,a1
    104d:	70007a73          	csrrc	s4,0x700,0

00001050 <.LASF40>:
    1050:	5f70                	sw	a2,124(a4)
    1052:	7974                	0x7974
    1054:	6570                	sltu	a0,a0,a2
	...

00001057 <.LASF72>:
    1057:	20554e47          	fmsub.s	ft8,fa0,ft5,ft4,rmm
    105b:	20313143          	fmadd.s	ft2,ft2,ft3,ft4,rup
    105f:	2e35                	srli	t3,t3,0xd
    1061:	2e32                	jal	176d <.LASF82>
    1063:	2030                	0x2030
    1065:	6d2d                	bltz	a0,114f <.LASF71+0xd>
    1067:	2d203233          	0x2d203233
    106b:	732d2067          	0x732d2067
    106f:	6474                	sltu	s0,s0,a3
    1071:	673d                	bltz	a4,10df <.LASF3+0x5>
    1073:	756e                	bnez	a0,fed <.LASF23+0x3>
    1075:	3131                	srli	sp,sp,0x2c
    1077:	2d20                	srai	s10,s10,0x8
    1079:	6666                	bnez	a2,10f1 <.LASF26+0x9>
    107b:	6572                	bnez	a0,10d7 <.LASF34+0x5>
    107d:	7365                	bltz	a4,fb5 <.LASF70+0xe>
    107f:	6174                	0x6174
    1081:	646e                	bnez	s0,10fb <.LASF65+0x8>
    1083:	6e69                	bltz	a2,115d <.LASF36+0x7>
    1085:	662d2067          	0x662d2067
    1089:	6f6e                	bnez	a4,1183 <.LASF70+0x3>
    108b:	732d                	bltz	a4,fb5 <.LASF70+0xe>
    108d:	6174                	0x6174
    108f:	702d6b63          	bltu	s10,sp,17a5 <.LASF70+0x1b>
    1093:	6f72                	bnez	a4,116f <.LASF54+0x4>
    1095:	6574                	sltu	a0,a0,a3
    1097:	726f7463          	bleu	t1,t5,17bf <.LASF72+0xb>
	...

0000109c <.LASF8>:
    109c:	6975                	bltz	a0,1158 <.LASF36+0x2>
    109e:	746e                	bnez	s0,1018 <.LASF11+0x3>
    10a0:	3436                	jal	acc <.LASF28+0xb>
    10a2:	745f 7300 5f68      	0x5f687300745f

000010a5 <.LASF32>:
    10a5:	615f6873          	csrrs	a6,0x615,30
    10a9:	6464                	sltu	s0,s0,s1
    10ab:	0072                	j	10c7 <.LASF28+0xa>

000010ad <.LASF47>:
    10ad:	5f70                	sw	a2,124(a4)
    10af:	6c61                	bltz	s0,1187 <.LASF70+0x7>
    10b1:	6769                	bltz	a4,110b <.LASF4+0x4>
    10b3:	006e                	j	10ed <.LASF26+0x5>

000010b5 <.LASF23>:
    10b5:	5f65                	sw	s9,188(sp)
    10b7:	6870                	0x6870
    10b9:	756e                	bnez	a0,1033 <.LASF21+0x5>
    10bb:	006d                	0x6d

000010bd <.LASF28>:
    10bd:	6c45                	bltz	s0,11ad <.LASF69+0x5>
    10bf:	3666                	jal	bf7 <.LASF51+0x11>
    10c1:	5f34                	sw	a3,120(a4)
    10c3:	72646853          	0x72646853
	...

000010c8 <.LASF16>:
    10c8:	5f65                	sw	s9,188(sp)
    10ca:	6576                	bnez	a0,1146 <.LASF71+0x4>
    10cc:	7372                	bnez	a4,fe8 <.LASF62+0x14>
    10ce:	6f69                	bltz	a4,11a8 <.LASF69>
    10d0:	006e                	j	110a <.LASF4+0x3>

000010d2 <.LASF34>:
    10d2:	735f6873          	csrrs	a6,0x735,30
    10d6:	7a69                	bltz	a2,1070 <.LASF72+0x19>
    10d8:	0065                	0x65

000010da <.LASF3>:
    10da:	6e75                	bltz	a2,11d6 <.LASF62+0x11>
    10dc:	6e676973          	csrrs	s2,0x6e6,14
    10e0:	6465                	bltz	s0,1158 <.LASF36+0x2>
    10e2:	6320                	sra	a4,a4,s0
    10e4:	6168                	0x6168
    10e6:	0072                	j	1102 <.LASF19+0x3>

000010e8 <.LASF26>:
    10e8:	5f65                	sw	s9,188(sp)
    10ea:	74736873          	csrrs	a6,0x747,6
    10ee:	6e72                	bnez	a2,11ca <.LASF62+0x5>
    10f0:	7864                	0x7864
	...

000010f3 <.LASF65>:
    10f3:	756e                	bnez	a0,106d <.LASF72+0x16>
    10f5:	536d                	sw	s11,164(sp)
    10f7:	6365                	bltz	a4,112f <.LASF50+0xc>
    10f9:	6974                	0x6974
    10fb:	00736e6f          	jal	t3,37901 <.L0 +0x23651>

000010ff <.LASF19>:
    10ff:	5f65                	sw	s9,188(sp)
    1101:	666f6873          	csrrs	a6,0x666,30
    1105:	0066                	j	113d <.LASF55+0xa>

00001107 <.LASF4>:
    1107:	726f6873          	csrrs	a6,0x726,30
    110b:	2074                	0x2074
    110d:	6e75                	bltz	a2,1209 <.LASF9+0x5>
    110f:	6e676973          	csrrs	s2,0x6e6,14
    1113:	6465                	bltz	s0,118b <.LASF70+0xb>
    1115:	6920                	0x6920
    1117:	746e                	bnez	s0,1091 <.LASF72+0x3a>
	...

0000111a <.LASF42>:
    111a:	5f70                	sw	a2,124(a4)
    111c:	7366666f          	jal	a2,67852 <.L0 +0x535a2>
    1120:	7465                	bltz	s0,1098 <.LASF72+0x41>
	...

00001123 <.LASF50>:
    1123:	6c65                	bltz	s0,121b <.LASF37>
    1125:	3666                	jal	c5d <.LASF38+0x6>
    1127:	5f34                	sw	a3,120(a4)
    1129:	63656863          	bltu	a0,s6,1759 <.LASF89+0x8>
    112d:	6c69466b          	0x6c69466b
    1131:	0065                	0x65

00001133 <.LASF55>:
    1133:	69727473          	csrrc	s0,0x697,4
    1137:	676e                	bnez	a4,11b1 <.LASF35>
    1139:	735f 6765 656d      	0x656d6765735f
    113f:	746e                	bnez	s0,10b9 <.LASF23+0x4>
	...

00001142 <.LASF71>:
    1142:	6c65                	bltz	s0,123a <.LASF61+0x12>
    1144:	3666                	jal	c7c <.LASF71+0xa>
    1146:	5f34                	sw	a3,120(a4)
    1148:	45746567          	0x45746567
    114c:	746e                	bnez	s0,10c6 <.LASF28+0x9>
    114e:	7972                	bnez	a0,10ea <.LASF26+0x2>
    1150:	6f50                	slt	a2,a4,a2
    1152:	6e69                	bltz	a2,122c <.LASF61+0x4>
    1154:	0074                	0x74

00001156 <.LASF36>:
    1156:	695f6873          	csrrs	a6,0x695,30
    115a:	666e                	bnez	a2,11d4 <.LASF62+0xf>
    115c:	5f65006f          	j	51752 <.L0 +0x3d4a2>

0000115e <.LASF17>:
    115e:	5f65                	sw	s9,188(sp)
    1160:	6e65                	bltz	a2,1258 <.LASF33+0x1>
    1162:	7274                	0x7274
    1164:	0079                	0x79

00001166 <.LASF48>:
    1166:	6966                	bnez	a0,121e <.LASF37+0x3>
    1168:	656c                	sltu	a0,a0,a1
	...

0000116b <.LASF54>:
    116b:	6c65                	bltz	s0,1263 <.LASF15+0x2>
    116d:	3666                	jal	ca5 <.LASF71+0x33>
    116f:	5f34                	sw	a3,120(a4)
    1171:	53746567          	0x53746567
    1175:	7274                	0x7274
    1177:	6e69                	bltz	a2,1251 <.LASF14+0x1>
    1179:	62615467          	0x62615467
    117d:	656c                	sltu	a0,a0,a1
	...

00001180 <.LASF70>:
    1180:	6c65                	bltz	s0,1278 <.LASF29>
    1182:	3666                	jal	cba <.LASF8+0x3>
    1184:	5f34                	sw	a3,120(a4)
    1186:	53746567          	0x53746567
    118a:	6765                	bltz	a4,1202 <.LASF51+0x1b>
    118c:	656d                	bltz	a0,1206 <.LASF9+0x2>
    118e:	746e                	bnez	s0,1108 <.LASF4+0x1>
    1190:	6e49                	bltz	a2,1262 <.LASF15+0x1>
    1192:	6f66                	bnez	a4,128a <.LASF24+0x1>
	...

00001195 <.LASF46>:
    1195:	5f70                	sw	a2,124(a4)
    1197:	656d                	bltz	a0,1211 <.LASF9+0xd>
    1199:	736d                	bltz	a4,10d3 <.LASF34+0x1>
    119b:	007a                	j	11b9 <.LASF22>

0000119d <.LASF38>:
    119d:	655f6873          	csrrs	a6,0x655,30
    11a1:	746e                	bnez	s0,111b <.LASF42+0x1>
    11a3:	657a6973          	csrrs	s2,0x657,20
	...

000011a8 <.LASF69>:
    11a8:	6d676573          	csrrs	a0,0x6d6,14
    11ac:	6e65                	bltz	a2,12a4 <.LASF73+0xf>
    11ae:	7374                	0x7374
	...

000011b1 <.LASF35>:
    11b1:	6c5f6873          	csrrs	a6,0x6c5,30
    11b5:	6e69                	bltz	a2,128f <.LASF24+0x6>
    11b7:	5f65006b          	0x5f65006b

000011b9 <.LASF22>:
    11b9:	5f65                	sw	s9,188(sp)
    11bb:	6870                	0x6870
    11bd:	6e65                	bltz	a2,12b5 <.LASF73+0x20>
    11bf:	7374                	0x7374
    11c1:	7a69                	bltz	a2,115b <.LASF36+0x5>
    11c3:	0065                	0x65

000011c5 <.LASF62>:
    11c5:	6c65                	bltz	s0,12bd <.LASF73+0x28>
    11c7:	3666                	jal	cff <.LASF53+0x7>
    11c9:	5f34                	sw	a3,120(a4)
    11cb:	53746567          	0x53746567
    11cf:	6365                	bltz	a4,1207 <.LASF9+0x3>
    11d1:	6974                	0x6974
    11d3:	64416e6f          	jal	t3,17817 <.L0 +0x3567>
    11d7:	7264                	0x7264
	...

000011da <.LASF7>:
    11da:	6e75                	bltz	a2,12d6 <.LASF73+0x41>
    11dc:	6e676973          	csrrs	s2,0x6e6,14
    11e0:	6465                	bltz	s0,1258 <.LASF33+0x1>
    11e2:	6920                	0x6920
    11e4:	746e                	bnez	s0,115e <.LASF17>
	...

000011e7 <.LASF51>:
    11e7:	6c65                	bltz	s0,12df <.LASF73+0x4a>
    11e9:	3666                	jal	d21 <.LASF56+0x1>
    11eb:	5f34                	sw	a3,120(a4)
    11ed:	50746567          	0x50746567
    11f1:	6f72                	bnez	a4,12cd <.LASF73+0x38>
    11f3:	6d617267          	0x6d617267
    11f7:	6d676553          	0x6d676553
    11fb:	6e65                	bltz	a2,12f3 <.LASF73+0x5e>
    11fd:	5474                	sw	a3,108(s0)
    11ff:	6261                	bltz	a2,1217 <.LASF9+0x13>
    1201:	656c                	sltu	a0,a0,a1
	...

00001204 <.LASF9>:
    1204:	6f6c                	sltu	a1,a4,a1
    1206:	676e                	bnez	a4,1280 <.LASF12>
    1208:	6c20                	srl	s0,s0,s0
    120a:	20676e6f          	jal	t3,77410 <.L0 +0x63160>
    120e:	6e75                	bltz	a2,130a <.LASF43+0x2>
    1210:	6e676973          	csrrs	s2,0x6e6,14
    1214:	6465                	bltz	s0,128c <.LASF24+0x3>
    1216:	6920                	0x6920
    1218:	746e                	bnez	s0,1192 <.LASF70+0x12>
	...

0000121b <.LASF37>:
    121b:	615f6873          	csrrs	a6,0x615,30
    121f:	6464                	sltu	s0,s0,s1
    1221:	6172                	bnez	a0,123d <.LASF18>
    1223:	696c                	0x696c
    1225:	65006e67          	0x65006e67

00001228 <.LASF61>:
    1228:	6c65                	bltz	s0,1320 <.LASF74+0x7>
    122a:	3666                	jal	d62 <.LASF72+0x3>
    122c:	5f34                	sw	a3,120(a4)
    122e:	53746567          	0x53746567
    1232:	6365                	bltz	a4,126a <.LASF15+0x9>
    1234:	6974                	0x6974
    1236:	69536e6f          	jal	t3,380ca <.L0 +0x23e1a>
    123a:	657a                	bnez	a0,1298 <.LASF73+0x3>
	...

0000123d <.LASF18>:
    123d:	5f65                	sw	s9,188(sp)
    123f:	6870                	0x6870
    1241:	0066666f          	jal	a2,67247 <.L0 +0x52f97>

00001245 <.LASF39>:
    1245:	6c45                	bltz	s0,1335 <.LASF30+0x6>
    1247:	3666                	jal	d7f <.LASF72+0x20>
    1249:	5f34                	sw	a3,120(a4)
    124b:	6850                	0x6850
    124d:	7264                	0x7264
	...

00001250 <.LASF14>:
    1250:	5f65                	sw	s9,188(sp)
    1252:	7974                	0x7974
    1254:	6570                	sltu	a0,a0,a2
	...

00001257 <.LASF33>:
    1257:	6f5f6873          	csrrs	a6,0x6f5,30
    125b:	6666                	bnez	a2,12d3 <.LASF73+0x3e>
    125d:	00746573          	csrrs	a0,0x7,8

00001261 <.LASF15>:
    1261:	5f65                	sw	s9,188(sp)
    1263:	616d                	bltz	a0,129d <.LASF73+0x8>
    1265:	6e696863          	bltu	s2,t1,1955 <.LASF52+0x9>
    1269:	0065                	0x65

0000126b <.LASF27>:
    126b:	6c45                	bltz	s0,135b <.LASF60+0x9>
    126d:	3666                	jal	da5 <.LASF72+0x46>
    126f:	5f34                	sw	a3,120(a4)
    1271:	6548                	slt	a0,a0,a0
    1273:	6461                	bltz	s0,12cb <.LASF73+0x36>
    1275:	7265                	bltz	a2,11ad <.LASF69+0x5>
	...

00001278 <.LASF29>:
    1278:	6e5f6873          	csrrs	a6,0x6e5,30
    127c:	6d61                	bltz	a0,1354 <.LASF60+0x2>
    127e:	0065                	0x65

00001280 <.LASF12>:
    1280:	657a6973          	csrrs	s2,0x657,20
    1284:	7974                	0x7974
    1286:	6570                	sltu	a0,a0,a2
	...

00001289 <.LASF24>:
    1289:	5f65                	sw	s9,188(sp)
    128b:	6e656873          	csrrs	a6,0x6e6,10
    128f:	7374                	0x7374
    1291:	7a69                	bltz	a2,122b <.LASF61+0x3>
    1293:	0065                	0x65

00001295 <.LASF73>:
    1295:	6d6f682f          	0x6d6f682f
    1299:	2f65                	srli	t5,t5,0x19
    129b:	6568                	sltu	a0,a0,a0
    129d:	6d616873          	csrrs	a6,0x6d6,2
    12a1:	6f72502f          	0x6f72502f
    12a5:	656a                	bnez	a0,12ff <.LASF41+0x4>
    12a7:	2f737463          	bleu	s7,t1,158f <.LASF110+0x18>
    12ab:	344c6573          	csrrs	a0,mip,24
    12af:	4c65732f          	0x4c65732f
    12b3:	7234                	0x7234
    12b5:	7369                	bltz	a4,11cf <.LASF62+0xa>
    12b7:	6d2d7663          	bleu	s2,s10,1983 <.LASF51+0x14>
    12bb:	6c75                	bltz	s0,13b7 <.LASF0+0x1>
    12bd:	6974                	0x6974
    12bf:	6e72656b          	0x6e72656b
    12c3:	6c65                	bltz	s0,13bb <.LASF0+0x5>
    12c5:	6f6f742f          	0x6f6f742f
    12c9:	736c                	0x736c
    12cb:	6d6f632f          	0x6d6f632f
    12cf:	6f6d                	bltz	a4,13c9 <.LASF58+0x7>
    12d1:	2f6e                	jal	1a8b <.LASF92+0x5>
    12d3:	2e2e                	jal	19fd <.LASF60+0x14>
    12d5:	666c652f          	0x666c652f
    12d9:	6f6c                	sltu	a1,a4,a1
    12db:	6461                	bltz	s0,1333 <.LASF30+0x4>
    12dd:	7265                	bltz	a2,1215 <.LASF9+0x11>
    12df:	6372732f          	0x6372732f
    12e3:	6372612f          	0x6372612f
    12e7:	2d68                	srai	s10,s10,0x1a
    12e9:	6972                	bnez	a0,1385 <.LASF63+0xb>
    12eb:	2f766373          	csrrs	t1,0x2f7,12
    12ef:	6c65                	bltz	s0,13e7 <.LASF59+0x9>
    12f1:	2f66                	jal	1aa9 <.LASF84+0x10>
    12f3:	6c65                	bltz	s0,13eb <.LASF59+0xd>
    12f5:	3666                	jal	e2d <.LASF68+0x1>
    12f7:	2e34                	srai	t3,t3,0xd
    12f9:	5f700063          	beq	zero,s7,18d9 <.LASF87+0x5>

000012fb <.LASF41>:
    12fb:	5f70                	sw	a2,124(a4)
    12fd:	6c66                	bnez	s0,13f5 <.LASF13+0x2>
    12ff:	6761                	bltz	a4,1357 <.LASF60+0x5>
    1301:	68630073          	0x68630073

00001303 <.LASF57>:
    1303:	72616863          	bltu	sp,t1,1a33 <.LASF66+0x2>
	...

00001308 <.LASF43>:
    1308:	5f70                	sw	a2,124(a4)
    130a:	6176                	bnez	a0,1346 <.LASF20+0x5>
    130c:	6464                	sltu	s0,s0,s1
    130e:	0072                	j	132a <.LASF74+0x11>

00001310 <.LASF31>:
    1310:	665f6873          	csrrs	a6,0x665,30
    1314:	616c                	0x616c
    1316:	65007367          	0x65007367

00001319 <.LASF74>:
    1319:	6c65                	bltz	s0,1411 <.LASF66+0xd>
    131b:	3666                	jal	e53 <.LASF20+0x5>
    131d:	5f34                	sw	a3,120(a4)
    131f:	53746567          	0x53746567
    1323:	6365                	bltz	a4,135b <.LASF60+0x9>
    1325:	6974                	0x6974
    1327:	61546e6f          	jal	t3,4813b <.L0 +0x33e8b>
    132b:	6c62                	bnez	s0,1403 <.LASF56+0x8>
    132d:	0065                	0x65

0000132f <.LASF30>:
    132f:	745f6873          	csrrs	a6,0x745,30
    1333:	7079                	bltz	s0,1251 <.LASF14+0x1>
    1335:	0065                	0x65

00001337 <.LASF1>:
    1337:	726f6873          	csrrs	a6,0x726,30
    133b:	2074                	0x2074
    133d:	6e69                	bltz	a2,1417 <.LASF66+0x13>
    133f:	0074                	0x74

00001341 <.LASF20>:
    1341:	5f65                	sw	s9,188(sp)
    1343:	6c66                	bnez	s0,143b <.LASF77+0xc>
    1345:	6761                	bltz	a4,139d <.LASF64+0x12>
    1347:	69750073          	0x69750073

00001349 <.LASF5>:
    1349:	6975                	bltz	a0,1405 <.LASF66+0x1>
    134b:	746e                	bnez	s0,12c5 <.LASF73+0x30>
    134d:	3631                	srli	a2,a2,0x2c
    134f:	745f 7300 7274      	0x72747300745f

00001352 <.LASF60>:
    1352:	5f727473          	csrrc	s0,0x5f7,4
    1356:	6174                	0x6174
    1358:	6c62                	bnez	s0,1430 <.LASF77+0x1>
    135a:	0065                	0x65

0000135c <.LASF67>:
    135c:	6c65                	bltz	s0,1454 <.LASF97+0xb>
    135e:	3666                	jal	e96 <.LASF9+0x12>
    1360:	5f34                	sw	a3,120(a4)
    1362:	53746567          	0x53746567
    1366:	6765                	bltz	a4,13de <.LASF59>
    1368:	656d                	bltz	a0,13e2 <.LASF59+0x4>
    136a:	746e                	bnez	s0,12e4 <.LASF73+0x4f>
    136c:	7954                	0x7954
    136e:	6570                	sltu	a0,a0,a2
	...

00001371 <.LASF6>:
    1371:	6975                	bltz	a0,142d <.LASF108+0x6>
    1373:	746e                	bnez	s0,12ed <.LASF73+0x58>
    1375:	745f3233          	0x745f3233
	...

0000137a <.LASF63>:
    137a:	6c65                	bltz	s0,1472 <.LASF64+0xc>
    137c:	3666                	jal	eb4 <.LASF16+0x5>
    137e:	5f34                	sw	a3,120(a4)
    1380:	53746567          	0x53746567
    1384:	6365                	bltz	a4,13bc <.LASF0+0x6>
    1386:	6974                	0x6974
    1388:	65006e6f          	jal	t3,79d8 <.Ldebug_info0+0x4e4b>

0000138b <.LASF64>:
    138b:	6c65                	bltz	s0,1483 <.LASF62+0x8>
    138d:	3666                	jal	ec5 <.LASF32+0x7>
    138f:	5f34                	sw	a3,120(a4)
    1391:	53746567          	0x53746567
    1395:	6365                	bltz	a4,13cd <.LASF58+0xb>
    1397:	6974                	0x6974
    1399:	614e6e6f          	jal	t3,e79ad <.L0 +0xd36fd>
    139d:	656d                	bltz	a0,1417 <.LASF66+0x13>
    139f:	0064                	0x64

000013a1 <.LASF53>:
    13a1:	6c65                	bltz	s0,1499 <.LASF74+0x1>
    13a3:	3666                	jal	edb <.LASF25+0x1>
    13a5:	5f34                	sw	a3,120(a4)
    13a7:	4e746567          	0x4e746567
    13ab:	6d75                	bltz	a0,14a7 <.LASF16+0x7>
    13ad:	74636553          	0x74636553
    13b1:	6f69                	bltz	a4,148b <.LASF62+0x10>
    13b3:	736e                	bnez	a4,12ed <.LASF73+0x58>
	...

000013b6 <.LASF0>:
    13b6:	6e676973          	csrrs	s2,0x6e6,14
    13ba:	6465                	bltz	s0,1432 <.LASF77+0x3>
    13bc:	6320                	sra	a4,a4,s0
    13be:	6168                	0x6168
    13c0:	0072                	j	13dc <.LASF58+0x1a>

000013c2 <.LASF58>:
    13c2:	6c65                	bltz	s0,14ba <.LASF1+0x4>
    13c4:	3666                	jal	efc <.LASF2+0xd>
    13c6:	5f34                	sw	a3,120(a4)
    13c8:	53746567          	0x53746567
    13cc:	6765                	bltz	a4,1444 <.LASF77+0x15>
    13ce:	656d                	bltz	a0,1448 <.LASF77+0x19>
    13d0:	746e                	bnez	s0,134a <.LASF5+0x1>
    13d2:	69727453          	0x69727453
    13d6:	676e                	bnez	a4,1450 <.LASF97+0x7>
    13d8:	6154                	0x6154
    13da:	6c62                	bnez	s0,14b2 <.LASF8+0x5>
    13dc:	0065                	0x65

000013de <.LASF59>:
    13de:	6c65                	bltz	s0,14d6 <.LASF43+0x6>
    13e0:	3666                	jal	f18 <.LASF45+0x5>
    13e2:	5f34                	sw	a3,120(a4)
    13e4:	53746567          	0x53746567
    13e8:	6365                	bltz	a4,1420 <.LASF25+0x1>
    13ea:	6974                	0x6974
    13ec:	614e6e6f          	jal	t3,e7a00 <.L0 +0xd3750>
    13f0:	656d                	bltz	a0,146a <.LASF64+0x4>
	...

000013f3 <.LASF13>:
    13f3:	5f65                	sw	s9,188(sp)
    13f5:	6469                	bltz	s0,144f <.LASF97+0x6>
    13f7:	6e65                	bltz	a2,14ef <.LASF100+0x7>
    13f9:	0074                	0x74

000013fb <.LASF56>:
    13fb:	74636573          	csrrs	a0,0x746,6
    13ff:	6f69                	bltz	a4,14d9 <.LASF107+0x1>
    1401:	736e                	bnez	a4,133b <.LASF1+0x4>
	...

00001404 <.LASF66>:
    1404:	6c65                	bltz	s0,14fc <.LASF28+0x2>
    1406:	3666                	jal	f3e <.LASF1+0x5>
    1408:	5f34                	sw	a3,120(a4)
    140a:	4e746567          	0x4e746567
    140e:	6d75                	bltz	a0,150a <.LASF21+0x5>
    1410:	7250                	0x7250
    1412:	6172676f          	jal	a4,28228 <.L0 +0x13f78>
    1416:	486d                	sw	s11,16(sp)
    1418:	6165                	bltz	a0,1450 <.LASF97+0x7>
    141a:	6564                	sltu	a0,a0,s1
    141c:	7372                	bnez	a4,1338 <.LASF1+0x1>
	...

0000141f <.LASF25>:
    141f:	5f65                	sw	s9,188(sp)
    1421:	756e6873          	csrrs	a6,0x756,28
    1425:	006d                	0x6d

00001427 <.LASF108>:
    1427:	6870                	0x6870
    1429:	765f 7269 0074      	0x747269765f

0000142f <.LASF77>:
    142f:	6c65                	bltz	s0,1527 <.LASF53+0x1>
    1431:	5f66                	beqz	a4,1429 <.LASF108+0x2>
    1433:	50746567          	0x50746567
    1437:	6f72                	bnez	a4,1513 <.LASF36+0x2>
    1439:	6d617267          	0x6d617267
    143d:	6548                	slt	a0,a0,a0
    143f:	6461                	bltz	s0,1497 <.LASF62+0x1c>
    1441:	7265                	bltz	a2,1379 <.LASF6+0x8>
    1443:	6c46                	bnez	s0,1533 <.LASF63+0x8>
    1445:	6761                	bltz	a4,149d <.LASF74+0x5>
    1447:	6c650073          	0x6c650073

00001449 <.LASF97>:
    1449:	6c65                	bltz	s0,1541 <.LASF56>
    144b:	5f66                	beqz	a4,1443 <.LASF77+0x14>
    144d:	45746567          	0x45746567
    1451:	746e                	bnez	s0,13cb <.LASF58+0x9>
    1453:	7972                	bnez	a0,13ef <.LASF59+0x11>
    1455:	6f50                	slt	a2,a4,a2
    1457:	6e69                	bltz	a2,1531 <.LASF63+0x6>
    1459:	0074                	0x74

0000145b <.LASF25>:
    145b:	5f65                	sw	s9,188(sp)
    145d:	74736873          	csrrs	a6,0x747,6
    1461:	6e72                	bnez	a2,153d <.LASF63+0x12>
    1463:	7864                	0x7864
	...

00001466 <.LASF64>:
    1466:	6c65                	bltz	s0,155e <.LASF38+0x1>
    1468:	3666                	jal	fa0 <.LASF69+0xe>
    146a:	5f34                	sw	a3,120(a4)
    146c:	53746567          	0x53746567
    1470:	6365                	bltz	a4,14a8 <.LASF99>
    1472:	6974                	0x6974
    1474:	79546e6f          	jal	t3,48408 <.L0 +0x34158>
    1478:	6570                	sltu	a0,a0,a2
	...

0000147b <.LASF62>:
    147b:	6c65                	bltz	s0,1573 <.LASF40+0x3>
    147d:	3366                	jal	e35 <.LASF34>
    147f:	5f32                	beqz	a4,144b <.LASF97+0x2>
    1481:	50746567          	0x50746567
    1485:	6f72                	bnez	a4,1561 <.LASF38+0x4>
    1487:	6d617267          	0x6d617267
    148b:	6548                	slt	a0,a0,a0
    148d:	6461                	bltz	s0,14e5 <.LASF19+0x5>
    148f:	7265                	bltz	a2,13c7 <.LASF58+0x5>
    1491:	7366664f          	fnmadd.d	fa2,fa2,fs6,fa4,unknown
    1495:	7465                	bltz	s0,140d <.LASF66+0x9>
	...

00001498 <.LASF74>:
    1498:	6c65                	bltz	s0,1590 <.LASF83>
    149a:	4666                	beqz	a2,1512 <.LASF36+0x1>
    149c:	6c69                	bltz	s0,1576 <.LASF40+0x6>
    149e:	0065                	0x65

000014a0 <.LASF16>:
    14a0:	5f65                	sw	s9,188(sp)
    14a2:	6e65                	bltz	a2,159a <.LASF83+0xa>
    14a4:	7274                	0x7274
    14a6:	0079                	0x79

000014a8 <.LASF99>:
    14a8:	6870                	0x6870
    14aa:	7379                	bltz	a4,13c8 <.LASF58+0x6>
	...

000014ad <.LASF8>:
    14ad:	6975                	bltz	a0,1569 <.LASF42+0x1>
    14af:	746e                	bnez	s0,1429 <.LASF108+0x2>
    14b1:	3436                	jal	edd <.LASF25+0x3>
    14b3:	745f 7300 6f68      	0x6f687300745f

000014b6 <.LASF1>:
    14b6:	726f6873          	csrrs	a6,0x726,30
    14ba:	2074                	0x2074
    14bc:	6e69                	bltz	a2,1596 <.LASF83+0x6>
    14be:	0074                	0x74

000014c0 <.LASF11>:
    14c0:	657a6973          	csrrs	s2,0x657,20
    14c4:	745f 7300 7a69      	0x7a697300745f

000014c7 <.LASF26>:
    14c7:	657a6973          	csrrs	s2,0x657,20
    14cb:	7974                	0x7974
    14cd:	6570                	sltu	a0,a0,a2
	...

000014d0 <.LASF43>:
    14d0:	5f70                	sw	a2,124(a4)
    14d2:	6170                	0x6170
    14d4:	6464                	sltu	s0,s0,s1
    14d6:	0072                	j	14f2 <.LASF14+0x2>

000014d8 <.LASF107>:
    14d8:	6870                	0x6870
    14da:	705f 7968 0073      	0x737968705f

000014e0 <.LASF19>:
    14e0:	5f65                	sw	s9,188(sp)
    14e2:	6c66                	bnez	s0,15da <.LASF23+0xb>
    14e4:	6761                	bltz	a4,153c <.LASF63+0x11>
    14e6:	656d0073          	0x656d0073

000014e8 <.LASF100>:
    14e8:	656d                	bltz	a0,1562 <.LASF38+0x5>
    14ea:	5f6d                	sw	s11,188(sp)
    14ec:	696d                	bltz	a0,15a6 <.LASF83+0x16>
    14ee:	006e                	j	1528 <.LASF53+0x2>

000014f0 <.LASF14>:
    14f0:	5f65                	sw	s9,188(sp)
    14f2:	616d                	bltz	a0,152c <.LASF63+0x1>
    14f4:	6e696863          	bltu	s2,t1,1be4 <.LASF51+0x12>
    14f8:	0065                	0x65

000014fa <.LASF28>:
    14fa:	6c45                	bltz	s0,15ea <.LASF113+0xf>
    14fc:	3366                	jal	eb4 <.LASF16+0x5>
    14fe:	5f32                	beqz	a4,14ca <.LASF26+0x3>
    1500:	72646853          	0x72646853
	...

00001505 <.LASF21>:
    1505:	5f65                	sw	s9,188(sp)
    1507:	6870                	0x6870
    1509:	6e65                	bltz	a2,1601 <.LASF113+0x26>
    150b:	7374                	0x7374
    150d:	7a69                	bltz	a2,14a7 <.LASF16+0x7>
    150f:	0065                	0x65

00001511 <.LASF36>:
    1511:	695f6873          	csrrs	a6,0x695,30
    1515:	666e                	bnez	a2,158f <.LASF110+0x18>
    1517:	6c65006f          	j	51bdd <.L0 +0x3d92d>

00001519 <.LASF111>:
    1519:	6c65                	bltz	s0,1611 <.LASF113+0x36>
    151b:	5f66                	beqz	a4,1513 <.LASF36+0x2>
    151d:	6f6c                	sltu	a1,a4,a1
    151f:	6461                	bltz	s0,1577 <.LASF110>
    1521:	6946                	bnez	a0,15d1 <.LASF23+0x2>
    1523:	656c                	sltu	a0,a0,a1
	...

00001526 <.LASF53>:
    1526:	6966                	bnez	a0,15de <.LASF113+0x3>
    1528:	656c                	sltu	a0,a0,a1
	...

0000152b <.LASF63>:
    152b:	6c65                	bltz	s0,1623 <.LASF98+0x3>
    152d:	3666                	jal	1065 <.LASF72+0xe>
    152f:	5f34                	sw	a3,120(a4)
    1531:	53746567          	0x53746567
    1535:	6365                	bltz	a4,156d <.LASF42+0x5>
    1537:	6974                	0x6974
    1539:	61546e6f          	jal	t3,4834d <.L0 +0x3409d>
    153d:	6c62                	bnez	s0,1615 <.LASF113+0x3a>
    153f:	0065                	0x65

00001541 <.LASF56>:
    1541:	6c65                	bltz	s0,1639 <.LASF88+0x5>
    1543:	3366                	jal	efb <.LASF2+0xc>
    1545:	5f32                	beqz	a4,1511 <.LASF36>
    1547:	50746567          	0x50746567
    154b:	6f72                	bnez	a4,1627 <.LASF98+0x7>
    154d:	6d617267          	0x6d617267
    1551:	6548                	slt	a0,a0,a0
    1553:	6461                	bltz	s0,15ab <.LASF10>
    1555:	7265                	bltz	a2,148d <.LASF62+0x12>
    1557:	6c46                	bnez	s0,1647 <.LASF13>
    1559:	6761                	bltz	a4,15b1 <.LASF10+0x6>
    155b:	68730073          	0x68730073

0000155d <.LASF38>:
    155d:	655f6873          	csrrs	a6,0x655,30
    1561:	746e                	bnez	s0,14db <.LASF107+0x3>
    1563:	657a6973          	csrrs	s2,0x657,20
	...

00001568 <.LASF42>:
    1568:	5f70                	sw	a2,124(a4)
    156a:	6176                	bnez	a0,15a6 <.LASF83+0x16>
    156c:	6464                	sltu	s0,s0,s1
    156e:	0072                	j	158a <.LASF110+0x13>

00001570 <.LASF40>:
    1570:	5f70                	sw	a2,124(a4)
    1572:	7974                	0x7974
    1574:	6570                	sltu	a0,a0,a2
	...

00001577 <.LASF110>:
    1577:	6c65                	bltz	s0,166f <.LASF20+0x8>
    1579:	5f66                	beqz	a4,1571 <.LASF40+0x1>
    157b:	50746567          	0x50746567
    157f:	6f72                	bnez	a4,165b <.LASF76+0xd>
    1581:	6d617267          	0x6d617267
    1585:	6548                	slt	a0,a0,a0
    1587:	6461                	bltz	s0,15df <.LASF113+0x4>
    1589:	7265                	bltz	a2,14c1 <.LASF11+0x1>
    158b:	6e49                	bltz	a2,165d <.LASF76+0xf>
    158d:	6f66                	bnez	a4,1685 <.LASF80+0x7>
	...

00001590 <.LASF83>:
    1590:	6c65                	bltz	s0,1688 <.LASF80+0xa>
    1592:	5f66                	beqz	a4,158a <.LASF110+0x13>
    1594:	50746567          	0x50746567
    1598:	6f72                	bnez	a4,1674 <.LASF2+0x4>
    159a:	6d617267          	0x6d617267
    159e:	6548                	slt	a0,a0,a0
    15a0:	6461                	bltz	s0,15f8 <.LASF113+0x1d>
    15a2:	7265                	bltz	a2,14da <.LASF107+0x2>
    15a4:	7366664f          	fnmadd.d	fa2,fa2,fs6,fa4,unknown
    15a8:	7465                	bltz	s0,1520 <.LASF111+0x7>
	...

000015ab <.LASF10>:
    15ab:	6975                	bltz	a0,1667 <.LASF20>
    15ad:	746e                	bnez	s0,1527 <.LASF53+0x1>
    15af:	7470                	0x7470
    15b1:	5f72                	beqz	a4,158d <.LASF110+0x16>
    15b3:	0074                	0x74

000015b5 <.LASF79>:
    15b5:	6c65                	bltz	s0,16ad <.LASF73+0x10>
    15b7:	5f66                	beqz	a4,15af <.LASF10+0x4>
    15b9:	50746567          	0x50746567
    15bd:	6f72                	bnez	a4,1699 <.LASF85+0x1>
    15bf:	6d617267          	0x6d617267
    15c3:	6548                	slt	a0,a0,a0
    15c5:	6461                	bltz	s0,161d <.LASF113+0x42>
    15c7:	7265                	bltz	a2,14ff <.LASF28+0x5>
    15c9:	6150                	0x6150
    15cb:	6464                	sltu	s0,s0,s1
    15cd:	0072                	j	15e9 <.LASF113+0xe>

000015cf <.LASF23>:
    15cf:	5f65                	sw	s9,188(sp)
    15d1:	6e656873          	csrrs	a6,0x6e6,10
    15d5:	7374                	0x7374
    15d7:	7a69                	bltz	a2,1571 <.LASF40+0x1>
    15d9:	0065                	0x65

000015db <.LASF113>:
    15db:	20554e47          	fmsub.s	ft8,fa0,ft5,ft4,rmm
    15df:	20313143          	fmadd.s	ft2,ft2,ft3,ft4,rup
    15e3:	2e35                	srli	t3,t3,0xd
    15e5:	2e32                	jal	1cf1 <.LASF21+0x10>
    15e7:	2030                	0x2030
    15e9:	6d2d                	bltz	a0,16d3 <.LASF103+0x6>
    15eb:	2d203233          	0x2d203233
    15ef:	732d2067          	0x732d2067
    15f3:	6474                	sltu	s0,s0,a3
    15f5:	673d                	bltz	a4,1663 <.LASF76+0x15>
    15f7:	756e                	bnez	a0,1571 <.LASF40+0x1>
    15f9:	3131                	srli	sp,sp,0x2c
    15fb:	2d20                	srai	s10,s10,0x8
    15fd:	6666                	bnez	a2,1675 <.LASF2+0x5>
    15ff:	6572                	bnez	a0,165b <.LASF76+0xd>
    1601:	7365                	bltz	a4,1539 <.LASF63+0xe>
    1603:	6174                	0x6174
    1605:	646e                	bnez	s0,167f <.LASF80+0x1>
    1607:	6e69                	bltz	a2,16e1 <.LASF68+0x6>
    1609:	662d2067          	0x662d2067
    160d:	6f6e                	bnez	a4,1707 <.LASF95+0x2>
    160f:	732d                	bltz	a4,1539 <.LASF63+0xe>
    1611:	6174                	0x6174
    1613:	702d6b63          	bltu	s10,sp,1d29 <.LASF39+0x7>
    1617:	6f72                	bnez	a4,16f3 <.LASF68+0x18>
    1619:	6574                	sltu	a0,a0,a3
    161b:	726f7463          	bleu	t1,t5,1d43 <.LASF45+0x6>
	...

00001620 <.LASF98>:
    1620:	6c65                	bltz	s0,1718 <.LASF95+0x13>
    1622:	5f66                	beqz	a4,161a <.LASF113+0x3f>
    1624:	4d746567          	0x4d746567
    1628:	6d65                	bltz	a0,1720 <.LASF15+0x7>
    162a:	4279726f          	jal	tp,99250 <.L0 +0x84fa0>
    162e:	646e756f          	jal	a0,e8c74 <.L0 +0xd49c4>
    1632:	6c650073          	0x6c650073

00001634 <.LASF88>:
    1634:	6c65                	bltz	s0,172c <.LASF55+0x9>
    1636:	5f66                	beqz	a4,162e <.LASF98+0xe>
    1638:	4e746567          	0x4e746567
    163c:	6d75                	bltz	a0,1738 <.LASF55+0x15>
    163e:	74636553          	0x74636553
    1642:	6f69                	bltz	a4,171c <.LASF15+0x3>
    1644:	736e                	bnez	a4,157e <.LASF110+0x7>
	...

00001647 <.LASF13>:
    1647:	5f65                	sw	s9,188(sp)
    1649:	7974                	0x7974
    164b:	6570                	sltu	a0,a0,a2
	...

0000164e <.LASF76>:
    164e:	6c65                	bltz	s0,1746 <.LASF37+0x2>
    1650:	5f66                	beqz	a4,1648 <.LASF13+0x1>
    1652:	4e746567          	0x4e746567
    1656:	6d75                	bltz	a0,1752 <.LASF89+0x1>
    1658:	7250                	0x7250
    165a:	6172676f          	jal	a4,28470 <.L0 +0x141c0>
    165e:	486d                	sw	s11,16(sp)
    1660:	6165                	bltz	a0,1698 <.LASF85>
    1662:	6564                	sltu	a0,a0,s1
    1664:	7372                	bnez	a4,1580 <.LASF110+0x9>
	...

00001667 <.LASF20>:
    1667:	5f65                	sw	s9,188(sp)
    1669:	6865                	bltz	s0,1721 <.LASF15+0x8>
    166b:	657a6973          	csrrs	s2,0x657,20
	...

00001670 <.LASF2>:
    1670:	6f6c                	sltu	a1,a4,a1
    1672:	676e                	bnez	a4,16ec <.LASF68+0x11>
    1674:	6c20                	srl	s0,s0,s0
    1676:	20676e6f          	jal	t3,7787c <.L0 +0x635cc>
    167a:	6e69                	bltz	a2,1754 <.LASF89+0x3>
    167c:	0074                	0x74

0000167e <.LASF80>:
    167e:	6c65                	bltz	s0,1776 <.LASF82+0x9>
    1680:	5f66                	beqz	a4,1678 <.LASF2+0x8>
    1682:	50746567          	0x50746567
    1686:	6f72                	bnez	a4,1762 <.LASF89+0x11>
    1688:	6d617267          	0x6d617267
    168c:	6548                	slt	a0,a0,a0
    168e:	6461                	bltz	s0,16e6 <.LASF68+0xb>
    1690:	7265                	bltz	a2,15c8 <.LASF79+0x13>
    1692:	6156                	bnez	a0,16c6 <.LASF39+0x4>
    1694:	6464                	sltu	s0,s0,s1
    1696:	0072                	j	16b2 <.LASF73+0x15>

00001698 <.LASF85>:
    1698:	72616863          	bltu	sp,t1,1dc8 <.LASF29+0x5>
	...

0000169d <.LASF73>:
    169d:	6c65                	bltz	s0,1795 <.LASF70+0xb>
    169f:	3666                	jal	11d7 <.LASF62+0x12>
    16a1:	5f34                	sw	a3,120(a4)
    16a3:	50746567          	0x50746567
    16a7:	6f72                	bnez	a4,1783 <.LASF82+0x16>
    16a9:	6d617267          	0x6d617267
    16ad:	6548                	slt	a0,a0,a0
    16af:	6461                	bltz	s0,1707 <.LASF95+0x2>
    16b1:	7265                	bltz	a2,15e9 <.LASF113+0xe>
    16b3:	7366664f          	fnmadd.d	fa2,fa2,fs6,fa4,unknown
    16b7:	7465                	bltz	s0,162f <.LASF98+0xf>
	...

000016ba <.LASF30>:
    16ba:	745f6873          	csrrs	a6,0x745,30
    16be:	7079                	bltz	s0,15dc <.LASF113+0x1>
    16c0:	0065                	0x65

000016c2 <.LASF39>:
    16c2:	6c45                	bltz	s0,17b2 <.LASF102+0x7>
    16c4:	3366                	jal	107c <.LASF72+0x25>
    16c6:	5f32                	beqz	a4,1692 <.LASF80+0x14>
    16c8:	6850                	0x6850
    16ca:	7264                	0x7264
	...

000016cd <.LASF103>:
    16cd:	74636573          	csrrs	a0,0x746,6
    16d1:	6d5f 7861 5f00      	0x5f0078616d5f

000016d6 <.LASF96>:
    16d6:	735f 7274 6500      	0x65007274735f

000016db <.LASF68>:
    16db:	6c65                	bltz	s0,17d3 <.LASF3+0x3>
    16dd:	3666                	jal	1215 <.LASF9+0x11>
    16df:	5f34                	sw	a3,120(a4)
    16e1:	50746567          	0x50746567
    16e5:	6f72                	bnez	a4,17c1 <.LASF72+0xd>
    16e7:	6d617267          	0x6d617267
    16eb:	6548                	slt	a0,a0,a0
    16ed:	6461                	bltz	s0,1745 <.LASF37+0x1>
    16ef:	7265                	bltz	a2,1627 <.LASF98+0x7>
    16f1:	7954                	0x7954
    16f3:	6570                	sltu	a0,a0,a2
	...

000016f6 <.LASF94>:
    16f6:	6c65                	bltz	s0,17ee <.LASF78+0x5>
    16f8:	5f66                	beqz	a4,16f0 <.LASF68+0x15>
    16fa:	53746567          	0x53746567
    16fe:	6365                	bltz	a4,1736 <.LASF55+0x13>
    1700:	6974                	0x6974
    1702:	65006e6f          	jal	t3,7d52 <.Ldebug_info0+0x51c5>

00001705 <.LASF95>:
    1705:	6c65                	bltz	s0,17fd <.LASF78+0x14>
    1707:	5f66                	beqz	a4,16ff <.LASF94+0x9>
    1709:	53746567          	0x53746567
    170d:	6365                	bltz	a4,1745 <.LASF37+0x1>
    170f:	6974                	0x6974
    1711:	614e6e6f          	jal	t3,e7d25 <.L0 +0xd3a75>
    1715:	656d                	bltz	a0,178f <.LASF70+0x5>
    1717:	0064                	0x64

00001719 <.LASF15>:
    1719:	5f65                	sw	s9,188(sp)
    171b:	6576                	bnez	a0,1797 <.LASF70+0xd>
    171d:	7372                	bnez	a4,1639 <.LASF88+0x5>
    171f:	6f69                	bltz	a4,17f9 <.LASF78+0x10>
    1721:	006e                	j	175b <.LASF89+0xa>

00001723 <.LASF55>:
    1723:	6c65                	bltz	s0,181b <.LASF9+0xd>
    1725:	3366                	jal	10dd <.LASF3+0x3>
    1727:	5f32                	beqz	a4,16f3 <.LASF68+0x18>
    1729:	50746567          	0x50746567
    172d:	6f72                	bnez	a4,1809 <.LASF0+0x7>
    172f:	6d617267          	0x6d617267
    1733:	6548                	slt	a0,a0,a0
    1735:	6461                	bltz	s0,178d <.LASF70+0x3>
    1737:	7265                	bltz	a2,166f <.LASF20+0x8>
    1739:	6154                	0x6154
    173b:	6c62                	bnez	s0,1813 <.LASF9+0x5>
    173d:	0065                	0x65

0000173f <.LASF112>:
    173f:	6564                	sltu	a0,a0,s1
    1741:	73007473          	csrrc	s0,0x730,0

00001744 <.LASF37>:
    1744:	615f6873          	csrrs	a6,0x615,30
    1748:	6464                	sltu	s0,s0,s1
    174a:	6172                	bnez	a0,1766 <.LASF31+0x2>
    174c:	696c                	0x696c
    174e:	65006e67          	0x65006e67

00001751 <.LASF89>:
    1751:	6c65                	bltz	s0,1849 <.LASF5+0x6>
    1753:	5f66                	beqz	a4,174b <.LASF37+0x7>
    1755:	53746567          	0x53746567
    1759:	6365                	bltz	a4,1791 <.LASF70+0x7>
    175b:	6974                	0x6974
    175d:	614e6e6f          	jal	t3,e7d71 <.L0 +0xd3ac1>
    1761:	656d                	bltz	a0,17db <.LASF3+0xb>
	...

00001764 <.LASF31>:
    1764:	665f6873          	csrrs	a6,0x665,30
    1768:	616c                	0x616c
    176a:	65007367          	0x65007367

0000176d <.LASF82>:
    176d:	6c65                	bltz	s0,1865 <.LASF104+0xe>
    176f:	5f66                	beqz	a4,1767 <.LASF31+0x3>
    1771:	50746567          	0x50746567
    1775:	6f72                	bnez	a4,1851 <.LASF49+0x5>
    1777:	6d617267          	0x6d617267
    177b:	6548                	slt	a0,a0,a0
    177d:	6461                	bltz	s0,17d5 <.LASF3+0x5>
    177f:	7265                	bltz	a2,16b7 <.LASF73+0x1a>
    1781:	6946                	bnez	a0,1831 <.LASF6+0x4>
    1783:	656c                	sltu	a0,a0,a1
    1785:	657a6953          	0x657a6953
	...

0000178a <.LASF70>:
    178a:	6c65                	bltz	s0,1882 <.LASF71+0x12>
    178c:	3666                	jal	12c4 <.LASF73+0x2f>
    178e:	5f34                	sw	a3,120(a4)
    1790:	50746567          	0x50746567
    1794:	6f72                	bnez	a4,1870 <.LASF71>
    1796:	6d617267          	0x6d617267
    179a:	6548                	slt	a0,a0,a0
    179c:	6461                	bltz	s0,17f4 <.LASF78+0xb>
    179e:	7265                	bltz	a2,16d6 <.LASF96>
    17a0:	654d                	bltz	a0,1812 <.LASF9+0x4>
    17a2:	6f6d                	bltz	a4,189c <.LASF4+0x6>
    17a4:	7972                	bnez	a0,1740 <.LASF112+0x1>
    17a6:	657a6953          	0x657a6953
	...

000017ab <.LASF102>:
    17ab:	74636573          	csrrs	a0,0x746,6
    17af:	6d5f 6e69 6500      	0x65006e696d5f

000017b4 <.LASF72>:
    17b4:	6c65                	bltz	s0,18ac <.LASF46+0x3>
    17b6:	3666                	jal	12ee <.LASF73+0x59>
    17b8:	5f34                	sw	a3,120(a4)
    17ba:	50746567          	0x50746567
    17be:	6f72                	bnez	a4,189a <.LASF4+0x4>
    17c0:	6d617267          	0x6d617267
    17c4:	6548                	slt	a0,a0,a0
    17c6:	6461                	bltz	s0,181e <.LASF9+0x10>
    17c8:	7265                	bltz	a2,1700 <.LASF94+0xa>
    17ca:	6150                	0x6150
    17cc:	6464                	sltu	s0,s0,s1
    17ce:	0072                	j	17ea <.LASF78+0x1>

000017d0 <.LASF3>:
    17d0:	6e75                	bltz	a2,18cc <.LASF27+0x5>
    17d2:	6e676973          	csrrs	s2,0x6e6,14
    17d6:	6465                	bltz	s0,184e <.LASF49+0x2>
    17d8:	6320                	sra	a4,a4,s0
    17da:	6168                	0x6168
    17dc:	0072                	j	17f8 <.LASF78+0xf>

000017de <.LASF50>:
    17de:	6c45                	bltz	s0,18ce <.LASF27+0x7>
    17e0:	3666                	jal	1318 <.LASF31+0x8>
    17e2:	5f34                	sw	a3,120(a4)
    17e4:	6850                	0x6850
    17e6:	7264                	0x7264
	...

000017e9 <.LASF78>:
    17e9:	6c65                	bltz	s0,18e1 <.LASF87+0xd>
    17eb:	5f66                	beqz	a4,17e3 <.LASF50+0x5>
    17ed:	50746567          	0x50746567
    17f1:	6f72                	bnez	a4,18cd <.LASF27+0x6>
    17f3:	6d617267          	0x6d617267
    17f7:	6548                	slt	a0,a0,a0
    17f9:	6461                	bltz	s0,1851 <.LASF49+0x5>
    17fb:	7265                	bltz	a2,1733 <.LASF55+0x10>
    17fd:	7954                	0x7954
    17ff:	6570                	sltu	a0,a0,a2
	...

00001802 <.LASF0>:
    1802:	6e676973          	csrrs	s2,0x6e6,14
    1806:	6465                	bltz	s0,187e <.LASF71+0xe>
    1808:	6320                	sra	a4,a4,s0
    180a:	6168                	0x6168
    180c:	0072                	j	1828 <.LASF12+0x3>

0000180e <.LASF9>:
    180e:	6f6c                	sltu	a1,a4,a1
    1810:	676e                	bnez	a4,188a <.LASF71+0x1a>
    1812:	6c20                	srl	s0,s0,s0
    1814:	20676e6f          	jal	t3,77a1a <.L0 +0x6376a>
    1818:	6e75                	bltz	a2,1914 <.LASF106+0xd>
    181a:	6e676973          	csrrs	s2,0x6e6,14
    181e:	6465                	bltz	s0,1896 <.LASF4>
    1820:	6920                	0x6920
    1822:	746e                	bnez	s0,179c <.LASF70+0x12>
	...

00001825 <.LASF12>:
    1825:	5f65                	sw	s9,188(sp)
    1827:	6469                	bltz	s0,1881 <.LASF71+0x11>
    1829:	6e65                	bltz	a2,1921 <.LASF81+0x4>
    182b:	0074                	0x74

0000182d <.LASF6>:
    182d:	6975                	bltz	a0,18e9 <.LASF17+0x6>
    182f:	746e                	bnez	s0,17a9 <.LASF70+0x1f>
    1831:	745f3233          	0x745f3233
	...

00001836 <.LASF7>:
    1836:	6e75                	bltz	a2,1932 <.LASF81+0x15>
    1838:	6e676973          	csrrs	s2,0x6e6,14
    183c:	6465                	bltz	s0,18b4 <.LASF34+0x3>
    183e:	6920                	0x6920
    1840:	746e                	bnez	s0,17ba <.LASF72+0x6>
	...

00001843 <.LASF5>:
    1843:	6975                	bltz	a0,18ff <.LASF61+0x14>
    1845:	746e                	bnez	s0,17bf <.LASF72+0xb>
    1847:	3631                	srli	a2,a2,0x2c
    1849:	745f 4500 666c      	0x666c4500745f

0000184c <.LASF49>:
    184c:	6c45                	bltz	s0,193c <.LASF32>
    184e:	3666                	jal	1386 <.LASF63+0xc>
    1850:	5f34                	sw	a3,120(a4)
    1852:	72646853          	0x72646853
	...

00001857 <.LASF104>:
    1857:	6c65                	bltz	s0,194f <.LASF52+0x3>
    1859:	5f66                	beqz	a4,1851 <.LASF49+0x5>
    185b:	6176                	bnez	a0,1897 <.LASF4+0x1>
    185d:	6464                	sltu	s0,s0,s1
    185f:	4972                	beqz	a0,18fb <.LASF61+0x10>
    1861:	506e                	beqz	s0,179b <.LASF70+0x11>
    1863:	6f72                	bnez	a4,193f <.LASF32+0x3>
    1865:	6d617267          	0x6d617267
    1869:	6548                	slt	a0,a0,a0
    186b:	6461                	bltz	s0,18c3 <.LASF105+0x2>
    186d:	7265                	bltz	a2,17a5 <.LASF70+0x1b>
	...

00001870 <.LASF71>:
    1870:	6c65                	bltz	s0,1968 <.LASF75+0x7>
    1872:	3666                	jal	13aa <.LASF53+0x9>
    1874:	5f34                	sw	a3,120(a4)
    1876:	50746567          	0x50746567
    187a:	6f72                	bnez	a4,1956 <.LASF52+0xa>
    187c:	6d617267          	0x6d617267
    1880:	6548                	slt	a0,a0,a0
    1882:	6461                	bltz	s0,18da <.LASF87+0x6>
    1884:	7265                	bltz	a2,17bc <.LASF72+0x8>
    1886:	6156                	bnez	a0,18ba <.LASF35+0x1>
    1888:	6464                	sltu	s0,s0,s1
    188a:	0072                	j	18a6 <.LASF4+0x10>

0000188c <.LASF33>:
    188c:	6f5f6873          	csrrs	a6,0x6f5,30
    1890:	6666                	bnez	a2,1908 <.LASF106+0x1>
    1892:	00746573          	csrrs	a0,0x7,8

00001896 <.LASF4>:
    1896:	726f6873          	csrrs	a6,0x726,30
    189a:	2074                	0x2074
    189c:	6e75                	bltz	a2,1998 <.LASF59+0xa>
    189e:	6e676973          	csrrs	s2,0x6e6,14
    18a2:	6465                	bltz	s0,191a <.LASF106+0x13>
    18a4:	6920                	0x6920
    18a6:	746e                	bnez	s0,1820 <.LASF9+0x12>
	...

000018a9 <.LASF46>:
    18a9:	5f70                	sw	a2,124(a4)
    18ab:	6c66                	bnez	s0,19a3 <.LASF59+0x15>
    18ad:	6761                	bltz	a4,1905 <.LASF61+0x1a>
    18af:	68730073          	0x68730073

000018b1 <.LASF34>:
    18b1:	735f6873          	csrrs	a6,0x735,30
    18b5:	7a69                	bltz	a2,184f <.LASF49+0x3>
    18b7:	0065                	0x65

000018b9 <.LASF35>:
    18b9:	6c5f6873          	csrrs	a6,0x6c5,30
    18bd:	6e69                	bltz	a2,1997 <.LASF59+0x9>
    18bf:	6176006b          	0x6176006b

000018c1 <.LASF105>:
    18c1:	6176                	bnez	a0,18fd <.LASF61+0x12>
    18c3:	6464                	sltu	s0,s0,s1
    18c5:	0072                	j	18e1 <.LASF87+0xd>

000018c7 <.LASF27>:
    18c7:	6c45                	bltz	s0,19b7 <.LASF86+0x8>
    18c9:	3366                	jal	1281 <.LASF12+0x1>
    18cb:	5f32                	beqz	a4,1897 <.LASF4+0x1>
    18cd:	6548                	slt	a0,a0,a0
    18cf:	6461                	bltz	s0,1927 <.LASF81+0xa>
    18d1:	7265                	bltz	a2,1809 <.LASF0+0x7>
	...

000018d4 <.LASF87>:
    18d4:	69727473          	csrrc	s0,0x697,4
    18d8:	676e                	bnez	a4,1952 <.LASF52+0x6>
    18da:	735f 6765 656d      	0x656d6765735f
    18e0:	746e                	bnez	s0,185a <.LASF104+0x3>
	...

000018e3 <.LASF17>:
    18e3:	5f65                	sw	s9,188(sp)
    18e5:	6870                	0x6870
    18e7:	0066666f          	jal	a2,678ed <.L0 +0x5363d>

000018eb <.LASF61>:
    18eb:	6c65                	bltz	s0,19e3 <.LASF58+0x19>
    18ed:	3366                	jal	12a5 <.LASF73+0x10>
    18ef:	5f32                	beqz	a4,18bb <.LASF35+0x2>
    18f1:	50746567          	0x50746567
    18f5:	6f72                	bnez	a4,19d1 <.LASF58+0x7>
    18f7:	6d617267          	0x6d617267
    18fb:	6548                	slt	a0,a0,a0
    18fd:	6461                	bltz	s0,1955 <.LASF52+0x9>
    18ff:	7265                	bltz	a2,1837 <.LASF7+0x1>
    1901:	6150                	0x6150
    1903:	6464                	sltu	s0,s0,s1
    1905:	0072                	j	1921 <.LASF81+0x4>

00001907 <.LASF106>:
    1907:	6c65                	bltz	s0,19ff <.LASF60+0x16>
    1909:	5f66                	beqz	a4,1901 <.LASF61+0x16>
    190b:	7476                	bnez	s0,1887 <.LASF71+0x17>
    190d:	7250706f          	j	9831 <.Ldebug_info0+0x6ca4>
    1911:	6172676f          	jal	a4,28727 <.L0 +0x14477>
    1915:	486d                	sw	s11,16(sp)
    1917:	6165                	bltz	a0,194f <.LASF52+0x3>
    1919:	6564                	sltu	a0,a0,s1
    191b:	0072                	j	1937 <.LASF81+0x1a>

0000191d <.LASF81>:
    191d:	6c65                	bltz	s0,1a15 <.LASF91+0x10>
    191f:	5f66                	beqz	a4,1917 <.LASF106+0x10>
    1921:	50746567          	0x50746567
    1925:	6f72                	bnez	a4,1a01 <.LASF60+0x18>
    1927:	6d617267          	0x6d617267
    192b:	6548                	slt	a0,a0,a0
    192d:	6461                	bltz	s0,1985 <.LASF41>
    192f:	7265                	bltz	a2,1867 <.LASF104+0x10>
    1931:	654d                	bltz	a0,19a3 <.LASF59+0x15>
    1933:	6f6d                	bltz	a4,1a2d <.LASF22+0x4>
    1935:	7972                	bnez	a0,18d1 <.LASF27+0xa>
    1937:	657a6953          	0x657a6953
	...

0000193c <.LASF32>:
    193c:	615f6873          	csrrs	a6,0x615,30
    1940:	6464                	sltu	s0,s0,s1
    1942:	0072                	j	195e <.LASF52+0x12>

00001944 <.LASF18>:
    1944:	5f65                	sw	s9,188(sp)
    1946:	666f6873          	csrrs	a6,0x666,30
    194a:	0066                	j	1982 <.LASF51+0x13>

0000194c <.LASF52>:
    194c:	6c65                	bltz	s0,1a44 <.LASF66+0x13>
    194e:	3366                	jal	1306 <.LASF57+0x3>
    1950:	5f32                	beqz	a4,191c <.LASF106+0x15>
    1952:	53746567          	0x53746567
    1956:	6365                	bltz	a4,198e <.LASF59>
    1958:	6974                	0x6974
    195a:	79546e6f          	jal	t3,488ee <.L0 +0x3463e>
    195e:	6570                	sltu	a0,a0,a2
	...

00001961 <.LASF75>:
    1961:	6c65                	bltz	s0,1a59 <.LASF54+0xc>
    1963:	5f66                	beqz	a4,195b <.LASF52+0xf>
    1965:	63656863          	bltu	a0,s6,1f95 <.LASF5+0x17c>
    1969:	6c69466b          	0x6c69466b
    196d:	0065                	0x65

0000196f <.LASF51>:
    196f:	6c65                	bltz	s0,1a67 <.LASF57+0x4>
    1971:	3366                	jal	1329 <.LASF74+0x10>
    1973:	5f32                	beqz	a4,193f <.LASF32+0x3>
    1975:	53746567          	0x53746567
    1979:	6365                	bltz	a4,19b1 <.LASF86+0x2>
    197b:	6974                	0x6974
    197d:	61546e6f          	jal	t3,48791 <.L0 +0x344e1>
    1981:	6c62                	bnez	s0,1a59 <.LASF54+0xc>
    1983:	0065                	0x65

00001985 <.LASF41>:
    1985:	5f70                	sw	a2,124(a4)
    1987:	7366666f          	jal	a2,680bd <.L0 +0x53e0d>
    198b:	7465                	bltz	s0,1903 <.LASF61+0x18>
	...

0000198e <.LASF59>:
    198e:	6c65                	bltz	s0,1a86 <.LASF92>
    1990:	3366                	jal	1348 <.LASF20+0x7>
    1992:	5f32                	beqz	a4,195e <.LASF52+0x12>
    1994:	50746567          	0x50746567
    1998:	6f72                	bnez	a4,1a74 <.LASF57+0x11>
    199a:	6d617267          	0x6d617267
    199e:	6548                	slt	a0,a0,a0
    19a0:	6461                	bltz	s0,19f8 <.LASF60+0xf>
    19a2:	7265                	bltz	a2,18da <.LASF87+0x6>
    19a4:	654d                	bltz	a0,1a16 <.LASF91+0x11>
    19a6:	6f6d                	bltz	a4,1aa0 <.LASF84+0x7>
    19a8:	7972                	bnez	a0,1944 <.LASF18>
    19aa:	657a6953          	0x657a6953
	...

000019af <.LASF86>:
    19af:	6c65                	bltz	s0,1aa7 <.LASF84+0xe>
    19b1:	5f66                	beqz	a4,19a9 <.LASF59+0x1b>
    19b3:	53746567          	0x53746567
    19b7:	7274                	0x7274
    19b9:	6e69                	bltz	a2,1a93 <.LASF92+0xd>
    19bb:	62615467          	0x62615467
    19bf:	656c                	sltu	a0,a0,a1
	...

000019c2 <.LASF29>:
    19c2:	6e5f6873          	csrrs	a6,0x6e5,30
    19c6:	6d61                	bltz	a0,1a9e <.LASF84+0x5>
    19c8:	0065                	0x65

000019ca <.LASF58>:
    19ca:	6c65                	bltz	s0,1ac2 <.LASF114+0x7>
    19cc:	3366                	jal	1384 <.LASF63+0xa>
    19ce:	5f32                	beqz	a4,199a <.LASF59+0xc>
    19d0:	50746567          	0x50746567
    19d4:	6f72                	bnez	a4,1ab0 <.LASF84+0x17>
    19d6:	6d617267          	0x6d617267
    19da:	6548                	slt	a0,a0,a0
    19dc:	6461                	bltz	s0,1a34 <.LASF66+0x3>
    19de:	7265                	bltz	a2,1916 <.LASF106+0xf>
    19e0:	6946                	bnez	a0,1a90 <.LASF92+0xa>
    19e2:	656c                	sltu	a0,a0,a1
    19e4:	657a6953          	0x657a6953
	...

000019e9 <.LASF60>:
    19e9:	6c65                	bltz	s0,1ae1 <.LASF114+0x26>
    19eb:	3366                	jal	13a3 <.LASF53+0x2>
    19ed:	5f32                	beqz	a4,19b9 <.LASF86+0xa>
    19ef:	50746567          	0x50746567
    19f3:	6f72                	bnez	a4,1acf <.LASF114+0x14>
    19f5:	6d617267          	0x6d617267
    19f9:	6548                	slt	a0,a0,a0
    19fb:	6461                	bltz	s0,1a53 <.LASF54+0x6>
    19fd:	7265                	bltz	a2,1935 <.LASF81+0x18>
    19ff:	6156                	bnez	a0,1a33 <.LASF66+0x2>
    1a01:	6464                	sltu	s0,s0,s1
    1a03:	0072                	j	1a1f <.LASF45+0x7>

00001a05 <.LASF91>:
    1a05:	6c65                	bltz	s0,1afd <.LASF114+0x42>
    1a07:	5f66                	beqz	a4,19ff <.LASF60+0x16>
    1a09:	53746567          	0x53746567
    1a0d:	6365                	bltz	a4,1a45 <.LASF66+0x14>
    1a0f:	6974                	0x6974
    1a11:	79546e6f          	jal	t3,489a5 <.L0 +0x346f5>
    1a15:	6570                	sltu	a0,a0,a2
	...

00001a18 <.LASF45>:
    1a18:	5f70                	sw	a2,124(a4)
    1a1a:	656d                	bltz	a0,1a94 <.LASF92+0xe>
    1a1c:	736d                	bltz	a4,1956 <.LASF52+0xa>
    1a1e:	007a                	j	1a3c <.LASF66+0xb>

00001a20 <.LASF44>:
    1a20:	5f70                	sw	a2,124(a4)
    1a22:	6966                	bnez	a0,1ada <.LASF114+0x1f>
    1a24:	656c                	sltu	a0,a0,a1
    1a26:	65007a73          	csrrc	s4,0x650,0

00001a29 <.LASF22>:
    1a29:	5f65                	sw	s9,188(sp)
    1a2b:	6870                	0x6870
    1a2d:	756e                	bnez	a0,19a7 <.LASF59+0x19>
    1a2f:	006d                	0x6d

00001a31 <.LASF66>:
    1a31:	6c65                	bltz	s0,1b29 <.LASF69+0xa>
    1a33:	3666                	jal	156b <.LASF42+0x3>
    1a35:	5f34                	sw	a3,120(a4)
    1a37:	50746567          	0x50746567
    1a3b:	6f72                	bnez	a4,1b17 <.LASF114+0x5c>
    1a3d:	6d617267          	0x6d617267
    1a41:	6548                	slt	a0,a0,a0
    1a43:	6461                	bltz	s0,1a9b <.LASF84+0x2>
    1a45:	7265                	bltz	a2,197d <.LASF51+0xe>
    1a47:	6154                	0x6154
    1a49:	6c62                	bnez	s0,1b21 <.LASF69+0x2>
    1a4b:	0065                	0x65

00001a4d <.LASF54>:
    1a4d:	6c65                	bltz	s0,1b45 <.LASF90+0x7>
    1a4f:	3366                	jal	1407 <.LASF66+0x3>
    1a51:	5f32                	beqz	a4,1a1d <.LASF45+0x5>
    1a53:	53746567          	0x53746567
    1a57:	6365                	bltz	a4,1a8f <.LASF92+0x9>
    1a59:	6974                	0x6974
    1a5b:	6c466e6f          	jal	t3,6811f <.L0 +0x53e6f>
    1a5f:	6761                	bltz	a4,1ab7 <.LASF47+0x4>
    1a61:	6c650073          	0x6c650073

00001a63 <.LASF57>:
    1a63:	6c65                	bltz	s0,1b5b <.LASF101+0x3>
    1a65:	3366                	jal	141d <.LASF66+0x19>
    1a67:	5f32                	beqz	a4,1a33 <.LASF66+0x2>
    1a69:	50746567          	0x50746567
    1a6d:	6f72                	bnez	a4,1b49 <.LASF90+0xb>
    1a6f:	6d617267          	0x6d617267
    1a73:	6548                	slt	a0,a0,a0
    1a75:	6461                	bltz	s0,1acd <.LASF114+0x12>
    1a77:	7265                	bltz	a2,19af <.LASF86>
    1a79:	7954                	0x7954
    1a7b:	6570                	sltu	a0,a0,a2
	...

00001a7e <.LASF24>:
    1a7e:	5f65                	sw	s9,188(sp)
    1a80:	756e6873          	csrrs	a6,0x756,28
    1a84:	006d                	0x6d

00001a86 <.LASF92>:
    1a86:	6c65                	bltz	s0,1b7e <.LASF65+0x11>
    1a88:	5f66                	beqz	a4,1a80 <.LASF24+0x2>
    1a8a:	53746567          	0x53746567
    1a8e:	6365                	bltz	a4,1ac6 <.LASF114+0xb>
    1a90:	6974                	0x6974
    1a92:	69536e6f          	jal	t3,38926 <.L0 +0x24676>
    1a96:	657a                	bnez	a0,1af4 <.LASF114+0x39>
	...

00001a99 <.LASF84>:
    1a99:	6c65                	bltz	s0,1b91 <.LASF67+0xe>
    1a9b:	5f66                	beqz	a4,1a93 <.LASF92+0xd>
    1a9d:	53746567          	0x53746567
    1aa1:	6765                	bltz	a4,1b19 <.LASF114+0x5e>
    1aa3:	656d                	bltz	a0,1b1d <.LASF114+0x62>
    1aa5:	746e                	bnez	s0,1a1f <.LASF45+0x7>
    1aa7:	69727453          	0x69727453
    1aab:	676e                	bnez	a4,1b25 <.LASF69+0x6>
    1aad:	6154                	0x6154
    1aaf:	6c62                	bnez	s0,1b87 <.LASF67+0x4>
    1ab1:	0065                	0x65

00001ab3 <.LASF47>:
    1ab3:	5f70                	sw	a2,124(a4)
    1ab5:	6c61                	bltz	s0,1b8d <.LASF67+0xa>
    1ab7:	6769                	bltz	a4,1b11 <.LASF114+0x56>
    1ab9:	006e                	j	1af3 <.LASF114+0x38>

00001abb <.LASF114>:
    1abb:	6d6f682f          	0x6d6f682f
    1abf:	2f65                	srli	t5,t5,0x19
    1ac1:	6568                	sltu	a0,a0,a0
    1ac3:	6d616873          	csrrs	a6,0x6d6,2
    1ac7:	6f72502f          	0x6f72502f
    1acb:	656a                	bnez	a0,1b25 <.LASF69+0x6>
    1acd:	2f737463          	bleu	s7,t1,1db5 <.LASF12+0x2>
    1ad1:	344c6573          	csrrs	a0,mip,24
    1ad5:	4c65732f          	0x4c65732f
    1ad9:	7234                	0x7234
    1adb:	7369                	bltz	a4,19f5 <.LASF60+0xc>
    1add:	6d2d7663          	bleu	s2,s10,21a9 <.LASF5+0x390>
    1ae1:	6c75                	bltz	s0,1bdd <.LASF51+0xb>
    1ae3:	6974                	0x6974
    1ae5:	6e72656b          	0x6e72656b
    1ae9:	6c65                	bltz	s0,1be1 <.LASF51+0xf>
    1aeb:	6f6f742f          	0x6f6f742f
    1aef:	736c                	0x736c
    1af1:	6d6f632f          	0x6d6f632f
    1af5:	6f6d                	bltz	a4,1bef <.LASF51+0x1d>
    1af7:	2f6e                	jal	22b1 <.LASF5+0x498>
    1af9:	2e2e                	jal	2223 <.LASF5+0x40a>
    1afb:	666c652f          	0x666c652f
    1aff:	6f6c                	sltu	a1,a4,a1
    1b01:	6461                	bltz	s0,1b59 <.LASF101+0x1>
    1b03:	7265                	bltz	a2,1a3b <.LASF66+0xa>
    1b05:	6372732f          	0x6372732f
    1b09:	6372612f          	0x6372612f
    1b0d:	2d68                	srai	s10,s10,0x1a
    1b0f:	6972                	bnez	a0,1bab <.LASF93+0xc>
    1b11:	2f766373          	csrrs	t1,0x2f7,12
    1b15:	6c65                	bltz	s0,1c0d <.LASF51+0x3b>
    1b17:	2f66                	jal	22cf <.LASF5+0x4b6>
    1b19:	6c65                	bltz	s0,1c11 <.LASF51+0x3f>
    1b1b:	2e66                	jal	2253 <.LASF5+0x43a>
    1b1d:	6c650063          	beq	a0,t1,21dd <.LASF5+0x3c4>

00001b1f <.LASF69>:
    1b1f:	6c65                	bltz	s0,1c17 <.LASF51+0x45>
    1b21:	3666                	jal	1659 <.LASF76+0xb>
    1b23:	5f34                	sw	a3,120(a4)
    1b25:	50746567          	0x50746567
    1b29:	6f72                	bnez	a4,1c05 <.LASF51+0x33>
    1b2b:	6d617267          	0x6d617267
    1b2f:	6548                	slt	a0,a0,a0
    1b31:	6461                	bltz	s0,1b89 <.LASF67+0x6>
    1b33:	7265                	bltz	a2,1a6b <.LASF57+0x8>
    1b35:	6946                	bnez	a0,1be5 <.LASF51+0x13>
    1b37:	656c                	sltu	a0,a0,a1
    1b39:	657a6953          	0x657a6953
	...

00001b3e <.LASF90>:
    1b3e:	6c65                	bltz	s0,1c36 <.LASF50+0x15>
    1b40:	5f66                	beqz	a4,1b38 <.LASF69+0x19>
    1b42:	53746567          	0x53746567
    1b46:	6365                	bltz	a4,1b7e <.LASF65+0x11>
    1b48:	6974                	0x6974
    1b4a:	6c466e6f          	jal	t3,6820e <.L0 +0x53f5e>
    1b4e:	6761                	bltz	a4,1ba6 <.LASF93+0x7>
    1b50:	61700073          	0x61700073

00001b52 <.LASF109>:
    1b52:	6170                	0x6170
    1b54:	6464                	sltu	s0,s0,s1
    1b56:	0072                	j	1b72 <.LASF65+0x5>

00001b58 <.LASF101>:
    1b58:	656d                	bltz	a0,1bd2 <.LASF51>
    1b5a:	5f6d                	sw	s11,188(sp)
    1b5c:	616d                	bltz	a0,1b96 <.LASF67+0x13>
    1b5e:	0078                	0x78

00001b60 <.LASF48>:
    1b60:	6c45                	bltz	s0,1c50 <.LASF50+0x2f>
    1b62:	3666                	jal	169a <.LASF85+0x2>
    1b64:	5f34                	sw	a3,120(a4)
    1b66:	6548                	slt	a0,a0,a0
    1b68:	6461                	bltz	s0,1bc0 <.LASF42+0x6>
    1b6a:	7265                	bltz	a2,1aa2 <.LASF84+0x9>
	...

00001b6d <.LASF65>:
    1b6d:	6c65                	bltz	s0,1c65 <.LASF37+0xa>
    1b6f:	3666                	jal	16a7 <.LASF73+0xa>
    1b71:	5f34                	sw	a3,120(a4)
    1b73:	53746567          	0x53746567
    1b77:	6365                	bltz	a4,1baf <.LASF93+0x10>
    1b79:	6974                	0x6974
    1b7b:	6c466e6f          	jal	t3,6823f <.L0 +0x53f8f>
    1b7f:	6761                	bltz	a4,1bd7 <.LASF51+0x5>
    1b81:	6c650073          	0x6c650073

00001b83 <.LASF67>:
    1b83:	6c65                	bltz	s0,1c7b <.LASF19>
    1b85:	3666                	jal	16bd <.LASF30+0x3>
    1b87:	5f34                	sw	a3,120(a4)
    1b89:	50746567          	0x50746567
    1b8d:	6f72                	bnez	a4,1c69 <.LASF37+0xe>
    1b8f:	6d617267          	0x6d617267
    1b93:	6548                	slt	a0,a0,a0
    1b95:	6461                	bltz	s0,1bed <.LASF51+0x1b>
    1b97:	7265                	bltz	a2,1acf <.LASF114+0x14>
    1b99:	6c46                	bnez	s0,1c89 <.LASF16+0x2>
    1b9b:	6761                	bltz	a4,1bf3 <.LASF51+0x21>
    1b9d:	6c650073          	0x6c650073

00001b9f <.LASF93>:
    1b9f:	6c65                	bltz	s0,1c97 <.LASF48+0x4>
    1ba1:	5f66                	beqz	a4,1b99 <.LASF67+0x16>
    1ba3:	53746567          	0x53746567
    1ba7:	6365                	bltz	a4,1bdf <.LASF51+0xd>
    1ba9:	6974                	0x6974
    1bab:	64416e6f          	jal	t3,181ef <.L0 +0x3f3f>
    1baf:	7264                	0x7264
	...

00001bb2 <.LASF0>:
    1bb2:	616d5f63          	ble	s6,s10,21d0 <.LASF5+0x3b7>
    1bb6:	00636967          	0x636967

00001bba <.LASF42>:
    1bba:	6568                	sltu	a0,a0,a0
    1bbc:	6461                	bltz	s0,1c14 <.LASF51+0x42>
    1bbe:	7265                	bltz	a2,1af6 <.LASF114+0x3b>
	...

00001bc1 <.LASF27>:
    1bc1:	7266                	bnez	a2,1af9 <.LASF114+0x3e>
    1bc3:	61006d6f          	jal	s10,81d3 <.Ldebug_info0+0x5646>

00001bc6 <.LASF24>:
    1bc6:	6c61                	bltz	s0,1c9e <.LASF48+0xb>
    1bc8:	6769                	bltz	a4,1c22 <.LASF50+0x1>
    1bca:	006e                	j	1c04 <.LASF51+0x32>

00001bcc <.LASF4>:
    1bcc:	69675f63          	ble	s6,a4,226a <.LASF5+0x451>
    1bd0:	0064                	0x64

00001bd2 <.LASF51>:
    1bd2:	6d6f682f          	0x6d6f682f
    1bd6:	2f65                	srli	t5,t5,0x19
    1bd8:	6568                	sltu	a0,a0,a0
    1bda:	6d616873          	csrrs	a6,0x6d6,2
    1bde:	6f72502f          	0x6f72502f
    1be2:	656a                	bnez	a0,1c3c <.LASF50+0x1b>
    1be4:	2f737463          	bleu	s7,t1,1ecc <.LASF5+0xb3>
    1be8:	344c6573          	csrrs	a0,mip,24
    1bec:	4c65732f          	0x4c65732f
    1bf0:	7234                	0x7234
    1bf2:	7369                	bltz	a4,1b0c <.LASF114+0x51>
    1bf4:	6d2d7663          	bleu	s2,s10,22c0 <.LASF5+0x4a7>
    1bf8:	6c75                	bltz	s0,1cf4 <.LASF10+0x1>
    1bfa:	6974                	0x6974
    1bfc:	6e72656b          	0x6e72656b
    1c00:	6c65                	bltz	s0,1cf8 <.LASF10+0x5>
    1c02:	62696c2f          	0x62696c2f
    1c06:	696c2f73          	csrrs	t5,0x696,s8
    1c0a:	6362                	bnez	a4,1c22 <.LASF50+0x1>
    1c0c:	6970                	0x6970
    1c0e:	72732f6f          	jal	t5,34b34 <.L0 +0x20884>
    1c12:	70632f63          	0x70632f63
    1c16:	6f69                	bltz	a4,1cf0 <.LASF21+0xf>
    1c18:	632e                	bnez	a4,1c42 <.LASF50+0x21>
	...

00001c1b <.LASF44>:
    1c1b:	7265                	bltz	a2,1b53 <.LASF109+0x1>
    1c1d:	6f72                	bnez	a4,1cf9 <.LASF10+0x6>
    1c1f:	0072                	j	1c3b <.LASF50+0x1a>

00001c21 <.LASF50>:
    1c21:	20554e47          	fmsub.s	ft8,fa0,ft5,ft4,rmm
    1c25:	20313143          	fmadd.s	ft2,ft2,ft3,ft4,rup
    1c29:	2e35                	srli	t3,t3,0xd
    1c2b:	2e32                	jal	2337 <.LASF5+0x51e>
    1c2d:	2030                	0x2030
    1c2f:	6d2d                	bltz	a0,1d19 <.LASF26+0x3>
    1c31:	2d203233          	0x2d203233
    1c35:	4f2d2067          	0x4f2d2067
    1c39:	2032                	jal	1c45 <.LASF50+0x24>
    1c3b:	732d                	bltz	a4,1b65 <.LASF48+0x5>
    1c3d:	6474                	sltu	s0,s0,a3
    1c3f:	673d                	bltz	a4,1cad <.LASF9+0x2>
    1c41:	756e                	bnez	a0,1bbb <.LASF42+0x1>
    1c43:	3131                	srli	sp,sp,0x2c
    1c45:	2d20                	srai	s10,s10,0x8
    1c47:	6e66                	bnez	a2,1d3f <.LASF45+0x2>
    1c49:	74732d6f          	jal	s10,34b8f <.L0 +0x208df>
    1c4d:	6361                	bltz	a4,1c65 <.LASF37+0xa>
    1c4f:	72702d6b          	0x72702d6b
    1c53:	6365746f          	jal	s0,59289 <.L0 +0x44fd9>
    1c57:	6f74                	sltu	a3,a4,a3
    1c59:	0072                	j	1c75 <.LASF8+0x5>

00001c5b <.LASF37>:
    1c5b:	6966                	bnez	a0,1d13 <.LASF31+0x5>
    1c5d:	656c                	sltu	a0,a0,a1
    1c5f:	616e                	bnez	a0,1c99 <.LASF48+0x6>
    1c61:	656d                	bltz	a0,1cdb <.LASF52+0x2>
    1c63:	6c5f 6e65 7467      	0x74676e656c5f
    1c69:	0068                	0x68

00001c6b <.LASF34>:
    1c6b:	6164                	0x6164
    1c6d:	6174                	0x6174
	...

00001c70 <.LASF8>:
    1c70:	65645f63          	ble	s6,s0,22ce <.LASF5+0x4b5>
    1c74:	6d76                	bnez	a0,1d70 <.LASF20+0xa>
    1c76:	6a61                	bltz	a2,1d0e <.LASF31>
    1c78:	6d00726f          	jal	tp,9348 <.Ldebug_info0+0x67bb>

00001c7b <.LASF19>:
    1c7b:	616d                	bltz	a0,1cb5 <.LASF9+0xa>
    1c7d:	5f78                	sw	a4,124(a4)
    1c7f:	6170                	0x6170
    1c81:	6874                	0x6874
    1c83:	735f 007a 7063      	0x7063007a735f

00001c87 <.LASF16>:
    1c87:	6f697063          	bleu	s6,s2,2367 <.Ldebug_line0+0x2c>
    1c8b:	685f 6165 6564      	0x65646165685f
    1c91:	0072                	j	1cad <.LASF9+0x2>

00001c93 <.LASF48>:
    1c93:	72727563          	bleu	t2,tp,23bd <.Ldebug_line0+0x82>
    1c97:	6e65                	bltz	a2,1d8f <.LASF38+0x8>
    1c99:	5f74                	sw	a3,124(a4)
    1c9b:	6170                	0x6170
    1c9d:	6874                	0x6874
    1c9f:	735f 007a 5f63      	0x5f63007a735f

00001ca3 <.LASF13>:
    1ca3:	68635f63          	ble	t1,t1,2341 <.Ldebug_line0+0x6>
    1ca7:	6365                	bltz	a4,1cdf <.LASF52+0x6>
    1ca9:	5f63006b          	0x5f63006b

00001cab <.LASF9>:
    1cab:	65645f63          	ble	s6,s0,2309 <.LASF5+0x4f0>
    1caf:	6d76                	bnez	a0,1dab <.LASF14+0x1>
    1cb1:	6e69                	bltz	a2,1d8b <.LASF38+0x4>
    1cb3:	6300726f          	jal	tp,92e3 <.Ldebug_info0+0x6756>

00001cb6 <.LASF7>:
    1cb6:	69665f63          	ble	s6,a2,2354 <.Ldebug_line0+0x19>
    1cba:	656c                	sltu	a0,a0,a1
    1cbc:	657a6973          	csrrs	s2,0x657,20
	...

00001cc1 <.LASF32>:
    1cc1:	6966                	bnez	a0,1d79 <.LASF15+0x1>
    1cc3:	656c                	sltu	a0,a0,a1
    1cc5:	616e                	bnez	a0,1cff <.LASF43>
    1cc7:	656d                	bltz	a0,1d41 <.LASF45+0x4>
	...

00001cca <.LASF33>:
    1cca:	665f 6c69 7365      	0x73656c69665f
    1cd0:	7a69                	bltz	a2,1c6a <.LASF37+0xf>
    1cd2:	0065                	0x65

00001cd4 <.LASF47>:
    1cd4:	6e69                	bltz	a2,1dae <.LASF14+0x4>
    1cd6:	6f66                	bnez	a4,1dce <.LASF29+0xb>
	...

00001cd9 <.LASF52>:
    1cd9:	6f697063          	bleu	s6,s2,23b9 <.Ldebug_line0+0x7e>
    1cdd:	6c5f 0073 6f6c      	0x6f6c00736c5f

00001ce1 <.LASF21>:
    1ce1:	6f6c                	sltu	a1,a4,a1
    1ce3:	676e                	bnez	a4,1d5d <.LASF22+0x4>
    1ce5:	7520                	0x7520
    1ce7:	736e                	bnez	a4,1c21 <.LASF50>
    1ce9:	6769                	bltz	a4,1d43 <.LASF45+0x6>
    1ceb:	656e                	bnez	a0,1d65 <.LASF22+0xc>
    1ced:	2064                	0x2064
    1cef:	6e69                	bltz	a2,1dc9 <.LASF29+0x6>
    1cf1:	0074                	0x74

00001cf3 <.LASF10>:
    1cf3:	64725f63          	ble	t2,tp,2351 <.Ldebug_line0+0x16>
    1cf7:	7665                	bltz	a2,1c6f <.LASF34+0x4>
    1cf9:	616d                	bltz	a0,1d33 <.LASF11+0x2>
    1cfb:	6f6a                	bnez	a4,1dd5 <.LASF2+0x4>
    1cfd:	0072                	j	1d19 <.LASF26+0x3>

00001cff <.LASF43>:
    1cff:	6572                	bnez	a0,1d5b <.LASF22+0x2>
    1d01:	746c7573          	csrrc	a0,0x746,24
	...

00001d06 <.LASF49>:
    1d06:	7562                	bnez	a0,1c5e <.LASF37+0x3>
    1d08:	5f66                	beqz	a4,1d00 <.LASF43+0x1>
    1d0a:	656c                	sltu	a0,a0,a1
    1d0c:	006e                	j	1d46 <.LASF45+0x9>

00001d0e <.LASF31>:
    1d0e:	7261                	bltz	a2,1c26 <.LASF50+0x5>
    1d10:	76696863          	bltu	s2,t1,2480 <.Ldebug_line0+0x145>
    1d14:	0065                	0x65

00001d16 <.LASF26>:
    1d16:	6f697063          	bleu	s6,s2,23f6 <.Ldebug_line0+0xbb>
    1d1a:	735f 7274 7063      	0x70637274735f
    1d20:	0079                	0x79

00001d22 <.LASF39>:
    1d22:	6f697063          	bleu	s6,s2,2402 <.Ldebug_line0+0xc7>
    1d26:	675f 7465 655f      	0x655f7465675f
    1d2c:	746e                	bnez	s0,1ca6 <.LASF13+0x3>
    1d2e:	7972                	bnez	a0,1cca <.LASF33>
	...

00001d31 <.LASF11>:
    1d31:	64725f63          	ble	t2,tp,238f <.Ldebug_line0+0x54>
    1d35:	7665                	bltz	a2,1cad <.LASF9+0x2>
    1d37:	696d                	bltz	a0,1df1 <.LASF23+0x3>
    1d39:	6f6e                	bnez	a4,1e33 <.LASF5+0x1a>
    1d3b:	0072                	j	1d57 <.LASF1+0x4>

00001d3d <.LASF45>:
    1d3d:	6f697063          	bleu	s6,s2,241d <.Ldebug_line0+0xe2>
    1d41:	675f 7465 665f      	0x665f7465675f
    1d47:	6c69                	bltz	s0,1e21 <.LASF5+0x8>
    1d49:	0065                	0x65

00001d4b <.LASF30>:
    1d4b:	616d                	bltz	a0,1d85 <.LASF17+0x8>
    1d4d:	5f78                	sw	a4,124(a4)
    1d4f:	656c                	sltu	a0,a0,a1
    1d51:	006e                	j	1d8b <.LASF38+0x4>

00001d53 <.LASF1>:
    1d53:	6e695f63          	ble	t1,s2,2451 <.Ldebug_line0+0x116>
    1d57:	7063006f          	j	3245d <.L0 +0x1e1ad>

00001d59 <.LASF22>:
    1d59:	6f697063          	bleu	s6,s2,2439 <.Ldebug_line0+0xfe>
    1d5d:	735f 7274 636e      	0x636e7274735f
    1d63:	706d                	bltz	s0,1c9d <.LASF48+0xa>
	...

00001d66 <.LASF20>:
    1d66:	6e75                	bltz	a2,1e62 <.LASF5+0x49>
    1d68:	6e676973          	csrrs	s2,0x6e6,14
    1d6c:	6465                	bltz	s0,1de4 <.LASF35+0x3>
    1d6e:	6920                	0x6920
    1d70:	746e                	bnez	s0,1cea <.LASF21+0x9>
	...

00001d73 <.LASF41>:
    1d73:	657a6973          	csrrs	s2,0x657,20
	...

00001d78 <.LASF15>:
    1d78:	72616863          	bltu	sp,t1,24a8 <.Ldebug_line0+0x16d>
	...

00001d7d <.LASF17>:
    1d7d:	6f697063          	bleu	s6,s2,245d <.Ldebug_line0+0x122>
    1d81:	695f 666e 006f      	0x6f666e695f

00001d87 <.LASF38>:
    1d87:	6f697063          	bleu	s6,s2,2467 <.Ldebug_line0+0x12c>
    1d8b:	705f 7261 6573      	0x65737261705f
    1d91:	685f 6165 6564      	0x65646165685f
    1d97:	0072                	j	1db3 <.LASF12>

00001d99 <.LASF28>:
    1d99:	65766173          	csrrs	sp,0x657,12
	...

00001d9e <.LASF25>:
    1d9e:	6f697063          	bleu	s6,s2,247e <.Ldebug_line0+0x143>
    1da2:	735f 7274 656c      	0x656c7274735f
    1da8:	006e                	j	1de2 <.LASF35+0x1>

00001daa <.LASF14>:
    1daa:	657a6973          	csrrs	s2,0x657,20
    1dae:	7974                	0x7974
    1db0:	6570                	sltu	a0,a0,a2
	...

00001db3 <.LASF12>:
    1db3:	616e5f63          	ble	s6,t3,23d1 <.Ldebug_line0+0x96>
    1db7:	656d                	bltz	a0,1e31 <.LASF5+0x18>
    1db9:	657a6973          	csrrs	s2,0x657,20
	...

00001dbe <.LASF40>:
    1dbe:	616e                	bnez	a0,1df8 <.LASF46+0x1>
    1dc0:	656d                	bltz	a0,1e3a <.LASF5+0x21>
	...

00001dc3 <.LASF29>:
    1dc3:	6170                	0x6170
    1dc5:	7372                	bnez	a4,1ce1 <.LASF21>
    1dc7:	5f65                	sw	s9,188(sp)
    1dc9:	6568                	sltu	a0,a0,a0
    1dcb:	5f78                	sw	a4,124(a4)
    1dcd:	00727473          	csrrc	s0,0x7,4

00001dd1 <.LASF2>:
    1dd1:	6f6d5f63          	ble	s6,s10,24cf <.Ldebug_line0+0x194>
    1dd5:	6564                	sltu	a0,a0,s1
	...

00001dd8 <.LASF36>:
    1dd8:	6966                	bnez	a0,1e90 <.LASF5+0x77>
    1dda:	656c                	sltu	a0,a0,a1
    1ddc:	657a6973          	csrrs	s2,0x657,20
	...

00001de1 <.LASF35>:
    1de1:	656e                	bnez	a0,1e5b <.LASF5+0x42>
    1de3:	7478                	0x7478
	...

00001de6 <.LASF6>:
    1de6:	746d5f63          	ble	t1,s10,2544 <.Ldebug_line0+0x209>
    1dea:	6d69                	bltz	a0,1ec4 <.LASF5+0xab>
    1dec:	0065                	0x65

00001dee <.LASF23>:
    1dee:	6c61                	bltz	s0,1ec6 <.LASF5+0xad>
    1df0:	6769                	bltz	a4,1e4a <.LASF5+0x31>
    1df2:	5f6e                	beqz	a4,1dec <.LASF6+0x6>
    1df4:	7075                	bltz	s0,1d30 <.LASF39+0xe>
	...

00001df7 <.LASF46>:
    1df7:	72727563          	bleu	t2,tp,2521 <.Ldebug_line0+0x1e6>
    1dfb:	6e65                	bltz	a2,1ef3 <.LASF5+0xda>
    1dfd:	5f74                	sw	a3,124(a4)
    1dff:	6966                	bnez	a0,1eb7 <.LASF5+0x9e>
    1e01:	656c                	sltu	a0,a0,a1
    1e03:	616e                	bnez	a0,1e3d <.LASF5+0x24>
    1e05:	656d                	bltz	a0,1e7f <.LASF5+0x66>
	...

00001e08 <.LASF18>:
    1e08:	6966                	bnez	a0,1ec0 <.LASF5+0xa7>
    1e0a:	656c                	sltu	a0,a0,a1
    1e0c:	635f 756f 746e      	0x746e756f635f
	...

00001e13 <.LASF3>:
    1e13:	69755f63          	ble	s7,a0,24b1 <.Ldebug_line0+0x176>
    1e17:	0064                	0x64

00001e19 <.LASF5>:
    1e19:	6c6e5f63          	ble	t1,t3,24f7 <.Ldebug_line0+0x1bc>
    1e1d:	6e69                	bltz	a2,1ef7 <.LASF5+0xde>
    1e1f:	0000006b          	0x6b

Disassembly of section .comment:

00000000 <.comment>:
   0:	4700                	sw	s0,8(a4)
   2:	203a4343          	fmadd.s	ft6,fs4,ft3,ft4,rmm
   6:	4728                	sw	a0,72(a4)
   8:	554e                	beqz	a0,ffffff7a <.L0 +0xfffebcca>
   a:	2029                	0x2029
   c:	2e35                	srli	t3,t3,0xd
   e:	2e32                	jal	71a <_etext+0x7>
  10:	0030                	0x30
  12:	4700                	sw	s0,8(a4)
  14:	203a4343          	fmadd.s	ft6,fs4,ft3,ft4,rmm
  18:	4728                	sw	a0,72(a4)
  1a:	554e                	beqz	a0,ffffff8c <.L0 +0xfffebcdc>
  1c:	2029                	0x2029
  1e:	2e35                	srli	t3,t3,0xd
  20:	2e32                	jal	72c <.LASF30+0x5>
  22:	0030                	0x30
  24:	4700                	sw	s0,8(a4)
  26:	203a4343          	fmadd.s	ft6,fs4,ft3,ft4,rmm
  2a:	4728                	sw	a0,72(a4)
  2c:	554e                	beqz	a0,ffffff9e <.L0 +0xfffebcee>
  2e:	2029                	0x2029
  30:	2e35                	srli	t3,t3,0xd
  32:	2e32                	jal	73e <.LASF0+0x2>
  34:	0030                	0x30
  36:	4700                	sw	s0,8(a4)
  38:	203a4343          	fmadd.s	ft6,fs4,ft3,ft4,rmm
  3c:	4728                	sw	a0,72(a4)
  3e:	554e                	beqz	a0,ffffffb0 <.L0 +0xfffebd00>
  40:	2029                	0x2029
  42:	2e35                	srli	t3,t3,0xd
  44:	2e32                	jal	750 <.LASF28>
  46:	0030                	0x30
  48:	4700                	sw	s0,8(a4)
  4a:	203a4343          	fmadd.s	ft6,fs4,ft3,ft4,rmm
  4e:	4728                	sw	a0,72(a4)
  50:	554e                	beqz	a0,ffffffc2 <.L0 +0xfffebd12>
  52:	2029                	0x2029
  54:	2e35                	srli	t3,t3,0xd
  56:	2e32                	jal	762 <.LASF28+0x12>
  58:	0030                	0x30
  5a:	4700                	sw	s0,8(a4)
  5c:	203a4343          	fmadd.s	ft6,fs4,ft3,ft4,rmm
  60:	4728                	sw	a0,72(a4)
  62:	554e                	beqz	a0,ffffffd4 <.L0 +0xfffebd24>
  64:	2029                	0x2029
  66:	2e35                	srli	t3,t3,0xd
  68:	2e32                	jal	774 <.L0 +0x8>
  6a:	0030                	0x30
  6c:	4700                	sw	s0,8(a4)
  6e:	203a4343          	fmadd.s	ft6,fs4,ft3,ft4,rmm
  72:	4728                	sw	a0,72(a4)
  74:	554e                	beqz	a0,ffffffe6 <.L0 +0xfffebd36>
  76:	2029                	0x2029
  78:	2e35                	srli	t3,t3,0xd
  7a:	2e32                	jal	786 <.L0 +0x1a>
  7c:	0030                	0x30
  7e:	4700                	sw	s0,8(a4)
  80:	203a4343          	fmadd.s	ft6,fs4,ft3,ft4,rmm
  84:	4728                	sw	a0,72(a4)
  86:	554e                	beqz	a0,fffffff8 <.L0 +0xfffebd48>
  88:	2029                	0x2029
  8a:	2e35                	srli	t3,t3,0xd
  8c:	2e32                	jal	798 <.L0 +0xc>
  8e:	0030                	0x30
  90:	4700                	sw	s0,8(a4)
  92:	203a4343          	fmadd.s	ft6,fs4,ft3,ft4,rmm
  96:	4728                	sw	a0,72(a4)
  98:	554e                	beqz	a0,a <.comment+0xa>
  9a:	2029                	0x2029
  9c:	2e35                	srli	t3,t3,0xd
  9e:	2e32                	jal	7aa <.L0 +0x2>
  a0:	0030                	0x30
  a2:	4700                	sw	s0,8(a4)
  a4:	203a4343          	fmadd.s	ft6,fs4,ft3,ft4,rmm
  a8:	4728                	sw	a0,72(a4)
  aa:	554e                	beqz	a0,1c <.comment+0x1c>
  ac:	2029                	0x2029
  ae:	2e35                	srli	t3,t3,0xd
  b0:	2e32                	jal	7bc <.LASF13+0x9>
  b2:	0030                	0x30

Disassembly of section .debug_loc:

00000000 <.LLST0>:
	...
   8:	0001                	0x1
   a:	005a                	j	20 <.LLST1>
   c:	0000                	unimp
   e:	0000                	unimp
  10:	0000                	unimp
  12:	0300                	li	t1,0
  14:	8100                	sub	sp,sp,zero
  16:	9f78                	0x9f78
	...

00000020 <.LLST1>:
	...
  28:	0002                	j	28 <.LLST1+0x8>
  2a:	9f30                	0x9f30
	...
  34:	0001                	0x1
  36:	005f 0000 0000      	0x5f
  3c:	0000                	unimp
	...

0000003f <.LLST2>:
	...
  47:	0002                	j	47 <.LLST2+0x8>
  49:	9f30                	0x9f30
	...
  53:	0008                	0x8
  55:	007a                	j	73 <.LLST2+0x34>
  57:	0081                	slli	ra,ra,0x0
  59:	231c                	srai	t1,t1,0x7
  5b:	9f08                	0x9f08
	...
  65:	0008                	0x8
  67:	007a                	j	85 <.LLST2+0x46>
  69:	0081                	slli	ra,ra,0x0
  6b:	231c                	srai	t1,t1,0x7
  6d:	00009f07          	0x9f07
  71:	0000                	unimp
  73:	0000                	unimp
  75:	0000                	unimp
  77:	0008                	0x8
  79:	007a                	j	97 <.LLST2+0x58>
  7b:	0081                	slli	ra,ra,0x0
  7d:	231c                	srai	t1,t1,0x7
  7f:	9f08                	0x9f08
	...
  89:	0008                	0x8
  8b:	007a                	j	a9 <.LLST3+0xe>
  8d:	0081                	slli	ra,ra,0x0
  8f:	231c                	srai	t1,t1,0x7
  91:	00009f07          	0x9f07
  95:	0000                	unimp
  97:	0000                	unimp
	...

0000009b <.LLST3>:
	...
  a3:	0001                	0x1
  a5:	005a                	j	bb <.LLST3+0x20>
  a7:	0000                	unimp
  a9:	0000                	unimp
  ab:	0000                	unimp
  ad:	0100                	li	sp,0
  af:	5800                	sw	s0,48(s0)
	...
  b9:	0004                	0x4
  bb:	9f5a01f3          	0x9f5a01f3
	...
  c7:	0001                	0x1
  c9:	0058                	0x58
  cb:	0000                	unimp
  cd:	0000                	unimp
  cf:	0000                	unimp
  d1:	0400                	li	s0,0
  d3:	7800                	0x7800
  d5:	009f7f8f          	0x9f7f8f
  d9:	0000                	unimp
  db:	0000                	unimp
  dd:	0000                	unimp
  df:	0100                	li	sp,0
  e1:	5a00                	sw	s0,48(a2)
	...
  eb:	0004                	0x4
  ed:	9f5a01f3          	0x9f5a01f3
	...

000000f9 <.LLST4>:
	...
 101:	0001                	0x1
 103:	0000005b          	custom2	0,0,0,0
 107:	0000                	unimp
 109:	0000                	unimp
 10b:	0100                	li	sp,0
 10d:	6400                	sll	s0,s0,s0
	...
 117:	0004                	0x4
 119:	9f5b01f3          	0x9f5b01f3
	...
 125:	0001                	0x1
 127:	0064                	0x64
 129:	0000                	unimp
 12b:	0000                	unimp
 12d:	0000                	unimp
 12f:	0100                	li	sp,0
 131:	5b00                	sw	s0,48(a4)
	...

0000013b <.LLST5>:
	...
 143:	0001                	0x1
 145:	005c                	0x5c
 147:	0000                	unimp
 149:	0000                	unimp
 14b:	0000                	unimp
 14d:	0100                	li	sp,0
 14f:	5900                	sw	s0,48(a0)
	...
 159:	0004                	0x4
 15b:	9f5c01f3          	0x9f5c01f3
	...
 167:	0001                	0x1
 169:	0059                	0x59
 16b:	0000                	unimp
 16d:	0000                	unimp
 16f:	0000                	unimp
 171:	0100                	li	sp,0
 173:	5c00                	sw	s0,56(s0)
	...

0000017d <.LLST6>:
	...
 185:	0001                	0x1
 187:	005d                	0x5d
 189:	0000                	unimp
 18b:	0000                	unimp
 18d:	0000                	unimp
 18f:	0100                	li	sp,0
 191:	6300                	xor	a4,a4,s0
	...
 19b:	0004                	0x4
 19d:	9f5d01f3          	0x9f5d01f3
	...
 1a9:	0001                	0x1
 1ab:	00000063          	beqz	zero,1ab <.LLST6+0x2e>
 1af:	0000                	unimp
 1b1:	0000                	unimp
 1b3:	0100                	li	sp,0
 1b5:	5d00                	sw	s0,56(a0)
	...

000001bf <.LLST7>:
	...
 1c7:	0001                	0x1
 1c9:	005e                	j	1ff <.LLST7+0x40>
 1cb:	0000                	unimp
 1cd:	0000                	unimp
 1cf:	0000                	unimp
 1d1:	0100                	li	sp,0
 1d3:	6200                	xor	a2,a2,s0
	...
 1dd:	0004                	0x4
 1df:	9f5e01f3          	0x9f5e01f3
	...
 1eb:	0001                	0x1
 1ed:	0062                	j	205 <.LLST8+0x4>
 1ef:	0000                	unimp
 1f1:	0000                	unimp
 1f3:	0000                	unimp
 1f5:	0100                	li	sp,0
 1f7:	5e00                	sw	s0,56(a2)
	...

00000201 <.LLST8>:
	...
 209:	0001                	0x1
 20b:	005a                	j	221 <.LLST8+0x20>
 20d:	0000                	unimp
 20f:	0000                	unimp
 211:	0000                	unimp
 213:	0100                	li	sp,0
 215:	5a00                	sw	s0,48(a2)
	...
 21f:	0001                	0x1
 221:	0065                	0x65
 223:	0000                	unimp
 225:	0000                	unimp
 227:	0000                	unimp
	...

0000022a <.LLST9>:
	...
 232:	0001                	0x1
 234:	005a                	j	24a <.LLST10+0xd>
 236:	0000                	unimp
 238:	0000                	unimp
 23a:	0000                	unimp
	...

0000023d <.LLST10>:
	...
 245:	0001                	0x1
 247:	005a                	j	25d <.LLST10+0x20>
 249:	0000                	unimp
 24b:	0000                	unimp
 24d:	0000                	unimp
 24f:	0100                	li	sp,0
 251:	5800                	sw	s0,48(s0)
	...
 25b:	0004                	0x4
 25d:	9f5a01f3          	0x9f5a01f3
	...
 269:	0001                	0x1
 26b:	0058                	0x58
 26d:	0000                	unimp
 26f:	0000                	unimp
 271:	0000                	unimp
 273:	0400                	li	s0,0
 275:	7800                	0x7800
 277:	009f7f8f          	0x9f7f8f
 27b:	0000                	unimp
 27d:	0000                	unimp
 27f:	0000                	unimp
 281:	0100                	li	sp,0
 283:	5a00                	sw	s0,48(a2)
	...
 28d:	0004                	0x4
 28f:	9f5a01f3          	0x9f5a01f3
	...

0000029b <.LLST11>:
	...
 2a3:	0002                	j	2a3 <.LLST11+0x8>
 2a5:	9f30                	0x9f30
	...
 2af:	0008                	0x8
 2b1:	0080                	li	ra,0
 2b3:	007a                	j	2d1 <.LLST11+0x36>
 2b5:	231c                	srai	t1,t1,0x7
 2b7:	9f01                	addi	s0,a4,-1
	...
 2c1:	0006                	j	2e1 <.LLST11+0x46>
 2c3:	0080                	li	ra,0
 2c5:	007a                	j	2e3 <.LLST11+0x48>
 2c7:	9f1c                	0x9f1c
	...
 2d1:	0006                	j	2f1 <.LLST11+0x56>
 2d3:	0080                	li	ra,0
 2d5:	0078                	0x78
 2d7:	9f1c                	0x9f1c
	...
 2e1:	0006                	j	301 <.LLST11+0x66>
 2e3:	0080                	li	ra,0
 2e5:	007a                	j	303 <.LLST12+0x1>
 2e7:	9f1c                	0x9f1c
	...
 2f1:	00800007          	0x800007
 2f5:	1c5a01f3          	0x1c5a01f3
 2f9:	009f 0000 0000      	0x9f
 2ff:	0000                	unimp
	...

00000302 <.LLST12>:
	...
 30a:	0002                	j	30a <.LLST12+0x8>
 30c:	00009f3b          	0x9f3b
 310:	0000                	unimp
 312:	0000                	unimp
 314:	0000                	unimp
 316:	0002                	j	316 <.LLST12+0x14>
 318:	00009f3b          	0x9f3b
 31c:	0000                	unimp
 31e:	0000                	unimp
	...

00000322 <.LLST13>:
	...
 32a:	0006                	j	34a <.LLST14>
 32c:	00000003          	lb	zero,0(zero) # 2050000 <.L0 +0x203bd50>
 330:	9f00                	0x9f00
	...
 33a:	0006                	j	35a <.LLST14+0x10>
 33c:	00000003          	lb	zero,0(zero)
 340:	9f00                	0x9f00
	...

0000034a <.LLST14>:
	...
 352:	0001                	0x1
 354:	005f 0000 0000      	0x5f
 35a:	0000                	unimp
 35c:	0200                	li	tp,0
 35e:	8400                	sub	s0,s0,zero
	...
 368:	0200                	li	tp,0
 36a:	8400                	sub	s0,s0,zero
	...
 374:	0400                	li	s0,0
 376:	7800                	0x7800
 378:	00ee                	j	3f2 <.LLST17+0x1>
 37a:	009f 0000 0000      	0x9f
 380:	0000                	unimp
 382:	0300                	li	t1,0
 384:	7800                	0x7800
 386:	9f7d                	andi	a5,a4,-1
	...

00000390 <.LLST15>:
	...
 398:	0002                	j	398 <.LLST15+0x8>
 39a:	9f30                	0x9f30
	...
 3a4:	0009                	0x9
 3a6:	007f                	0x7f
 3a8:	0078                	0x78
 3aa:	081c                	mv	a6,t2
 3ac:	1c6d                	slli	s8,s8,0x3b
 3ae:	009f 0000 0000      	0x9f
 3b4:	0000                	unimp
 3b6:	0900                	li	s2,0
 3b8:	7f00                	0x7f00
 3ba:	7800                	0x7800
 3bc:	1c00                	add	s8,s8,zero
 3be:	6e08                	sll	a0,a2,a0
 3c0:	9f1c                	0x9f1c
	...
 3ca:	0009                	0x9
 3cc:	007f                	0x7f
 3ce:	0078                	0x78
 3d0:	081c                	mv	a6,t2
 3d2:	1c6e                	j	20c <.LLST8+0xb>
 3d4:	009f 0000 0000      	0x9f
 3da:	0000                	unimp
	...

000003dd <.LLST16>:
	...
 3e5:	0002                	j	3e5 <.LLST16+0x8>
 3e7:	9f34                	0x9f34
	...

000003f1 <.LLST17>:
	...
 3f9:	0008                	0x8
 3fb:	0078                	0x78
 3fd:	007a                	j	41b <.LLST17+0x2a>
 3ff:	2322                	jal	587 <.LLST25+0xc>
 401:	9f6e                	li	t5,-5
	...
 40b:	0008                	0x8
 40d:	0078                	0x78
 40f:	007a                	j	42d <.LLST18+0x10>
 411:	3322                	jal	fffffd99 <.L0 +0xfffebae9>
 413:	9f1c                	0x9f1c
	...

0000041d <.LLST18>:
	...
 425:	0001                	0x1
 427:	005a                	j	43d <.LLST18+0x20>
 429:	0000                	unimp
 42b:	0000                	unimp
 42d:	0000                	unimp
 42f:	0400                	li	s0,0
 431:	f300                	0xf300
 433:	5a01                	sw	zero,52(sp)
 435:	009f 0000 0000      	0x9f
 43b:	0000                	unimp
	...

0000043e <.LLST19>:
	...
 446:	0001                	0x1
 448:	0000005b          	custom2	0,0,0,0
 44c:	0000                	unimp
 44e:	0000                	unimp
 450:	0100                	li	sp,0
 452:	5900                	sw	s0,48(a0)
	...
 45c:	0004                	0x4
 45e:	9f5b01f3          	0x9f5b01f3
	...
 46a:	0001                	0x1
 46c:	0059                	0x59
 46e:	0000                	unimp
 470:	0000                	unimp
 472:	0000                	unimp
	...

00000475 <.LLST20>:
	...
 47d:	0001                	0x1
 47f:	005c                	0x5c
 481:	0000                	unimp
 483:	0000                	unimp
 485:	0000                	unimp
 487:	0100                	li	sp,0
 489:	6200                	xor	a2,a2,s0
	...
 493:	0004                	0x4
 495:	9f5c01f3          	0x9f5c01f3
	...
 4a1:	0001                	0x1
 4a3:	0062                	j	4bb <.LLST21+0xf>
 4a5:	0000                	unimp
 4a7:	0000                	unimp
 4a9:	0000                	unimp
	...

000004ac <.LLST21>:
	...
 4b4:	0001                	0x1
 4b6:	005d                	0x5d
 4b8:	0000                	unimp
 4ba:	0000                	unimp
 4bc:	0000                	unimp
 4be:	0100                	li	sp,0
 4c0:	6300                	xor	a4,a4,s0
	...
 4ca:	0004                	0x4
 4cc:	9f5d01f3          	0x9f5d01f3
	...
 4d8:	0001                	0x1
 4da:	00000063          	beqz	zero,4da <.LLST21+0x2e>
 4de:	0000                	unimp
 4e0:	0000                	unimp
	...

000004e3 <.LLST22>:
	...
 4eb:	0002                	j	4eb <.LLST22+0x8>
 4ed:	9f30                	0x9f30
	...
 4f7:	7f780003          	lb	zero,2039(a6)
 4fb:	009f 0000 0000      	0x9f
 501:	0000                	unimp
 503:	0100                	li	sp,0
 505:	5800                	sw	s0,48(s0)
	...
 50f:	7f780003          	lb	zero,2039(a6)
 513:	009f 0000 0000      	0x9f
 519:	0000                	unimp
 51b:	0100                	li	sp,0
 51d:	5800                	sw	s0,48(s0)
	...

00000527 <.LLST23>:
	...
 52f:	0001                	0x1
 531:	005a                	j	547 <.LLST23+0x20>
 533:	0000                	unimp
 535:	0000                	unimp
 537:	0000                	unimp
 539:	0100                	li	sp,0
 53b:	5a00                	sw	s0,48(a2)
	...
 545:	0001                	0x1
 547:	005a                	j	55d <.LLST24>
 549:	0000                	unimp
 54b:	0000                	unimp
 54d:	0000                	unimp
 54f:	0300                	li	t1,0
 551:	9100                	0x9100
 553:	7fac                	0x7fac
	...

0000055d <.LLST24>:
	...
 565:	0001                	0x1
 567:	005a                	j	57d <.LLST25+0x2>
 569:	0000                	unimp
 56b:	0000                	unimp
 56d:	0000                	unimp
 56f:	0100                	li	sp,0
 571:	5a00                	sw	s0,48(a2)
	...

0000057b <.LLST25>:
	...
 583:	0001                	0x1
 585:	005a                	j	59b <.LLST25+0x20>
 587:	0000                	unimp
 589:	0000                	unimp
 58b:	0000                	unimp
 58d:	0400                	li	s0,0
 58f:	f300                	0xf300
 591:	5a01                	sw	zero,52(sp)
 593:	009f 0000 0000      	0x9f
 599:	0000                	unimp
	...

0000059c <.LLST26>:
	...
 5a4:	0001                	0x1
 5a6:	0000005b          	custom2	0,0,0,0
 5aa:	0000                	unimp
 5ac:	0000                	unimp
 5ae:	0100                	li	sp,0
 5b0:	5900                	sw	s0,48(a0)
	...
 5ba:	0004                	0x4
 5bc:	9f5b01f3          	0x9f5b01f3
	...
 5c8:	0001                	0x1
 5ca:	0059                	0x59
 5cc:	0000                	unimp
 5ce:	0000                	unimp
 5d0:	0000                	unimp
 5d2:	0400                	li	s0,0
 5d4:	f300                	0xf300
 5d6:	5b01                	sw	zero,180(sp)
 5d8:	009f 0000 0000      	0x9f
 5de:	0000                	unimp
	...

000005e1 <.LLST27>:
	...
 5e9:	0001                	0x1
 5eb:	005c                	0x5c
 5ed:	0000                	unimp
 5ef:	0000                	unimp
 5f1:	0000                	unimp
 5f3:	0100                	li	sp,0
 5f5:	5800                	sw	s0,48(s0)
	...
 5ff:	0004                	0x4
 601:	9f5c01f3          	0x9f5c01f3
	...
 60d:	0001                	0x1
 60f:	0058                	0x58
 611:	0000                	unimp
 613:	0000                	unimp
 615:	0000                	unimp
 617:	0400                	li	s0,0
 619:	f300                	0xf300
 61b:	5c01                	sw	zero,56(sp)
 61d:	009f 0000 0000      	0x9f
 623:	0000                	unimp
	...

00000626 <.LLST28>:
	...
 62e:	0001                	0x1
 630:	005a                	j	646 <.LLST28+0x20>
 632:	0000                	unimp
 634:	0000                	unimp
 636:	0000                	unimp
 638:	0400                	li	s0,0
 63a:	f300                	0xf300
 63c:	5a01                	sw	zero,52(sp)
 63e:	009f 0000 0000      	0x9f
 644:	0000                	unimp
 646:	0100                	li	sp,0
 648:	5a00                	sw	s0,48(a2)
	...

00000652 <.LLST29>:
	...
 65a:	0001                	0x1
 65c:	005a                	j	672 <.LLST29+0x20>
 65e:	0000                	unimp
 660:	0000                	unimp
 662:	0000                	unimp
 664:	0100                	li	sp,0
 666:	5a00                	sw	s0,48(a2)
	...
 670:	0001                	0x1
 672:	005a                	j	688 <.LLST30+0xd>
 674:	0000                	unimp
 676:	0000                	unimp
 678:	0000                	unimp
	...

0000067b <.LLST30>:
	...
 683:	ff090003          	lb	zero,-16(s2) # 16e83 <.L0 +0x2bd3>
 687:	009f 0000 0000      	0x9f
 68d:	0000                	unimp
 68f:	0300                	li	t1,0
 691:	0900                	li	s2,0
 693:	9fff                	0x9fff
	...

0000069d <.LLST31>:
	...
 6a5:	0001                	0x1
 6a7:	0059                	0x59
 6a9:	0000                	unimp
 6ab:	0000                	unimp
 6ad:	0000                	unimp
 6af:	0100                	li	sp,0
 6b1:	5900                	sw	s0,48(a0)
	...
 6bb:	0004                	0x4
 6bd:	9f5b01f3          	0x9f5b01f3
	...

000006c9 <.LLST32>:
	...
 6d1:	0001                	0x1
 6d3:	005f 0000 0000      	0x5f
 6d9:	0000                	unimp
 6db:	0200                	li	tp,0
 6dd:	9100                	0x9100
 6df:	004c                	0x4c
 6e1:	0000                	unimp
 6e3:	0000                	unimp
 6e5:	0000                	unimp
 6e7:	0200                	li	tp,0
 6e9:	7b00                	0x7b00
	...
 6f3:	0200                	li	tp,0
 6f5:	9100                	0x9100
 6f7:	004c                	0x4c
 6f9:	0000                	unimp
 6fb:	0000                	unimp
 6fd:	0000                	unimp
	...

00000700 <.LLST33>:
	...
 708:	0002                	j	708 <.LLST33+0x8>
 70a:	9f30                	0x9f30
	...
 714:	007f0007          	0x7f0007
 718:	4c91                	sw	tp,88(sp)
 71a:	1c06                	j	53a <.LLST23+0x13>
 71c:	009f 0000 0000      	0x9f
 722:	0000                	unimp
 724:	0900                	li	s2,0
 726:	7f00                	0x7f00
 728:	9100                	0x9100
 72a:	064c                	mv	a2,s3
 72c:	231c                	srai	t1,t1,0x7
 72e:	9f01                	addi	s0,a4,-1
	...
 738:	007f0007          	0x7f0007
 73c:	4c91                	sw	tp,88(sp)
 73e:	1c06                	j	55e <.LLST24+0x1>
 740:	009f 0000 0000      	0x9f
 746:	0000                	unimp
 748:	0700                	li	a4,0
 74a:	7f00                	0x7f00
 74c:	7b00                	0x7b00
 74e:	0600                	li	a2,0
 750:	9f1c                	0x9f1c
	...
 75a:	007f0007          	0x7f0007
 75e:	4c91                	sw	tp,88(sp)
 760:	1c06                	j	580 <.LLST25+0x5>
 762:	009f 0000 0000      	0x9f
 768:	0000                	unimp
	...

0000076b <.LLST34>:
	...
 773:	0001                	0x1
 775:	005a                	j	78b <.LLST34+0x20>
 777:	0000                	unimp
 779:	0000                	unimp
 77b:	0000                	unimp
 77d:	0400                	li	s0,0
 77f:	f300                	0xf300
 781:	5a01                	sw	zero,52(sp)
 783:	009f 0000 0000      	0x9f
 789:	0000                	unimp
 78b:	0100                	li	sp,0
 78d:	5a00                	sw	s0,48(a2)
	...
 797:	0004                	0x4
 799:	9f5a01f3          	0x9f5a01f3
	...

000007a5 <.LLST35>:
	...
 7ad:	0001                	0x1
 7af:	0000005b          	custom2	0,0,0,0
 7b3:	0000                	unimp
 7b5:	0000                	unimp
 7b7:	0100                	li	sp,0
 7b9:	5800                	sw	s0,48(s0)
	...
 7c3:	0004                	0x4
 7c5:	9f5b01f3          	0x9f5b01f3
	...
 7d1:	0001                	0x1
 7d3:	0058                	0x58
 7d5:	0000                	unimp
 7d7:	0000                	unimp
 7d9:	0000                	unimp
 7db:	0100                	li	sp,0
 7dd:	5b00                	sw	s0,48(a4)
	...

000007e7 <.LLST36>:
	...
 7ef:	0001                	0x1
 7f1:	005a                	j	807 <.LLST37+0x2>
 7f3:	0000                	unimp
 7f5:	0000                	unimp
 7f7:	0000                	unimp
 7f9:	0100                	li	sp,0
 7fb:	5a00                	sw	s0,48(a2)
	...

00000805 <.LLST37>:
	...
 80d:	0001                	0x1
 80f:	005a                	j	825 <.LLST37+0x20>
 811:	0000                	unimp
 813:	0000                	unimp
 815:	0000                	unimp
 817:	0100                	li	sp,0
 819:	5a00                	sw	s0,48(a2)
	...
 823:	0001                	0x1
 825:	005a                	j	83b <.LLST38+0xd>
 827:	0000                	unimp
 829:	0000                	unimp
 82b:	0000                	unimp
	...

0000082e <.LLST38>:
	...
 836:	0001                	0x1
 838:	005d                	0x5d
 83a:	0000                	unimp
 83c:	0000                	unimp
 83e:	0000                	unimp
 840:	0200                	li	tp,0
 842:	9100                	0x9100
 844:	0044                	0x44
 846:	0000                	unimp
 848:	0000                	unimp
 84a:	0000                	unimp
 84c:	0200                	li	tp,0
 84e:	7b00                	0x7b00
	...

00000859 <.LLST39>:
	...
 861:	0001                	0x1
 863:	005d                	0x5d
 865:	0000                	unimp
 867:	0000                	unimp
 869:	0000                	unimp
 86b:	0100                	li	sp,0
 86d:	5f00                	sw	s0,56(a4)
	...
